 Engine

 Timestamp is 4a6f401e (Wed Jul 29 03:14:54 2009)

 Preferred load address is 00400000

 Start         Length     Name                   Class
 0001:00000000 00078f32H .textbss                DATA
 0002:00000000 000f6eeeH .text                   CODE
 0002:000f6ef0 0000379eH .text$x                 CODE
 0002:000fa690 0000117dH .text$yc                CODE
 0002:000fb810 000011c3H .text$yd                CODE
 0003:00000000 00000104H .CRT$XCA                DATA
 0003:00000104 00000109H .CRT$XCC                DATA
 0003:00000210 0000011bH .CRT$XCU                DATA
 0003:0000032c 00000104H .CRT$XCZ                DATA
 0003:00000430 00000104H .CRT$XIA                DATA
 0003:00000534 00000118H .CRT$XIC                DATA
 0003:0000064c 00000104H .CRT$XIY                DATA
 0003:00000750 00000104H .CRT$XIZ                DATA
 0003:00000854 00000104H .CRT$XPA                DATA
 0003:00000958 00000109H .CRT$XPX                DATA
 0003:00000a64 00000104H .CRT$XPXA               DATA
 0003:00000b68 00000104H .CRT$XPZ                DATA
 0003:00000c6c 00000104H .CRT$XTA                DATA
 0003:00000d70 00000104H .CRT$XTZ                DATA
 0003:00000e80 00025b4aH .rdata                  DATA
 0003:000269cc 00000160H .rdata$debug            DATA
 0003:00026b2c 000010a0H .rdata$r                DATA
 0003:00027bcc 00000104H .rtc$IAA                DATA
 0003:00027cd0 00000220H .rtc$IMZ                DATA
 0003:00027ef0 00000104H .rtc$IZZ                DATA
 0003:00027ff4 00000104H .rtc$TAA                DATA
 0003:000280f8 00000220H .rtc$TMZ                DATA
 0003:00028318 00000104H .rtc$TZZ                DATA
 0003:00028420 000036f1H .xdata$x                DATA
 0003:0002bb11 00000000H .edata                  DATA
 0004:00000000 000037d8H .data                   DATA
 0004:000037e0 004d5df0H .bss                    DATA
 0005:00000000 000000a0H .idata$2                DATA
 0005:000000a0 00000014H .idata$3                DATA
 0005:000000b4 00000564H .idata$4                DATA
 0005:00000618 00000564H .idata$5                DATA
 0005:00000b7c 00001022H .idata$6                DATA
 0006:00000000 00000169H .rsrc$01                DATA
 0006:00000170 000002e9H .rsrc$02                DATA

  Address         Publics by Value              Rva+Base       Lib:Object

 0000:00000000       __except_list              00000000     <absolute>
 0000:00000000       ___safe_se_handler_count   00000000     <absolute>
 0000:00000000       ___safe_se_handler_table   00000000     <absolute>
 0000:00000000       ___ImageBase               00400000     <linker-defined>
 0001:00000000       __enc$textbss$begin        00401000     <linker-defined>
 0001:00078f32       __enc$textbss$end          00479f32     <linker-defined>
 0002:00007a60       ?dpf@@YAXPBDZZ             00481a60 f   DevUtil.obj
 0002:00007af0       ?Trace@@YAXPBD@Z           00481af0 f   DevUtil.obj
 0002:00007b50       ?TraceClear@@YAXXZ         00481b50 f   DevUtil.obj
 0002:00007b80       ?Trace1@@YAXPBDH@Z         00481b80 f   DevUtil.obj
 0002:00007c40       ??0CGapi@@QAE@XZ           00481c40 f   GapiMain.obj
 0002:00007db0       ??_G?$CSingletonNoAutoConstruct@$00VCHighGear@@@@UAEPAXI@Z 00481db0 f i HighGear.obj
 0002:00007db0       ??_E?$CSingletonNoAutoConstruct@$00VCHighGear@@@@UAEPAXI@Z 00481db0 f i HighGear.obj
 0002:00007e10       ?InitGame@CGapi@@QAEHPAX@Z 00481e10 f   GapiMain.obj
 0002:00007f20       ??$_Debug_pointer@V?$_Deque_const_iterator@VARect@@V?$allocator@VARect@@@std@@$00@std@@@std@@YAXAAV?$_Deque_const_iterator@VARect@@V?$allocator@VARect@@@std@@$00@0@PB_WI@Z 00481f20 f i HighGear.obj
 0002:00007f60       ?LoopGame@CGapi@@QAEHXZ    00481f60 f   GapiMain.obj
 0002:000080b0       ?EndGame@CGapi@@QAEXXZ     004820b0 f   GapiMain.obj
 0002:00008100       ?MakePath@CGapi@@QAEPADPBD@Z 00482100 f   GapiMain.obj
 0002:000081c0       ?KeyCode2Keypad@CGapi@@QAEHH@Z 004821c0 f   GapiMain.obj
 0002:000085d0       ?getEmptyActorIndex@CHighGear@@QAEHXZ 004825d0 f   HighGear.obj
 0002:00008640       ?begin@?$deque@VARect@@V?$allocator@VARect@@@std@@@std@@QBE?AV?$_Deque_const_iterator@VARect@@V?$allocator@VARect@@@std@@$00@2@XZ 00482640 f i HighGear.obj
 0002:000086d0       ?GetKeyBoardConfig@CHighGear@@QBEHXZ 004826d0 f i GapiMain.obj
 0002:00008710       ?KeyEvent@CGapi@@QAEX_NH@Z 00482710 f   GapiMain.obj
 0002:000087a0       ?UpdateDisplay@CGapi@@QBEXXZ 004827a0 f   GapiMain.obj
 0002:00008850       ?TurnOnBackLight@CGapi@@QAEXXZ 00482850 f   GapiMain.obj
 0002:000088a0       ?GetDisplayOrientation@CGapi@@QAEHXZ 004828a0 f   GapiMain.obj
 0002:000088e0       ?GetAvailableDirections@CGapi@@QAEHXZ 004828e0 f   GapiMain.obj
 0002:00008a30       ?GetAvailableOrientations@CGapi@@QAEHXZ 00482a30 f   GapiMain.obj
 0002:00008a70       ?ApplyDirection@CGapi@@QAEXH@Z 00482a70 f   GapiMain.obj
 0002:00008b90       ?ApplyOrientation@CGapi@@QAEXH@Z 00482b90 f   GapiMain.obj
 0002:00008bf0       ?allocate@?$_DebugHeapAllocator@D@std@@QAAPADIPBX@Z 00482bf0 f i GapiMain.obj
 0002:00008cb0       ??0bad_alloc@std@@QAE@PBD@Z 00482cb0 f i GapiMain.obj
 0002:00008d20       ??1bad_alloc@std@@UAE@XZ   00482d20 f i GapiMain.obj
 0002:00008d80       ??_Gbad_alloc@std@@UAEPAXI@Z 00482d80 f i GapiMain.obj
 0002:00008d80       ??_Ebad_alloc@std@@UAEPAXI@Z 00482d80 f i GapiMain.obj
 0002:00008df0       ?allocate@?$_DebugHeapAllocator@D@std@@QAEPADI@Z 00482df0 f i GapiMain.obj
 0002:00008eb0       ?deallocate@?$_DebugHeapAllocator@D@std@@QAEXPADI@Z 00482eb0 f i GapiMain.obj
 0002:00008f10       ?GetInstance@?$CSingletonNoAutoConstruct@$00VCHighGear@@@@SAPAVCHighGear@@XZ 00482f10 f i GapiMain.obj
 0002:00008f60       ??0bad_alloc@std@@QAE@ABV01@@Z 00482f60 f i GapiMain.obj
 0002:00008fd0       ??0?$_DebugHeapAllocator@D@std@@QAE@XZ 00482fd0 f i GapiMain.obj
 0002:00009030       ??0?$allocator@D@std@@QAE@XZ 00483030 f i GapiMain.obj
 0002:00009070       ?_GetInstance@?$CSingletonNoAutoConstruct@$00VCHighGear@@@@KAPAVCHighGear@@XZ 00483070 f i GapiMain.obj
 0002:000090c0       ?GetSingleton@CSingletonManager@@SAPAVISingleton@@H@Z 004830c0 f i GapiMain.obj
 0002:00009120       ?Inst_GetSingleton@CSingletonManager@@IAEPAVISingleton@@H@Z 00483120 f i GapiMain.obj
 0002:00009170       ??0?$_DebugHeapAllocator@D@std@@QAE@ABV01@@Z 00483170 f i GapiMain.obj
 0002:000091d0       ??0?$allocator@D@std@@QAE@ABV01@@Z 004831d0 f i GapiMain.obj
 0002:00009210       ??$_DebugHeapDelete@X@std@@YAXPAX@Z 00483210 f i GapiMain.obj
 0002:00009270       ??0CKeypad@@QAE@XZ         00483270 f   Keypad.obj
 0002:000092e0       ?Keypad_IsKeyPressed@CKeypad@@QAE_NI@Z 004832e0 f   Keypad.obj
 0002:00009340       ?Keypad_HasKeyChanged@CKeypad@@QAE_NI@Z 00483340 f   Keypad.obj
 0002:000093a0       ?Keypad_HasKeyBeenPressed@CKeypad@@QAE_NI@Z 004833a0 f   Keypad.obj
 0002:00009400       ?Keypad_IsAnyKeyPressed@CKeypad@@QAE_NXZ 00483400 f   Keypad.obj
 0002:00009450       ?Keypad_HasAnyKeyChanged@CKeypad@@QAE_NXZ 00483450 f   Keypad.obj
 0002:000094a0       ?Keypad_HasAnyKeyBeenPressed@CKeypad@@QAE_NXZ 004834a0 f   Keypad.obj
 0002:000094f0       ?Keypad_GetLastPressedKeyCode@CKeypad@@QAEHXZ 004834f0 f   Keypad.obj
 0002:00009570       ?Keypad_IsActionKeyBeenPressed@CKeypad@@QAE_NI_N@Z 00483570 f   Keypad.obj
 0002:00009650       ?Keypad_HasActionKeyBeenDoublePressed@CKeypad@@QAE_NI@Z 00483650 f   Keypad.obj
 0002:00009720       ?Keypad_RemoveActionKey@CKeypad@@QAEXI@Z 00483720 f   Keypad.obj
 0002:00009800       ?Keypad_AddEvent@CKeypad@@QAE_NII@Z 00483800 f   Keypad.obj
 0002:000098c0       ?Keypad_UpdateState@CKeypad@@QAEX_N@Z 004838c0 f   Keypad.obj
 0002:00009a80       ?Keypad_ResetQueue@CKeypad@@QAEXXZ 00483a80 f   Keypad.obj
 0002:00009ad0       ?Keypad_ResetStates@CKeypad@@QAEXXZ 00483ad0 f   Keypad.obj
 0002:00009b20       ?Keypad_Reset@CKeypad@@QAEXXZ 00483b20 f   Keypad.obj
 0002:00009b80       ?Keypad_IsKeyPressed_MenuUp@CKeypad@@QAE_NXZ 00483b80 f   Keypad.obj
 0002:00009d10       ?Gapi@CHighGear@@QAEAAVCGapi@@XZ 00483d10 f i Keypad.obj
 0002:00009d50       ?Keypad_IsKeyPressed_MenuDown@CKeypad@@QAE_NXZ 00483d50 f   Keypad.obj
 0002:00009ee0       ?Keypad_IsKeyPressed_MenuLeft@CKeypad@@QAE_NXZ 00483ee0 f   Keypad.obj
 0002:0000a070       ?Keypad_IsKeyPressed_MenuRight@CKeypad@@QAE_NXZ 00484070 f   Keypad.obj
 0002:0000a200       ?Keypad_HasKeyBeenPressed_MenuUp@CKeypad@@QAE_NXZ 00484200 f   Keypad.obj
 0002:0000a390       ?Keypad_HasKeyBeenPressed_MenuDown@CKeypad@@QAE_NXZ 00484390 f   Keypad.obj
 0002:0000a520       ?Keypad_HasKeyBeenPressed_MenuLeft@CKeypad@@QAE_NXZ 00484520 f   Keypad.obj
 0002:0000a6b0       ?Keypad_HasKeyBeenPressed_MenuRight@CKeypad@@QAE_NXZ 004846b0 f   Keypad.obj
 0002:0000a840       ?strlen@@YAHPBG@Z          00484840 f   str_utils.obj
 0002:0000a8a0       ?strcpy@@YAHPAGPBG@Z       004848a0 f   str_utils.obj
 0002:0000a920       ?strcpy@@YAHPAGPBD@Z       00484920 f   str_utils.obj
 0002:0000a9a0       ?strcpy@@YAHPADPBG@Z       004849a0 f   str_utils.obj
 0002:0000aa20       ?strcat@@YAHPAGPBG@Z       00484a20 f   str_utils.obj
 0002:0000aa90       ?strcat@@YAHPAGPBD@Z       00484a90 f   str_utils.obj
 0002:0000ab00       ?strcmp@@YAHPAG0@Z         00484b00 f   str_utils.obj
 0002:0000ab90       ?itoa@@YAHHPAG@Z           00484b90 f   str_utils.obj
 0002:0000ad50       ?sprintf@@YAXPAGPBGZZ      00484d50 f   str_utils.obj
 0002:0000aeb0       ??M?$_Deque_const_iterator@VARect@@V?$allocator@VARect@@@std@@$00@std@@QBE_NABV01@@Z 00484eb0 f i HighGear.obj
 0002:0000af10       ?sprintf@@YAXPAGPBDZZ      00484f10 f   str_utils.obj
 0002:0000b100       ?toUnicode@@YAPAGPAD@Z     00485100 f   str_utils.obj
 0002:0000b1b0       ?CharToUnicode@@YAXPAGPBD@Z 004851b0 f   str_utils.obj
 0002:0000b260       ?ToUpper@Util@@SAAAV?$basic_string@DU?$char_traits@D@std@@V?$allocator@D@2@@std@@AAV23@@Z 00485260 f   Util.obj
 0002:0000b2f0       ?Trim@Util@@SAAAV?$basic_string@DU?$char_traits@D@std@@V?$allocator@D@2@@std@@AAV23@@Z 004852f0 f   Util.obj
 0002:0000b460       ?Replace@Util@@SAAAV?$basic_string@DU?$char_traits@D@std@@V?$allocator@D@2@@std@@AAV23@V23@1@Z 00485460 f   Util.obj
 0002:0000b5d0       ?SplitLeft@Util@@SAXV?$basic_string@DU?$char_traits@D@std@@V?$allocator@D@2@@std@@AAV23@1PBD@Z 004855d0 f   Util.obj
 0002:0000b7f0       ?GetCompleteFileName@Util@@SA?AV?$basic_string@DU?$char_traits@D@std@@V?$allocator@D@2@@std@@ABV23@PBD@Z 004857f0 f   Util.obj
 0002:0000ba10       ??1?$_String_iterator@DU?$char_traits@D@std@@V?$allocator@D@2@@std@@QAE@XZ 00485a10 f i Util.obj
 0002:0000ba60       ??1?$_String_const_iterator@DU?$char_traits@D@std@@V?$allocator@D@2@@std@@QAE@XZ 00485a60 f i Util.obj
 0002:0000bab0       ??1?$_Ranit_base@DHPBDABDV_Iterator_base@std@@@std@@QAE@XZ 00485ab0 f i Util.obj
 0002:0000bb00       ??1_Iterator_base@std@@QAE@XZ 00485b00 f i Util.obj
 0002:0000bbf0       ?_Orphan_me@_Iterator_base@std@@QAEXXZ 00485bf0 f i Util.obj
 0002:0000bcc0       ?StrFindAndReplace@Util@@SAXPADPBD11@Z 00485cc0 f   Util.obj
 0002:0000bdf0       ?StrFindAndReplace@Util@@SAXPAGPBG11@Z 00485df0 f   Util.obj
 0002:0000bfa0       ?FindCharRight@Util@@SAPBGPBGG_N@Z 00485fa0 f   Util.obj
 0002:0000c0b0       ?Interp@Util@@SAHHHHHH@Z   004860b0 f   Util.obj
 0002:0000c100       ?Interp@Util@@SAMMMMMM@Z   00486100 f   Util.obj
 0002:0000c160       ??0?$basic_string@DU?$char_traits@D@std@@V?$allocator@D@2@@std@@QAE@ABV01@@Z 00486160 f i Util.obj
 0002:0000c230       ??1?$basic_string@DU?$char_traits@D@std@@V?$allocator@D@2@@std@@QAE@XZ 00486230 f i Util.obj
 0002:0000c2e0       ??4?$basic_string@DU?$char_traits@D@std@@V?$allocator@D@2@@std@@QAEAAV01@ABV01@@Z 004862e0 f i Util.obj
 0002:0000c340       ??4?$basic_string@DU?$char_traits@D@std@@V?$allocator@D@2@@std@@QAEAAV01@PBD@Z 00486340 f i Util.obj
 0002:0000c3a0       ?append@?$basic_string@DU?$char_traits@D@std@@V?$allocator@D@2@@std@@QAEAAV12@PBD@Z 004863a0 f i Util.obj
 0002:0000c430       ?length@?$char_traits@D@std@@SAIPBD@Z 00486430 f i Util.obj
 0002:0000c480       ?replace@?$basic_string@DU?$char_traits@D@std@@V?$allocator@D@2@@std@@QAEAAV12@IIABV12@@Z 00486480 f i Util.obj
 0002:0000c4f0       ?begin@?$basic_string@DU?$char_traits@D@std@@V?$allocator@D@2@@std@@QAE?AV?$_String_iterator@DU?$char_traits@D@std@@V?$allocator@D@2@@2@XZ 004864f0 f i Util.obj
 0002:0000c580       ?end@?$basic_string@DU?$char_traits@D@std@@V?$allocator@D@2@@std@@QAE?AV?$_String_iterator@DU?$char_traits@D@std@@V?$allocator@D@2@@2@XZ 00486580 f i Util.obj
 0002:0000c610       ?c_str@?$basic_string@DU?$char_traits@D@std@@V?$allocator@D@2@@std@@QBEPBDXZ 00486610 f i Util.obj
 0002:0000c660       ?size@?$basic_string@DU?$char_traits@D@std@@V?$allocator@D@2@@std@@QBEIXZ 00486660 f i Util.obj
 0002:0000c6a0       ?find@?$basic_string@DU?$char_traits@D@std@@V?$allocator@D@2@@std@@QBEIABV12@I@Z 004866a0 f i Util.obj
 0002:0000c710       ?find@?$basic_string@DU?$char_traits@D@std@@V?$allocator@D@2@@std@@QBEIPBDI@Z 00486710 f i Util.obj
 0002:0000c7a0       ?find_first_of@?$basic_string@DU?$char_traits@D@std@@V?$allocator@D@2@@std@@QBEIPBDI@Z 004867a0 f i Util.obj
 0002:0000c830       ?find_first_not_of@?$basic_string@DU?$char_traits@D@std@@V?$allocator@D@2@@std@@QBEIPBDI@Z 00486830 f i Util.obj
 0002:0000c8c0       ?find_last_not_of@?$basic_string@DU?$char_traits@D@std@@V?$allocator@D@2@@std@@QBEIPBDI@Z 004868c0 f i Util.obj
 0002:0000c950       ?substr@?$basic_string@DU?$char_traits@D@std@@V?$allocator@D@2@@std@@QBE?AV12@II@Z 00486950 f i Util.obj
 0002:0000c9f0       ??9?$_String_const_iterator@DU?$char_traits@D@std@@V?$allocator@D@2@@std@@QBE_NABV01@@Z 004869f0 f i Util.obj
 0002:0000ca60       ??D?$_String_iterator@DU?$char_traits@D@std@@V?$allocator@D@2@@std@@QBEAADXZ 00486a60 f i Util.obj
 0002:0000cab0       ??E?$_String_iterator@DU?$char_traits@D@std@@V?$allocator@D@2@@std@@QAEAAV01@XZ 00486ab0 f i Util.obj
 0002:0000cb10       ??1?$_String_val@DV?$allocator@D@std@@@std@@QAE@XZ 00486b10 f i Util.obj
 0002:0000cb60       ??1_String_base@std@@QAE@XZ 00486b60 f i Util.obj
 0002:0000cbb0       ??1_Container_base_secure@std@@QAE@XZ 00486bb0 f i Util.obj
 0002:0000cc00       ?_Orphan_all@_Container_base_secure@std@@QBEXXZ 00486c00 f i Util.obj
 0002:0000cce0       ??0?$basic_string@DU?$char_traits@D@std@@V?$allocator@D@2@@std@@QAE@ABV01@IIABV?$allocator@D@1@@Z 00486ce0 f i Util.obj
 0002:0000cdd0       ?append@?$basic_string@DU?$char_traits@D@std@@V?$allocator@D@2@@std@@QAEAAV12@PBDI@Z 00486dd0 f i Util.obj
 0002:0000cf30       ?assign@?$basic_string@DU?$char_traits@D@std@@V?$allocator@D@2@@std@@QAEAAV12@ABV12@@Z 00486f30 f i Util.obj
 0002:0000cf90       ?assign@?$basic_string@DU?$char_traits@D@std@@V?$allocator@D@2@@std@@QAEAAV12@ABV12@II@Z 00486f90 f i Util.obj
 0002:0000d0b0       ?assign@?$basic_string@DU?$char_traits@D@std@@V?$allocator@D@2@@std@@QAEAAV12@PBD@Z 004870b0 f i Util.obj
 0002:0000d140       ?replace@?$basic_string@DU?$char_traits@D@std@@V?$allocator@D@2@@std@@QAEAAV12@IIABV12@II@Z 00487140 f i Util.obj
 0002:0000d4a0       ?drawNum@CHighGear@@QAEXHHHH_N@Z 004874a0 f   HighGear.obj
 0002:0000d580       ?find@?$basic_string@DU?$char_traits@D@std@@V?$allocator@D@2@@std@@QBEIPBDII@Z 00487580 f i Util.obj
 0002:0000d6e0       ?compare@?$char_traits@D@std@@SAHPBD0I@Z 004876e0 f i Util.obj
 0002:0000d740       ?find@?$char_traits@D@std@@SAPBDPBDIABD@Z 00487740 f i Util.obj
 0002:0000d7a0       ?find_first_of@?$basic_string@DU?$char_traits@D@std@@V?$allocator@D@2@@std@@QBEIPBDII@Z 004877a0 f i Util.obj
 0002:0000d8a0       ?find_first_not_of@?$basic_string@DU?$char_traits@D@std@@V?$allocator@D@2@@std@@QBEIPBDII@Z 004878a0 f i Util.obj
 0002:0000d9a0       ?find_last_not_of@?$basic_string@DU?$char_traits@D@std@@V?$allocator@D@2@@std@@QBEIPBDII@Z 004879a0 f i Util.obj
 0002:0000dac0       ?get_allocator@?$basic_string@DU?$char_traits@D@std@@V?$allocator@D@2@@std@@QBE?AV?$allocator@D@2@XZ 00487ac0 f i Util.obj
 0002:0000db20       ?_Tidy@?$basic_string@DU?$char_traits@D@std@@V?$allocator@D@2@@std@@IAEX_NI@Z 00487b20 f i Util.obj
 0002:0000dbf0       ?_Myptr@?$basic_string@DU?$char_traits@D@std@@V?$allocator@D@2@@std@@IAEPADXZ 00487bf0 f i Util.obj
 0002:0000dc60       ?_Myptr@?$basic_string@DU?$char_traits@D@std@@V?$allocator@D@2@@std@@IBEPBDXZ 00487c60 f i Util.obj
 0002:0000dcd0       ??0?$_String_val@DV?$allocator@D@std@@@std@@IAE@V?$allocator@D@1@@Z 00487cd0 f i Util.obj
 0002:0000dd40       ??0?$_String_val@DV?$allocator@D@std@@@std@@QAE@ABV01@@Z 00487d40 f i Util.obj
 0002:0000ddc0       ??D?$_String_const_iterator@DU?$char_traits@D@std@@V?$allocator@D@2@@std@@QBEABDXZ 00487dc0 f i Util.obj
 0002:0000dec0       ??E?$_String_const_iterator@DU?$char_traits@D@std@@V?$allocator@D@2@@std@@QAEAAV01@XZ 00487ec0 f i Util.obj
 0002:0000e010       ?_Has_container@_Iterator_base@std@@QBE_NXZ 00488010 f i Util.obj
 0002:0000e060       ??8?$_String_const_iterator@DU?$char_traits@D@std@@V?$allocator@D@2@@std@@QBE_NABV01@@Z 00488060 f i Util.obj
 0002:0000e0d0       ??0?$_String_iterator@DU?$char_traits@D@std@@V?$allocator@D@2@@std@@QAE@PADPBV_Container_base_secure@1@@Z 004880d0 f i Util.obj
 0002:0000e130       ??0_String_base@std@@QAE@XZ 00488130 f i Util.obj
 0002:0000e190       ??0_Container_base_secure@std@@QAE@XZ 00488190 f i Util.obj
 0002:0000e1e0       ?append@?$basic_string@DU?$char_traits@D@std@@V?$allocator@D@2@@std@@QAEAAV12@ABV12@II@Z 004881e0 f i Util.obj
 0002:0000e320       ?assign@?$basic_string@DU?$char_traits@D@std@@V?$allocator@D@2@@std@@QAEAAV12@PBDI@Z 00488320 f i Util.obj
 0002:0000e420       ?erase@?$basic_string@DU?$char_traits@D@std@@V?$allocator@D@2@@std@@QAEAAV12@II@Z 00488420 f i Util.obj
 0002:0000e510       ?_Eos@?$basic_string@DU?$char_traits@D@std@@V?$allocator@D@2@@std@@IAEXI@Z 00488510 f i Util.obj
 0002:0000e590       ?assign@?$char_traits@D@std@@SAXAADABD@Z 00488590 f i Util.obj
 0002:0000e5d0       ?_Grow@?$basic_string@DU?$char_traits@D@std@@V?$allocator@D@2@@std@@IAE_NI_N@Z 004885d0 f i Util.obj
 0002:0000e6d0       ?_Inside@?$basic_string@DU?$char_traits@D@std@@V?$allocator@D@2@@std@@IAE_NPBD@Z 004886d0 f i Util.obj
 0002:0000e750       ?deallocate@?$allocator@D@std@@QAEXPADI@Z 00488750 f i Util.obj
 0002:0000e7b0       ??0?$_String_const_iterator@DU?$char_traits@D@std@@V?$allocator@D@2@@std@@QAE@PBDPBV_Container_base_secure@1@@Z 004887b0 f i Util.obj
 0002:0000e8f0       ?_Adopt@_Iterator_base@std@@QAEXPBV_Container_base_secure@2@@Z 004888f0 f i Util.obj
 0002:0000ea20       ?_Compat@?$_String_const_iterator@DU?$char_traits@D@std@@V?$allocator@D@2@@std@@QBEXABV12@@Z 00488a20 f i Util.obj
 0002:0000eaf0       ??0?$_Ranit_base@DHPBDABDV_Iterator_base@std@@@std@@QAE@XZ 00488af0 f i Util.obj
 0002:0000eb50       ??0_Iterator_base@std@@QAE@XZ 00488b50 f i Util.obj
 0002:0000eba0       ?max_size@?$basic_string@DU?$char_traits@D@std@@V?$allocator@D@2@@std@@QBEIXZ 00488ba0 f i Util.obj
 0002:0000ec30       ?_Copy@?$basic_string@DU?$char_traits@D@std@@V?$allocator@D@2@@std@@IAEXII@Z 00488c30 f i Util.obj
 0002:0000ee60       ?allocate@?$allocator@D@std@@QAEPADI@Z 00488e60 f i Util.obj
 0002:0000eec0       ?max_size@?$allocator@D@std@@QBEIXZ 00488ec0 f i Util.obj
 0002:0000ef30       ??$_Debug_pointer@D@std@@YAXPBDPB_WI@Z 00488f30 f i Util.obj
 0002:0000ef90       ??$copy_s@U?$char_traits@D@std@@@_Traits_helper@std@@YAPADPADIPBDI@Z 00488f90 f i Util.obj
 0002:0000f010       ??$move_s@U?$char_traits@D@std@@@_Traits_helper@std@@YAPADPADIPBDI@Z 00489010 f i Util.obj
 0002:0000f090       ??$_Allocate@D@std@@YAPADIPAD@Z 00489090 f i Util.obj
 0002:0000f130       ??$_Char_traits_cat@U?$char_traits@D@std@@@std@@YA?AU_Secure_char_traits_tag@0@XZ 00489130 f i Util.obj
 0002:0000f1a0       ??$copy_s@U?$char_traits@D@std@@@_Traits_helper@std@@YAPADPADIPBDIU_Secure_char_traits_tag@1@@Z 004891a0 f i Util.obj
 0002:0000f200       ?_Copy_s@?$char_traits@D@std@@SAPADPADIPBDI@Z 00489200 f i Util.obj
 0002:0000f260       ??$move_s@U?$char_traits@D@std@@@_Traits_helper@std@@YAPADPADIPBDIU_Secure_char_traits_tag@1@@Z 00489260 f i Util.obj
 0002:0000f2c0       ?_Move_s@?$char_traits@D@std@@SAPADPADIPBDI@Z 004892c0 f i Util.obj
 0002:0000f320       ?IsInBox@@YA_NHHHHHH@Z     00489320 f   WinMain.obj
 0002:0000f3a0       ?Zoom@@YAXH@Z              004893a0 f   WinMain.obj
 0002:0000f3d0       ?Resize@@YAXHH@Z           004893d0 f   WinMain.obj
 0002:0000f560       ?PCDisplayUpdate@@YAXXZ    00489560 f   WinMain.obj
 0002:0000f5b0       _WinMain@16                004895b0 f   WinMain.obj
 0002:0000fdf0       ??0CLib2D@@QAE@ABV0@@Z     00489df0 f i HighGear.obj
 0002:0000fef0       ??0?$CSingletonNoAutoConstruct@$00VCHighGear@@@@QAE@XZ 00489ef0 f i HighGear.obj
 0002:00010000       ?Quit@CGapi@@QAEXXZ        0048a000 f i WinMain.obj
 0002:00010050       ??_GLib3DGL@@QAEPAXI@Z     0048a050 f i WinMain.obj
 0002:000100c0       ?MainProc@@YGJPAUHWND__@@IIJ@Z 0048a0c0 f   WinMain.obj
 0002:00010480       ??G?$_Deque_const_iterator@VARect@@V?$allocator@VARect@@@std@@$00@std@@QBEHABV01@@Z 0048a480 f i HighGear.obj
 0002:00010560       ?GRGetTickCount@@YAKXZ     0048a560 f   WinMain.obj
 0002:000105c0       ?GRGetTickCountPeriod@@YAKXZ 0048a5c0 f   WinMain.obj
 0002:00010600       ?debug_out@@YAXPBDZZ       0048a600 f   WinMain.obj
 0002:000106d0       ?InitOpenGLESWindow@@YAHXZ 0048a6d0 f   WinMain.obj
 0002:000109e0       ?_Compat@?$_Deque_const_iterator@VARect@@V?$allocator@VARect@@@std@@$00@std@@QBEXABV12@@Z 0048a9e0 f i HighGear.obj
 0002:00010aa0       ?CloseOpenGLESWindow@@YAXXZ 0048aaa0 f   WinMain.obj
 0002:00010b80       ??_GTextureFBO@@QAEPAXI@Z  0048ab80 f i WinMain.obj
 0002:00010bf0       ?OGLRefresh3D@@YAXXZ       0048abf0 f   WinMain.obj
 0002:00010ce0       ?GetInstance@?$CSingleton@$09VCTouchZones@@@@SAPAVCTouchZones@@XZ 0048ace0 f i WinMain.obj
 0002:00010de0       ?_GetInstance@?$CSingletonNoAutoConstruct@$09VCTouchZones@@@@KAPAVCTouchZones@@XZ 0048ade0 f i WinMain.obj
 0002:00010e30       ??0CBoard3D@Lib3D@@QAE@XZ  0048ae30 f   Board3D.obj
 0002:00010f50       ??1CBoard3D@Lib3D@@QAE@XZ  0048af50 f   Board3D.obj
 0002:00010f90       ?InitInverseTable@CBoard3D@Lib3D@@AAEXXZ 0048af90 f   Board3D.obj
 0002:00011090       ?DrawEdgeH@CBoard3D@Lib3D@@AAEXHHHH@Z 0048b090 f   Board3D.obj
 0002:00011210       ?InverseTable@CBoard3D@Lib3D@@ABEHH@Z 0048b210 f i Board3D.obj
 0002:00011370       ??0_CMinMax@@QAE@PBD@Z     0048b370 f i Board3D.obj
 0002:000113d0       ??R_CMinMax@@QAEXH@Z       0048b3d0 f i Board3D.obj
 0002:00011440       ??1_CMinMax@@QAE@XZ        0048b440 f i Board3D.obj
 0002:000114f0       ?DrawEdgeV@CBoard3D@Lib3D@@AAEXHHHH@Z 0048b4f0 f   Board3D.obj
 0002:00011670       ?DrawEdgeHV@CBoard3D@Lib3D@@QAEXHHHH@Z 0048b670 f   Board3D.obj
 0002:00011830       ?DrawPolyEdge@CBoard3D@Lib3D@@QAEXPBVVector4s@@00@Z 0048b830 f   Board3D.obj
 0002:00011900       ?PrepareFace2@@YA_NPBVTFace@Lib3D@@PAPBVTVxuv@2@@Z 0048b900 f   Board3D.obj
 0002:00011a20       ?ScrVectorA@TFace@Lib3D@@QBEABVVector4s@@XZ 0048ba20 f i Board3D.obj
 0002:00011a60       ?ScrVectorB@TFace@Lib3D@@QBEABVVector4s@@XZ 0048ba60 f i Board3D.obj
 0002:00011aa0       ?ScrVectorC@TFace@Lib3D@@QBEABVVector4s@@XZ 0048baa0 f i Board3D.obj
 0002:00011ae0       ?GetVxuvA@TFace@Lib3D@@QBEPBVTVxuv@2@XZ 0048bae0 f i Board3D.obj
 0002:00011b20       ?GetVxuvB@TFace@Lib3D@@QBEPBVTVxuv@2@XZ 0048bb20 f i Board3D.obj
 0002:00011b60       ?GetVxuvC@TFace@Lib3D@@QBEPBVTVxuv@2@XZ 0048bb60 f i Board3D.obj
 0002:00011ba0       ?DrawFace@CBoard3D@Lib3D@@QAEXPBVTFace@2@I@Z 0048bba0 f   Board3D.obj
 0002:00011dd0       ?GetTexture@TFace@Lib3D@@QBEPBVTTexture@2@XZ 0048bdd0 f i Board3D.obj
 0002:00011e10       ?Clear@CBoard3D@Lib3D@@QAEXXZ 0048be10 f   Board3D.obj
 0002:00011ea0       ?Clear@CBoard3D@Lib3D@@QAEXG@Z 0048bea0 f   Board3D.obj
 0002:00011f30       ?DrawPolyGT3@CBoard3D@Lib3D@@AAEXPBVTVxuv@2@00@Z 0048bf30 f   Board3D.obj
 0002:00012950       ??0?$deque@VARect@@V?$allocator@VARect@@@std@@@std@@QAE@ABV01@@Z 0048c950 f i HighGear.obj
 0002:00012af0       ??H?$_Deque_iterator@VARect@@V?$allocator@VARect@@@std@@$00@std@@QBE?AV01@H@Z 0048caf0 f i HighGear.obj
 0002:00012bd0       ??0LineParamNoZ@Lib3D@@QAE@XZ 0048cbd0 f i Board3D.obj
 0002:00012c10       ??0LineParamNoZ@Lib3D@@QAE@HHHH@Z 0048cc10 f i Board3D.obj
 0002:00012c80       ?Set@LineParamNoZ@Lib3D@@QAEXHHHH@Z 0048cc80 f i Board3D.obj
 0002:00012cf0       ?Substact@LineParamNoZ@Lib3D@@QAEXHABU12@@Z 0048ccf0 f i Board3D.obj
 0002:00012da0       ?AddDelta@LineParamNoZ@Lib3D@@QAEXABU12@@Z 0048cda0 f i Board3D.obj
 0002:00012e30       ?DivideShift16@CBoard3D@Lib3D@@QBEHHH@Z 0048ce30 f i Board3D.obj
 0002:00012e90       ?LastLine@@YAHPBVTVxuv@Lib3D@@H@Z 0048ce90 f i Board3D.obj
 0002:00012ef0       ?DrawPolyGT3Additive@CBoard3D@Lib3D@@AAEXPBVTVxuv@2@00@Z 0048cef0 f   Board3D.obj
 0002:00013910       ??$insert@V?$_Deque_const_iterator@VARect@@V?$allocator@VARect@@@std@@$00@std@@@?$deque@VARect@@V?$allocator@VARect@@@std@@@std@@QAEXV?$_Deque_const_iterator@VARect@@V?$allocator@VARect@@@std@@$00@1@00@Z 0048d910 f i HighGear.obj
 0002:00013a40       ??E?$_Deque_const_iterator@VARect@@V?$allocator@VARect@@@std@@$00@std@@QAEAAV01@XZ 0048da40 f i HighGear.obj
 0002:00013b90       ?DrawPolyGT3AdditiveAlpha@CBoard3D@Lib3D@@AAEXPBVTVxuv@2@00@Z 0048db90 f   Board3D.obj
 0002:000145b0       ??$_Debug_range@V?$_Deque_const_iterator@VARect@@V?$allocator@VARect@@@std@@$00@std@@@std@@YAXV?$_Deque_const_iterator@VARect@@V?$allocator@VARect@@@std@@$00@0@0PB_WI@Z 0048e5b0 f i HighGear.obj
 0002:000146a0       ??$swap@VARect@@@std@@YAXAAVARect@@0@Z 0048e6a0 f i HighGear.obj
 0002:00014830       ?DrawPolyGT3AlphaMask@CBoard3D@Lib3D@@AAEXPBVTVxuv@2@00@Z 0048e830 f   Board3D.obj
 0002:000154d0       ?DrawPolyGT3Shadow@CBoard3D@Lib3D@@AAEXPBVTVxuv@2@00@Z 0048f4d0 f   Board3D.obj
 0002:00015ef0       ??0LineParamNoZUV@Lib3D@@QAE@XZ 0048fef0 f i Board3D.obj
 0002:00015f30       ??0LineParamNoZUV@Lib3D@@QAE@HH@Z 0048ff30 f i Board3D.obj
 0002:00015f80       ?Set@LineParamNoZUV@Lib3D@@QAEXHH@Z 0048ff80 f i Board3D.obj
 0002:00015fd0       ?Substact@LineParamNoZUV@Lib3D@@QAEXHABU12@@Z 0048ffd0 f i Board3D.obj
 0002:00016040       ?AddDelta@LineParamNoZUV@Lib3D@@QAEXABU12@@Z 00490040 f i Board3D.obj
 0002:000160a0       ?DrawPolyGT3Substractive@CBoard3D@Lib3D@@AAEXPBVTVxuv@2@00@Z 004900a0 f   Board3D.obj
 0002:00016d40       ?DrawPolyG3@CBoard3D@Lib3D@@AAEXPBVTVxuv@2@00II@Z 00490d40 f   Board3D.obj
 0002:00017970       ?PrepareFace@CBoard3D@Lib3D@@AAE_NPBVTFace@2@PAPBVTVxuv@2@@Z 00491970 f   Board3D.obj
 0002:00017e20       ?DrawPolyGT3z@CBoard3D@Lib3D@@AAEXPBVTVxuv@2@00@Z 00491e20 f   Board3D.obj
 0002:00018cd0       ??0LineParamZ@Lib3D@@QAE@XZ 00492cd0 f i Board3D.obj
 0002:00018d30       ??0LineParamZ@Lib3D@@QAE@HHHHH@Z 00492d30 f i Board3D.obj
 0002:00018db0       ?Set@LineParamZ@Lib3D@@QAEXHHHHH@Z 00492db0 f i Board3D.obj
 0002:00018e20       ?Substact@LineParamZ@Lib3D@@QAEXHABU12@@Z 00492e20 f i Board3D.obj
 0002:00018ea0       ?AddDelta@LineParamZ@Lib3D@@QAEXABU12@@Z 00492ea0 f i Board3D.obj
 0002:00018f10       ?DrawPolyGT3zCar@CBoard3D@Lib3D@@AAEXPBVTVxuv@2@00@Z 00492f10 f   Board3D.obj
 0002:00019dc0       ?DrawBillboard@CBoard3D@Lib3D@@QAEXABVVector4s@@ABVTTexture@2@HHHHHH@Z 00493dc0 f   Board3D.obj
 0002:0001a880       ?SizeX@TTexture@Lib3D@@QBEHXZ 00494880 f i Board3D.obj
 0002:0001a8c0       ?SizeY@TTexture@Lib3D@@QBEHXZ 004948c0 f i Board3D.obj
 0002:0001a900       ?Data@TTexture@Lib3D@@QBEPAGXZ 00494900 f i Board3D.obj
 0002:0001a940       ?DrawMaskX@TTexture@Lib3D@@QBEKXZ 00494940 f i Board3D.obj
 0002:0001a980       ?DrawMaskY@TTexture@Lib3D@@QBEKXZ 00494980 f i Board3D.obj
 0002:0001a9c0       ?VShift@TTexture@Lib3D@@QBEHXZ 004949c0 f i Board3D.obj
 0002:0001aa00       ?InvRhTable@CBoard3D@Lib3D@@ABEHH@Z 00494a00 f i Board3D.obj
 0002:0001aa80       ?DrawBillboard@CBoard3D@Lib3D@@QAEXABVVector4s@@ABVTTexture@2@HHHH@Z 00494a80 f   Board3D.obj
 0002:0001b6a0       ?XShift@TTexture@Lib3D@@QBEHXZ 004956a0 f i Board3D.obj
 0002:0001b6e0       ?YShift@TTexture@Lib3D@@QBEHXZ 004956e0 f i Board3D.obj
 0002:0001b720       ?DrawLine@CBoard3D@Lib3D@@QAEXVVector4s@@0HHABVCColor@2@_N@Z 00495720 f   Board3D.obj
 0002:0001bd70       ?Abs@Lib3D@@YAHH@Z         00495d70 f i Board3D.obj
 0002:0001bdd0       ??0Vector4s@@QAE@XZ        00495dd0 f i Board3D.obj
 0002:0001be10       ??$FastColorAdd@IG@CLib2D@@SAHIG@Z 00495e10 f i Board3D.obj
 0002:0001bec0       ??$MixColor@HGH@CLib2D@@SAHHGH@Z 00495ec0 f i Board3D.obj
 0002:0001bf70       ??0CCameraAsphalt@Lib3D@@QAE@XZ 00495f70 f   Camera.obj
 0002:0001c010       ?Init@Vector4s@@QAEXJJJ@Z  00496010 f i Camera.obj
 0002:0001c070       ?Set@CCameraAsphalt@Lib3D@@QAEXABVVector4s@@0ABVCMatrix44@2@@Z 00496070 f   Camera.obj
 0002:0001c170       ?isLeft@CConvexHull@@AAEHABVConvexHullAtom@@00@Z 00496170 f   ConvexHull.obj
 0002:0001c1f0       ??1CConvexHull@@QAE@XZ     004961f0 f   ConvexHull.obj
 0002:0001c280       ?TooClose@CConvexHull@@AAE_NABVVector4s@@0@Z 00496280 f   ConvexHull.obj
 0002:0001c410       ?Abs@Lib3D@@YAJJ@Z         00496410 f i ConvexHull.obj
 0002:0001c470       ?isValid@CConvexHull@@AAE_NABVVector4s@@@Z 00496470 f   ConvexHull.obj
 0002:0001c5a0       ?CompareConvexHullAtom@@YAHPBX0@Z 004965a0 f   ConvexHull.obj
 0002:0001c640       ?PrepareVertices@CConvexHull@@AAEXABVCGLMesh@Lib3D@@W4ProjectionPlane@1@HH@Z 00496640 f   ConvexHull.obj
 0002:0001cbd0       ??0Vector2s@@QAE@JJ@Z      00496bd0 f i ConvexHull.obj
 0002:0001cc20       ??0ConvexHullAtom@@QAE@XZ  00496c20 f i ConvexHull.obj
 0002:0001cc80       ??0Vector2s@@QAE@XZ        00496c80 f i ConvexHull.obj
 0002:0001ccc0       ??0ConvexHullAtom@@QAE@ABVVector2s@@H@Z 00496cc0 f i ConvexHull.obj
 0002:0001cd20       ??4ConvexHullAtom@@QAEAAV0@ABV0@@Z 00496d20 f i ConvexHull.obj
 0002:0001cd90       ?NbVertex@CGLMesh@Lib3D@@QBEHXZ 00496d90 f i ConvexHull.obj
 0002:0001cdd0       ?GetVertices@CGLMesh@Lib3D@@QBEPAMXZ 00496dd0 f i ConvexHull.obj
 0002:0001ce10       ??0ConvexHullAtomAccessor@@QAE@PAVConvexHullAtom@@H@Z 00496e10 f i ConvexHull.obj
 0002:0001ce60       ??AConvexHullAtomAccessor@@QBEAAVConvexHullAtom@@H@Z 00496e60 f i ConvexHull.obj
 0002:0001cef0       ?Size@ConvexHullAtomAccessor@@QBEHXZ 00496ef0 f i ConvexHull.obj
 0002:0001cf30       ??_H@YGXPAXIHP6EPAX0@Z@Z   00496f30 f i ConvexHull.obj
 0002:0001cfa0       ??0CConvexHull@@QAE@AAVCGLMesh@Lib3D@@W4ProjectionPlane@0@HH@Z 00496fa0 f   ConvexHull.obj
 0002:0001d2e0       ?ComputeHull@CConvexHull@@AAEHXZ 004972e0 f   ConvexHull.obj
 0002:0001d980       ?ApplyContraints@CConvexHull@@QAEXAAVCGLMesh@Lib3D@@W4ProjectionPlane@1@HH@Z 00497980 f   ConvexHull.obj
 0002:0001dc20       ??0IndexArray@@QAE@H@Z     00497c20 f i ConvexHull.obj
 0002:0001dcf0       ??1IndexArray@@QAE@XZ      00497cf0 f i ConvexHull.obj
 0002:0001dd60       ??AIndexArray@@QAEAAHH@Z   00497d60 f i ConvexHull.obj
 0002:0001ddf0       ?TestConstraint@CConvexHull@@QAEHAAVCGLMesh@Lib3D@@W4ProjectionPlane@1@HH@Z 00497df0 f   ConvexHull.obj
 0002:0001df00       ??0TFace@Lib3D@@QAE@PAVTVertex@1@@Z 00497f00 f   Face.obj
 0002:0001dff0       ??0COTObject@Lib3D@@IAE@XZ 00497ff0 f i Face.obj
 0002:0001e040       ?GetGLTextureName@COTObject@Lib3D@@UAEIXZ 00498040 f i Face.obj
 0002:0001e080       ??_ECOTObject@Lib3D@@MAEPAXI@Z 00498080 f i Face.obj
 0002:0001e080       ??_GCOTObject@Lib3D@@MAEPAXI@Z 00498080 f i Face.obj
 0002:0001e0f0       ??1COTObject@Lib3D@@MAE@XZ 004980f0 f i Face.obj
 0002:0001e140       ??_GTFace@Lib3D@@UAEPAXI@Z 00498140 f i Face.obj
 0002:0001e1b0       ??1TFace@Lib3D@@UAE@XZ     004981b0 f i Face.obj
 0002:0001e200       ??0TFace@Lib3D@@QAE@PBVTTexture@1@AAVTVertex@1@HH1HH1HHD@Z 00498200 f   Face.obj
 0002:0001e2d0       ?AddToOGLRenderingPipeline@TFace@Lib3D@@UAEXAAHAAPAUtagOTGroupInfo@2@AAPAM2HAAPAGAAPAE@Z 004982d0 f   Face.obj
 0002:0001e9e0       ?VectorA@TFace@Lib3D@@QBEABVVector4s@@W4eVextexVxIndex@2@@Z 004989e0 f i Face.obj
 0002:0001ea30       ?VectorB@TFace@Lib3D@@QBEABVVector4s@@W4eVextexVxIndex@2@@Z 00498a30 f i Face.obj
 0002:0001ea80       ?VectorC@TFace@Lib3D@@QBEABVVector4s@@W4eVextexVxIndex@2@@Z 00498a80 f i Face.obj
 0002:0001ead0       ?GetGLTextureName@TFace@Lib3D@@UAEIXZ 00498ad0 f   Face.obj
 0002:0001eb40       ?Draw@TFace@Lib3D@@UAEXAAVCLib3D@2@@Z 00498b40 f   Face.obj
 0002:0001eb80       ?CullingTest@TFace@Lib3D@@QBE_NXZ 00498b80 f   Face.obj
 0002:0001ecb0       ?Dot@Vector4s@@SAHABV1@0@Z 00498cb0 f i Face.obj
 0002:0001ed20       ?Cross@Vector4s@@SA?AV1@ABV1@0@Z 00498d20 f i Face.obj
 0002:0001ede0       ??0Vector4s@@QAE@HHH@Z     00498de0 f i Face.obj
 0002:0001ee40       ??G@YA?AVVector4s@@ABV0@0@Z 00498e40 f i Face.obj
 0002:0001eec0       ?VertexA@TFace@Lib3D@@QBEPBVTVertex@2@XZ 00498ec0 f i Face.obj
 0002:0001ef00       ?VertexB@TFace@Lib3D@@QBEPBVTVertex@2@XZ 00498f00 f i Face.obj
 0002:0001ef40       ?VertexC@TFace@Lib3D@@QBEPBVTVertex@2@XZ 00498f40 f i Face.obj
 0002:0001ef80       ?GetZForOrderingTable@TFace@Lib3D@@UBEHXZ 00498f80 f   Face.obj
 0002:0001f040       ?GetZForOrderingTable@TBillboard@Lib3D@@UBEHXZ 00499040 f   Face.obj
 0002:0001f0a0       ?AddToOGLRenderingPipeline@TBillboard@Lib3D@@UAEXAAHAAPAUtagOTGroupInfo@2@AAPAM2HAAPAGAAPAE@Z 004990a0 f   Face.obj
 0002:0001f870       ?GetFlags@TTexture@Lib3D@@QAEHXZ 00499870 f i Face.obj
 0002:0001f8b0       ?Draw@TBillboard@Lib3D@@UAEXAAVCLib3D@2@@Z 004998b0 f   Face.obj
 0002:0001f980       ?GetFoV@CLib3D@Lib3D@@QBEHXZ 00499980 f i Face.obj
 0002:0001f9e0       ?GetFoV@CRender@Lib3D@@QBEHXZ 004999e0 f i Face.obj
 0002:0001fa20       ?FSqrt@Lib3D@@YAHH@Z       00499a20 f   FSqrt.obj
 0002:0001fb60       ?FSqrtI@Lib3D@@YAHH@Z      00499b60 f   FSqrt.obj
 0002:0001fd40       ?FSqrt4@Lib3D@@YAHH@Z      00499d40 f   FSqrt.obj
 0002:0001fdf0       ?FSqrt8@Lib3D@@YAHH@Z      00499df0 f   FSqrt.obj
 0002:0001fea0       ?Atan2i@@YAHHH@Z           00499ea0 f   IMath.obj
 0002:000200b0       ?GetYOrient@Lib3D@@YAHABVVector4s@@0@Z 0049a0b0 f   IMath.obj
 0002:00020120       ?GetXOrient@Lib3D@@YAHABVVector4s@@0@Z 0049a120 f   IMath.obj
 0002:000201f0       ?AngleDiff@Lib3D@@YAHHH@Z  0049a1f0 f   IMath.obj
 0002:00020250       ?Log2@Lib3D@@YAHH@Z        0049a250 f   IMath.obj
 0002:000202b0       ?GetFovFromXAngle@Lib3D@@YAHH@Z 0049a2b0 f   IMath.obj
 0002:00020380       ?Sinus@Lib3D@@YAFH@Z       0049a380 f i IMath.obj
 0002:000203d0       ?Cosinus@Lib3D@@YAFH@Z     0049a3d0 f i IMath.obj
 0002:00020420       ?GetFovFromYAngle@Lib3D@@YAHH@Z 0049a420 f   IMath.obj
 0002:000204f0       ?GetXAngleFromFov@Lib3D@@YAHH@Z 0049a4f0 f   IMath.obj
 0002:00020560       ?GetYAngleFromFov@Lib3D@@YAHH@Z 0049a560 f   IMath.obj
 0002:000205d0       ?PositiveQuadraticRoot12@Lib3D@@YAHHHH@Z 0049a5d0 f   IMath.obj
 0002:000207b0       ?Max@Lib3D@@YAHHH@Z        0049a7b0 f i IMath.obj
 0002:00020810       ?Quotient12@Lib3D@@YAHHH@Z 0049a810 f i IMath.obj
 0002:00020890       ?Product12@Lib3D@@YAHHH@Z  0049a890 f i IMath.obj
 0002:00020930       ?_Check_Int_Limit@@YAXN@Z  0049a930 f   IMath.obj
 0002:000209d0       ?_Check_Short_Limit@@YAXN@Z 0049a9d0 f   IMath.obj
 0002:00020a70       ?_Check_Precision@@YAXNHN@Z 0049aa70 f   IMath.obj
 0002:00020b40       ?CreateFace@@YAXAAVFile@@AAVTFace@Lib3D@@PAVTVertex@3@PBVTTexture@3@@Z 0049ab40 f   Keyframed.obj
 0002:00020c80       ?ReadInt@File@@QAEJXZ      0049ac80 f i Keyframed.obj
 0002:00020d10       ?ShiftUV@@YAXAAVTFace@Lib3D@@H@Z 0049ad10 f   Keyframed.obj
 0002:00020dc0       ??_ETFace@Lib3D@@UAEPAXI@Z 0049adc0 f i Keyframed.obj
 0002:00020e80       ??0TKeyFramed@@QAE@H@Z     0049ae80 f   Keyframed.obj
 0002:00020ee0       ??1TKeyFramed@@QAE@XZ      0049aee0 f   Keyframed.obj
 0002:00020fc0       ?Load@TKeyFramed@@AAEXPBD00H@Z 0049afc0 f   Keyframed.obj
 0002:000210e0       ??0SubMesh@TKeyFramed@@QAE@PBD00H@Z 0049b0e0 f i Keyframed.obj
 0002:000217a0       ??0File@@QAE@PBD@Z         0049b7a0 f i Keyframed.obj
 0002:00021810       ??1File@@QAE@XZ            0049b810 f i Keyframed.obj
 0002:00021870       ?Close@File@@QAEXXZ        0049b870 f i Keyframed.obj
 0002:000218e0       ??0TFace@Lib3D@@QAE@XZ     0049b8e0 f i Keyframed.obj
 0002:00021970       ?SetUV@SubMesh@TKeyFramed@@QAEXPBVTTexture@Lib3D@@@Z 0049b970 f i Keyframed.obj
 0002:00021aa0       ?Draw@SubMesh@TKeyFramed@@UAEXAAVCLib3D@Lib3D@@H@Z 0049baa0 f i Keyframed.obj
 0002:00021bf0       ?PushMatrix@CLib3D@Lib3D@@QAEAAVCMatrix44@2@XZ 0049bbf0 f i Keyframed.obj
 0002:00021c50       ?MatrixStack@CRender@Lib3D@@QAEAAVCMatrixStack@2@XZ 0049bc50 f i Keyframed.obj
 0002:00021c90       ?PopMatrix@CLib3D@Lib3D@@QAEXXZ 0049bc90 f i Keyframed.obj
 0002:00021cf0       ?DrawMeshOTFace@CLib3D@Lib3D@@QAEXAAVCMesh@2@H@Z 0049bcf0 f i Keyframed.obj
 0002:00021d60       ?SetPosition@SubMesh@TKeyFramed@@UAEXAAVCMatrix44@Lib3D@@@Z 0049bd60 f i Keyframed.obj
 0002:00021df0       ?Translate@CMatrix44@Lib3D@@QAEXABVVector4s@@@Z 0049bdf0 f i Keyframed.obj
 0002:00021e60       ?SetRotation@SubMesh@TKeyFramed@@UAEXAAVCMatrix44@Lib3D@@@Z 0049be60 f i Keyframed.obj
 0002:00021f10       ??_GSubMesh@TKeyFramed@@UAEPAXI@Z 0049bf10 f i Keyframed.obj
 0002:00021f10       ??_ESubMesh@TKeyFramed@@UAEPAXI@Z 0049bf10 f i Keyframed.obj
 0002:00021f80       ??1SubMesh@TKeyFramed@@UAE@XZ 0049bf80 f i Keyframed.obj
 0002:000220a0       ??0TVertex@Lib3D@@QAE@XZ   0049c0a0 f i Keyframed.obj
 0002:00022110       ??_GTTexture@Lib3D@@QAEPAXI@Z 0049c110 f i Keyframed.obj
 0002:00022180       ?Draw@TKeyFramed@@QAEXAAVCLib3D@Lib3D@@H@Z 0049c180 f   Keyframed.obj
 0002:00022230       ??0?$vector@VVector4s@@V?$allocator@VVector4s@@@std@@@std@@QAE@XZ 0049c230 f i Keyframed.obj
 0002:000222f0       ??1?$vector@VVector4s@@V?$allocator@VVector4s@@@std@@@std@@QAE@XZ 0049c2f0 f i Keyframed.obj
 0002:00022390       ?resize@?$vector@VVector4s@@V?$allocator@VVector4s@@@std@@@std@@QAEXI@Z 0049c390 f i Keyframed.obj
 0002:00022400       ?size@?$vector@VVector4s@@V?$allocator@VVector4s@@@std@@@std@@QBEIXZ 0049c400 f i Keyframed.obj
 0002:00022450       ??A?$vector@VVector4s@@V?$allocator@VVector4s@@@std@@@std@@QAEAAVVector4s@@I@Z 0049c450 f i Keyframed.obj
 0002:00022590       ??1?$_Vector_val@VVector4s@@V?$allocator@VVector4s@@@std@@@std@@QAE@XZ 0049c590 f i Keyframed.obj
 0002:000225e0       ?resize@?$vector@VVector4s@@V?$allocator@VVector4s@@@std@@@std@@QAEXIVVector4s@@@Z 0049c5e0 f i Keyframed.obj
 0002:00022880       ?_Buy@?$vector@VVector4s@@V?$allocator@VVector4s@@@std@@@std@@IAE_NI@Z 0049c880 f i Keyframed.obj
 0002:00022960       ?_Tidy@?$vector@VVector4s@@V?$allocator@VVector4s@@@std@@@std@@IAEXXZ 0049c960 f i Keyframed.obj
 0002:00022a30       ??0?$_Vector_val@VVector4s@@V?$allocator@VVector4s@@@std@@@std@@IAE@V?$allocator@VVector4s@@@1@@Z 0049ca30 f i Keyframed.obj
 0002:00022ab0       ??1?$_Container_base_aux_alloc_empty@V?$allocator@VVector4s@@@std@@@std@@IAE@XZ 0049cab0 f i Keyframed.obj
 0002:00022b00       ??0?$allocator@VVector4s@@@std@@QAE@XZ 0049cb00 f i Keyframed.obj
 0002:00022b40       ??1?$_Vector_iterator@VVector4s@@V?$allocator@VVector4s@@@std@@@std@@QAE@XZ 0049cb40 f i Keyframed.obj
 0002:00022b90       ??0?$_Vector_const_iterator@VVector4s@@V?$allocator@VVector4s@@@std@@@std@@QAE@ABV01@@Z 0049cb90 f i Keyframed.obj
 0002:00022c00       ??1?$_Vector_const_iterator@VVector4s@@V?$allocator@VVector4s@@@std@@@std@@QAE@XZ 0049cc00 f i Keyframed.obj
 0002:00022c50       ??0?$_Ranit@VVector4s@@HPBV1@ABV1@@std@@QAE@ABU01@@Z 0049cc50 f i Keyframed.obj
 0002:00022cb0       ??1?$_Ranit@VVector4s@@HPBV1@ABV1@@std@@QAE@XZ 0049ccb0 f i Keyframed.obj
 0002:00022d00       ??0?$_Iterator_with_base@Urandom_access_iterator_tag@std@@VVector4s@@HPBV3@ABV3@V_Iterator_base@2@@std@@QAE@ABU01@@Z 0049cd00 f i Keyframed.obj
 0002:00022d60       ??0_Iterator_base@std@@QAE@ABV01@@Z 0049cd60 f i Keyframed.obj
 0002:00022de0       ??4_Iterator_base@std@@QAEAAV01@ABV01@@Z 0049cde0 f i Keyframed.obj
 0002:00022ef0       ??1?$_Iterator_with_base@Urandom_access_iterator_tag@std@@VVector4s@@HPBV3@ABV3@V_Iterator_base@2@@std@@QAE@XZ 0049cef0 f i Keyframed.obj
 0002:00022f40       ?begin@?$vector@VVector4s@@V?$allocator@VVector4s@@@std@@@std@@QAE?AV?$_Vector_iterator@VVector4s@@V?$allocator@VVector4s@@@std@@@2@XZ 0049cf40 f i Keyframed.obj
 0002:00022fd0       ?end@?$vector@VVector4s@@V?$allocator@VVector4s@@@std@@@std@@QAE?AV?$_Vector_iterator@VVector4s@@V?$allocator@VVector4s@@@std@@@2@XZ 0049cfd0 f i Keyframed.obj
 0002:00023060       ?max_size@?$vector@VVector4s@@V?$allocator@VVector4s@@@std@@@std@@QBEIXZ 0049d060 f i Keyframed.obj
 0002:000230c0       ?erase@?$vector@VVector4s@@V?$allocator@VVector4s@@@std@@@std@@QAE?AV?$_Vector_iterator@VVector4s@@V?$allocator@VVector4s@@@std@@@2@V?$_Vector_const_iterator@VVector4s@@V?$allocator@VVector4s@@@std@@@2@0@Z 0049d0c0 f i Keyframed.obj
 0002:00023350       ?_Destroy@?$vector@VVector4s@@V?$allocator@VVector4s@@@std@@@std@@IAEXPAVVector4s@@0@Z 0049d350 f i Keyframed.obj
 0002:000233c0       ?_Insert_n@?$vector@VVector4s@@V?$allocator@VVector4s@@@std@@@std@@IAEXV?$_Vector_const_iterator@VVector4s@@V?$allocator@VVector4s@@@std@@@2@IABVVector4s@@@Z 0049d3c0 f i Keyframed.obj
 0002:00023990       ??0Vector4s@@QAE@ABV0@@Z   0049d990 f i Keyframed.obj
 0002:00023a00       ?_Xlen@?$vector@VVector4s@@V?$allocator@VVector4s@@@std@@@std@@KAXXZ 0049da00 f i Keyframed.obj
 0002:00023ae0       ??0length_error@std@@QAE@ABV?$basic_string@DU?$char_traits@D@std@@V?$allocator@D@2@@1@@Z 0049dae0 f i Keyframed.obj
 0002:00023b50       ??0logic_error@std@@QAE@ABV?$basic_string@DU?$char_traits@D@std@@V?$allocator@D@2@@1@@Z 0049db50 f i Keyframed.obj
 0002:00023c10       ?what@logic_error@std@@UBEPBDXZ 0049dc10 f i Keyframed.obj
 0002:00023c70       ??_Glogic_error@std@@UAEPAXI@Z 0049dc70 f i Keyframed.obj
 0002:00023c70       ??_Elogic_error@std@@UAEPAXI@Z 0049dc70 f i Keyframed.obj
 0002:00023ce0       ??1logic_error@std@@UAE@XZ 0049dce0 f i Keyframed.obj
 0002:00023d50       ??1length_error@std@@UAE@XZ 0049dd50 f i Keyframed.obj
 0002:00023db0       ??_Glength_error@std@@UAEPAXI@Z 0049ddb0 f i Keyframed.obj
 0002:00023db0       ??_Elength_error@std@@UAEPAXI@Z 0049ddb0 f i Keyframed.obj
 0002:00023e20       ??0logic_error@std@@QAE@ABV01@@Z 0049de20 f i Keyframed.obj
 0002:00023ef0       ??0?$basic_string@DU?$char_traits@D@std@@V?$allocator@D@2@@std@@QAE@PBD@Z 0049def0 f i Keyframed.obj
 0002:00023fc0       ??0?$_Container_base_aux_alloc_empty@V?$allocator@VVector4s@@@std@@@std@@IAE@V?$allocator@VVector4s@@@1@@Z 0049dfc0 f i Keyframed.obj
 0002:00024020       ??0?$allocator@VVector4s@@@std@@QAE@ABV01@@Z 0049e020 f i Keyframed.obj
 0002:00024060       ?deallocate@?$allocator@VVector4s@@@std@@QAEXPAVVector4s@@I@Z 0049e060 f i Keyframed.obj
 0002:000240c0       ?allocate@?$allocator@VVector4s@@@std@@QAEPAVVector4s@@I@Z 0049e0c0 f i Keyframed.obj
 0002:00024120       ??H?$_Vector_iterator@VVector4s@@V?$allocator@VVector4s@@@std@@@std@@QBE?AV01@H@Z 0049e120 f i Keyframed.obj
 0002:00024240       ??0length_error@std@@QAE@ABV01@@Z 0049e240 f i Keyframed.obj
 0002:000242b0       ??0?$_Vector_iterator@VVector4s@@V?$allocator@VVector4s@@@std@@@std@@QAE@ABV01@@Z 0049e2b0 f i Keyframed.obj
 0002:00024310       ?capacity@?$vector@VVector4s@@V?$allocator@VVector4s@@@std@@@std@@QBEIXZ 0049e310 f i Keyframed.obj
 0002:00024390       ?_Make_iter@?$vector@VVector4s@@V?$allocator@VVector4s@@@std@@@std@@QBE?AV?$_Vector_iterator@VVector4s@@V?$allocator@VVector4s@@@std@@@2@V?$_Vector_const_iterator@VVector4s@@V?$allocator@VVector4s@@@std@@@2@@Z 0049e390 f i Keyframed.obj
 0002:00024460       ?_Ufill@?$vector@VVector4s@@V?$allocator@VVector4s@@@std@@@std@@IAEPAVVector4s@@PAV3@IABV3@@Z 0049e460 f i Keyframed.obj
 0002:000244e0       ?_Orphan_range@?$vector@VVector4s@@V?$allocator@VVector4s@@@std@@@std@@IBEXPAVVector4s@@0@Z 0049e4e0 f i Keyframed.obj
 0002:000245e0       ?max_size@?$allocator@VVector4s@@@std@@QBEIXZ 0049e5e0 f i Keyframed.obj
 0002:00024650       ??0?$_Vector_iterator@VVector4s@@V?$allocator@VVector4s@@@std@@@std@@QAE@PAVVector4s@@PBV_Container_base_secure@1@@Z 0049e650 f i Keyframed.obj
 0002:000246b0       ??Y?$_Vector_iterator@VVector4s@@V?$allocator@VVector4s@@@std@@@std@@QAEAAV01@H@Z 0049e6b0 f i Keyframed.obj
 0002:00024710       ??9?$_Vector_const_iterator@VVector4s@@V?$allocator@VVector4s@@@std@@@std@@QBE_NABV01@@Z 0049e710 f i Keyframed.obj
 0002:00024780       ??M?$_Vector_const_iterator@VVector4s@@V?$allocator@VVector4s@@@std@@@std@@QBE_NABV01@@Z 0049e780 f i Keyframed.obj
 0002:000247f0       ??0?$_Vector_const_iterator@VVector4s@@V?$allocator@VVector4s@@@std@@@std@@QAE@PAVVector4s@@PBV_Container_base_secure@1@@Z 0049e7f0 f i Keyframed.obj
 0002:00024920       ??Y?$_Vector_const_iterator@VVector4s@@V?$allocator@VVector4s@@@std@@@std@@QAEAAV01@H@Z 0049e920 f i Keyframed.obj
 0002:00024a90       ?_Getmycont@_Iterator_base@std@@QBEPBV_Container_base_secure@2@XZ 0049ea90 f i Keyframed.obj
 0002:00024ad0       ??8?$_Vector_const_iterator@VVector4s@@V?$allocator@VVector4s@@@std@@@std@@QBE_NABV01@@Z 0049ead0 f i Keyframed.obj
 0002:00024b40       ?_Compat@?$_Vector_const_iterator@VVector4s@@V?$allocator@VVector4s@@@std@@@std@@QBEXABV12@@Z 0049eb40 f i Keyframed.obj
 0002:00024c10       ??0?$_Ranit@VVector4s@@HPBV1@ABV1@@std@@QAE@XZ 0049ec10 f i Keyframed.obj
 0002:00024c70       ??0?$_Iterator_with_base@Urandom_access_iterator_tag@std@@VVector4s@@HPBV3@ABV3@V_Iterator_base@2@@std@@QAE@XZ 0049ec70 f i Keyframed.obj
 0002:00024cd0       ??$unchecked_copy@PAVVector4s@@PAV1@@stdext@@YAPAVVector4s@@PAV1@00@Z 0049ecd0 f i Keyframed.obj
 0002:00024da0       ??$_Destroy_range@V?$allocator@VVector4s@@@std@@@std@@YAXPAVVector4s@@0AAV?$allocator@VVector4s@@@0@@Z 0049eda0 f i Keyframed.obj
 0002:00024e20       ??$_Umove@PAVVector4s@@@?$vector@VVector4s@@V?$allocator@VVector4s@@@std@@@std@@IAEPAVVector4s@@PAV2@00@Z 0049ee20 f i Keyframed.obj
 0002:00024e90       ??$fill@PAVVector4s@@V1@@std@@YAXPAVVector4s@@0ABV1@@Z 0049ee90 f i Keyframed.obj
 0002:00024f00       ??$_Unchecked_move_backward@PAVVector4s@@PAV1@@stdext@@YAPAVVector4s@@PAV1@00@Z 0049ef00 f i Keyframed.obj
 0002:00024fd0       ??$_Allocate@VVector4s@@@std@@YAPAVVector4s@@IPAV1@@Z 0049efd0 f i Keyframed.obj
 0002:00025070       ??$unchecked_uninitialized_fill_n@PAVVector4s@@IV1@V?$allocator@VVector4s@@@std@@@stdext@@YAXPAVVector4s@@IABV1@AAV?$allocator@VVector4s@@@std@@@Z 0049f070 f i Keyframed.obj
 0002:00025110       ??$_Checked_base@PAVVector4s@@@std@@YAPAVVector4s@@AAPAV1@@Z 0049f110 f i Keyframed.obj
 0002:000251a0       ??$_Iter_random@PAVVector4s@@PAV1@@std@@YA?AUrandom_access_iterator_tag@0@ABQAVVector4s@@0@Z 0049f1a0 f i Keyframed.obj
 0002:00025210       ??$_Ptr_cat@PAVVector4s@@PAV1@@std@@YA?AU_Nonscalar_ptr_iterator_tag@0@AAPAVVector4s@@0@Z 0049f210 f i Keyframed.obj
 0002:00025280       ??$_Copy_opt@PAVVector4s@@PAV1@@std@@YAPAVVector4s@@PAV1@00Urandom_access_iterator_tag@0@U_Nonscalar_ptr_iterator_tag@0@U_Range_checked_iterator_tag@0@@Z 0049f280 f i Keyframed.obj
 0002:00025340       ??$_Destroy_range@V?$allocator@VVector4s@@@std@@@std@@YAXPAVVector4s@@0AAV?$allocator@VVector4s@@@0@U_Nonscalar_ptr_iterator_tag@0@@Z 0049f340 f i Keyframed.obj
 0002:000253b0       ??$_Unchecked_uninitialized_move@PAVVector4s@@PAV1@V?$allocator@VVector4s@@@std@@@stdext@@YAPAVVector4s@@PAV1@00AAV?$allocator@VVector4s@@@std@@@Z 0049f3b0 f i Keyframed.obj
 0002:00025460       ??$_Fill@PAVVector4s@@V1@@std@@YAXPAVVector4s@@0ABV1@@Z 0049f460 f i Keyframed.obj
 0002:00025500       ??$_Move_cat@PAVVector4s@@@std@@YA?AU_Undefined_move_tag@0@ABQAVVector4s@@@Z 0049f500 f i Keyframed.obj
 0002:00025570       ??$_Move_backward_opt@PAVVector4s@@PAV1@Urandom_access_iterator_tag@std@@U_Undefined_move_tag@3@@std@@YAPAVVector4s@@PAV1@00Urandom_access_iterator_tag@0@U_Undefined_move_tag@0@U_Range_checked_iterator_tag@0@@Z 0049f570 f i Keyframed.obj
 0002:00025610       ??$_Uninit_fill_n@PAVVector4s@@IV1@V?$allocator@VVector4s@@@std@@@std@@YAXPAVVector4s@@IABV1@AAV?$allocator@VVector4s@@@0@U_Nonscalar_ptr_iterator_tag@0@U_Range_checked_iterator_tag@0@@Z 0049f610 f i Keyframed.obj
 0002:00025720       ?construct@?$allocator@VVector4s@@@std@@QAEXPAVVector4s@@ABV3@@Z 0049f720 f i Keyframed.obj
 0002:00025780       ?destroy@?$allocator@VVector4s@@@std@@QAEXPAVVector4s@@@Z 0049f780 f i Keyframed.obj
 0002:000257e0       ??$_Checked_base@PAVVector4s@@@std@@YAPAVVector4s@@AAPAV1@U_Unchanged_checked_iterator_base_type_tag@0@@Z 0049f7e0 f i Keyframed.obj
 0002:00025820       ??$_Copy_opt@PAVVector4s@@PAV1@Uforward_iterator_tag@std@@@std@@YAPAVVector4s@@PAV1@00Uforward_iterator_tag@0@U_Nonscalar_ptr_iterator_tag@0@U_Range_checked_iterator_tag@0@@Z 0049f820 f i Keyframed.obj
 0002:000258d0       ??$_Uninit_move@PAVVector4s@@PAV1@V?$allocator@VVector4s@@@std@@U_Undefined_move_tag@3@@std@@YAPAVVector4s@@PAV1@00AAV?$allocator@VVector4s@@@0@U_Undefined_move_tag@0@U_Range_checked_iterator_tag@0@@Z 0049f8d0 f i Keyframed.obj
 0002:00025930       ??$_Debug_range@PAVVector4s@@@std@@YAXPAVVector4s@@0PB_WI@Z 0049f930 f i Keyframed.obj
 0002:000259b0       ??$_Copy_backward_opt@PAVVector4s@@PAV1@@std@@YAPAVVector4s@@PAV1@00Urandom_access_iterator_tag@0@U_Nonscalar_ptr_iterator_tag@0@U_Range_checked_iterator_tag@0@@Z 0049f9b0 f i Keyframed.obj
 0002:00025a70       ??$_Construct@VVector4s@@V1@@std@@YAXPAVVector4s@@ABV1@@Z 0049fa70 f i Keyframed.obj
 0002:00025b60       ??2@YAPAXIPAX@Z            0049fb60 f i Keyframed.obj
 0002:00025ba0       ??3@YAXPAX0@Z              0049fba0 f i Keyframed.obj
 0002:00025bd0       ??$_Destroy@VVector4s@@@std@@YAXPAVVector4s@@@Z 0049fbd0 f i Keyframed.obj
 0002:00025c00       ??$unchecked_uninitialized_copy@PAVVector4s@@PAV1@V?$allocator@VVector4s@@@std@@@stdext@@YAPAVVector4s@@PAV1@00AAV?$allocator@VVector4s@@@std@@@Z 0049fc00 f i Keyframed.obj
 0002:00025cb0       ??$_Iter_cat@PAVVector4s@@@std@@YA?AUrandom_access_iterator_tag@0@ABQAVVector4s@@@Z 0049fcb0 f i Keyframed.obj
 0002:00025d20       ??$_Debug_range2@PAVVector4s@@@std@@YAXPAVVector4s@@0PB_WIUrandom_access_iterator_tag@0@@Z 0049fd20 f i Keyframed.obj
 0002:00025dc0       ??$_Copy_backward_opt@PAVVector4s@@PAV1@Uforward_iterator_tag@std@@@std@@YAPAVVector4s@@PAV1@00Uforward_iterator_tag@0@U_Nonscalar_ptr_iterator_tag@0@U_Range_checked_iterator_tag@0@@Z 0049fdc0 f i Keyframed.obj
 0002:00025e70       ??$_Uninit_copy@PAVVector4s@@PAV1@V?$allocator@VVector4s@@@std@@@std@@YAPAVVector4s@@PAV1@00AAV?$allocator@VVector4s@@@0@U_Nonscalar_ptr_iterator_tag@0@U_Range_checked_iterator_tag@0@@Z 0049fe70 f i Keyframed.obj
 0002:00025fc0       ??$_Debug_pointer@VVector4s@@@std@@YAXPAVVector4s@@PB_WI@Z 0049ffc0 f i Keyframed.obj
 0002:00026020       ??0CLib3D@Lib3D@@QAE@XZ    004a0020 f   Lib3d.obj
 0002:000264a0       ??1CLib3D@Lib3D@@QAE@XZ    004a04a0 f   Lib3d.obj
 0002:000266d0       ??_GCBoard3D@Lib3D@@QAEPAXI@Z 004a06d0 f i Lib3d.obj
 0002:00026740       ??_GCRender@Lib3D@@QAEPAXI@Z 004a0740 f i Lib3d.obj
 0002:000267b0       ?Init@CLib3D@Lib3D@@QAEXXZ 004a07b0 f   Lib3d.obj
 0002:00026870       ?Draw@CLib3D@Lib3D@@QAEXPAURoadStruct@@HHHPAVTTexture@2@PAUsAtlasTextureTile@42@_N@Z 004a0870 f   Lib3d.obj
 0002:000268f0       ?Draw@CLib3D@Lib3D@@QAEXAAVCSkyBox@2@AAVSunFX@@_N@Z 004a08f0 f   Lib3d.obj
 0002:00026a50       ?GetRotation@CCameraAsphalt@Lib3D@@QBEABVVector4s@@XZ 004a0a50 f i Lib3d.obj
 0002:00026a90       ?Draw@CLib3D@Lib3D@@QAEXABVVector4s@@0H@Z 004a0a90 f   Lib3d.obj
 0002:00026b20       ?SetWireFrame@CBoard3D@Lib3D@@QAEXH@Z 004a0b20 f i Lib3d.obj
 0002:00026b70       ?ClearWireFrame@CBoard3D@Lib3D@@QAEXXZ 004a0b70 f i Lib3d.obj
 0002:00026bc0       ?SetFov@CLib3D@Lib3D@@QAEXH@Z 004a0bc0 f   Lib3d.obj
 0002:00026c20       ?GetVisionAngle@CLib3D@Lib3D@@QBEXAAH0@Z 004a0c20 f   Lib3d.obj
 0002:00026cf0       ?GetCameraPosition@CLib3D@Lib3D@@QBEABVVector4s@@XZ 004a0cf0 f   Lib3d.obj
 0002:00026d50       ?GetPosition@CCameraAsphalt@Lib3D@@QBEABVVector4s@@XZ 004a0d50 f i Lib3d.obj
 0002:00026d90       ?GetCameraRotation@CLib3D@Lib3D@@QBEABVVector4s@@XZ 004a0d90 f   Lib3d.obj
 0002:00026df0       ?GetCameraMatrix@CLib3D@Lib3D@@QAEPBVCMatrix44@2@XZ 004a0df0 f   Lib3d.obj
 0002:00026e50       ?GetMatrix@CCameraAsphalt@Lib3D@@QBEABVCMatrix44@2@XZ 004a0e50 f i Lib3d.obj
 0002:00026e90       ?BeginRendering@CLib3D@Lib3D@@QAEXABVVector4s@@0ABVCMatrix44@2@@Z 004a0e90 f   Lib3d.obj
 0002:00026fb0       ?SetFrameEven@CBoard3D@Lib3D@@QAEX_N@Z 004a0fb0 f i Lib3d.obj
 0002:00027000       ?EndRendering@CLib3D@Lib3D@@QAEXXZ 004a1000 f   Lib3d.obj
 0002:00027190       ?DrawBillboard@CLib3D@Lib3D@@QAEXABVVector4s@@_NABVTTexture@2@HH@Z 004a1190 f   Lib3d.obj
 0002:00027340       ?TransformVectorz@CMatrix44@Lib3D@@QBEXPBVVector4s@@PAV3@@Z 004a1340 f i Lib3d.obj
 0002:000273a0       ?TransformVectorz@CMatrix44@Lib3D@@QBEHPBVVector4s@@@Z 004a13a0 f i Lib3d.obj
 0002:00027470       ?INDEX@CMatrix44@Lib3D@@CAHHH@Z 004a1470 f i Lib3d.obj
 0002:000274b0       ?TransformVectorxy@CMatrix44@Lib3D@@QBEXPBVVector4s@@PAV3@@Z 004a14b0 f i Lib3d.obj
 0002:00027530       ?TransformVectorx@CMatrix44@Lib3D@@QBEHPBVVector4s@@@Z 004a1530 f i Lib3d.obj
 0002:00027600       ?TransformVectory@CMatrix44@Lib3D@@QBEHPBVVector4s@@@Z 004a1600 f i Lib3d.obj
 0002:000276d0       ?CurrentMatrix@CLib3D@Lib3D@@QBEABVCMatrix44@2@XZ 004a16d0 f i Lib3d.obj
 0002:00027730       ?CurrentMatrix@CMatrixStack@Lib3D@@QBEABVCMatrix44@2@XZ 004a1730 f i Lib3d.obj
 0002:00027770       ?DrawLine@CLib3D@Lib3D@@QAEXABVVector4s@@0HH_N@Z 004a1770 f   Lib3d.obj
 0002:00027800       ?DefProjection@CLib3D@Lib3D@@QBEXPBVVector4s@@PAV3@@Z 004a1800 f   Lib3d.obj
 0002:00027870       ?DefProjection@CBoard3D@Lib3D@@QAEXPBVVector4s@@PAV3@H@Z 004a1870 f i Lib3d.obj
 0002:00027980       ?DefProjectionNear@CBoard3D@Lib3D@@AAEXPBVVector4s@@PAV3@HH@Z 004a1980 f i Lib3d.obj
 0002:00027ac0       ?DefProjectionFar@CBoard3D@Lib3D@@AAEXPBVVector4s@@PAV3@H@Z 004a1ac0 f i Lib3d.obj
 0002:00027bd0       ?AllocateFaces@CLib3D@Lib3D@@QAEPAVTFace@2@H@Z 004a1bd0 f   Lib3d.obj
 0002:00027c70       ?AllocateVertex@CLib3D@Lib3D@@QAEPAVTVertex@2@H@Z 004a1c70 f   Lib3d.obj
 0002:00027d10       ?MemAllocInit@@YAXXZ       004a1d10 f   Malloc.obj
 0002:00027d80       ?Malloc@@YAPAXH@Z          004a1d80 f   Malloc.obj
 0002:00027ee0       ?Realloc@@YAPAXPAXH@Z      004a1ee0 f   Malloc.obj
 0002:000280c0       ?Free@@YAXPAX@Z            004a20c0 f   Malloc.obj
 0002:000281e0       ?TagCurrentAlloc@@YAXXZ    004a21e0 f   Malloc.obj
 0002:00028280       ?CheckAllocTag@@YAXXZ      004a2280 f   Malloc.obj
 0002:00028380       ?GetMatrixFloat@CMatrix44@Lib3D@@QBEXPAM@Z 004a2380 f   Matrix.obj
 0002:000285a0       ?Load@CMatrix44@Lib3D@@QAEXPBV12@@Z 004a25a0 f   Matrix.obj
 0002:00028690       ?LoadIdentity@CMatrix44@Lib3D@@QAEXXZ 004a2690 f   Matrix.obj
 0002:00028820       ?Mult@CMatrix44@Lib3D@@QAEXPBV12@@Z 004a2820 f   Matrix.obj
 0002:00028ef0       ?MultFlipX@CMatrix44@Lib3D@@QAEXPBV12@@Z 004a2ef0 f   Matrix.obj
 0002:000295e0       ?GetProduct@CMatrix44@Lib3D@@QAEXPBV12@0@Z 004a35e0 f   Matrix.obj
 0002:00029ec0       ?InvRotateVector@CMatrix44@Lib3D@@QAEXPBVVector4s@@PAV3@@Z 004a3ec0 f   Matrix.obj
 0002:0002a050       ?DefScale@CMatrix44@Lib3D@@QAEXH@Z 004a4050 f   Matrix.obj
 0002:0002a0f0       ?Scale@CMatrix44@Lib3D@@QAEXH@Z 004a40f0 f   Matrix.obj
 0002:0002a190       ?DefTranslate@CMatrix44@Lib3D@@QAEXJJJ@Z 004a4190 f   Matrix.obj
 0002:0002a230       ?Translate@CMatrix44@Lib3D@@QAEXJJJ@Z 004a4230 f   Matrix.obj
 0002:0002a570       ?DefRotateX@CMatrix44@Lib3D@@QAEXH@Z 004a4570 f   Matrix.obj
 0002:0002a730       ?DefRotateY@CMatrix44@Lib3D@@QAEXH@Z 004a4730 f   Matrix.obj
 0002:0002a8f0       ?DefRotateZ@CMatrix44@Lib3D@@QAEXH@Z 004a48f0 f   Matrix.obj
 0002:0002aab0       ?Component@@YAHHHHHH@Z     004a4ab0 f   Matrix.obj
 0002:0002ab20       ?RotateX@CMatrix44@Lib3D@@QAEXH@Z 004a4b20 f   Matrix.obj
 0002:0002ac10       ?RotateY@CMatrix44@Lib3D@@QAEXH@Z 004a4c10 f   Matrix.obj
 0002:0002ad00       ?RotateZ@CMatrix44@Lib3D@@QAEXH@Z 004a4d00 f   Matrix.obj
 0002:0002adf0       ?ScaleX@CMatrix44@Lib3D@@QAEXH@Z 004a4df0 f   Matrix.obj
 0002:0002aeb0       ?ScaleY@CMatrix44@Lib3D@@QAEXH@Z 004a4eb0 f   Matrix.obj
 0002:0002af70       ?ScaleZ@CMatrix44@Lib3D@@QAEXH@Z 004a4f70 f   Matrix.obj
 0002:0002b030       ?Transpose@CMatrix44@Lib3D@@QAEXXZ 004a5030 f   Matrix.obj
 0002:0002b1a0       ?ProjectToXZ@CMatrix44@Lib3D@@QAEXXZ 004a51a0 f   Matrix.obj
 0002:0002b240       ?ProjectToXZAvoidZeroScale@CMatrix44@Lib3D@@QAEXXZ 004a5240 f   Matrix.obj
 0002:0002b300       ??8CMatrix44@Lib3D@@QBE_NABV01@@Z 004a5300 f   Matrix.obj
 0002:0002b380       ??0CMatrixStack@Lib3D@@QAE@H@Z 004a5380 f   Matrix.obj
 0002:0002b430       ??1CMatrixStack@Lib3D@@QAE@XZ 004a5430 f   Matrix.obj
 0002:0002b4d0       ?PushMatrix@CMatrixStack@Lib3D@@QAEAAVCMatrix44@2@XZ 004a54d0 f   Matrix.obj
 0002:0002b590       ?PopMatrix@CMatrixStack@Lib3D@@QAEXXZ 004a5590 f   Matrix.obj
 0002:0002b630       ?ResetStack@CMatrixStack@Lib3D@@QAEAAVCMatrix44@2@XZ 004a5630 f   Matrix.obj
 0002:0002b6d0       ??0CMesh@Lib3D@@QAE@PBDHPAVTVertex@1@HPAVTFace@1@HHH_N@Z 004a56d0 f   Mesh.obj
 0002:0002b7b0       ??_GCMesh@Lib3D@@UAEPAXI@Z 004a57b0 f i Mesh.obj
 0002:0002b7b0       ??_ECMesh@Lib3D@@UAEPAXI@Z 004a57b0 f i Mesh.obj
 0002:0002b820       ??1CMesh@Lib3D@@UAE@XZ     004a5820 f   Mesh.obj
 0002:0002b980       ?ClearFaces@CMesh@Lib3D@@QAEXXZ 004a5980 f   Mesh.obj
 0002:0002baa0       ?GetLimits@CMesh@Lib3D@@QBEXPAVVector4s@@0@Z 004a5aa0 f   Mesh.obj
 0002:0002bb90       ?Init@Vector4s@@QAEXPBV1@@Z 004a5b90 f i Mesh.obj
 0002:0002bc00       ?NbVertex@CMesh@Lib3D@@QBEHXZ 004a5c00 f i Mesh.obj
 0002:0002bc40       ?AnimationAlloc@CMesh@Lib3D@@QAEXH@Z 004a5c40 f   Mesh.obj
 0002:0002bdc0       ?AnimationLoad@CMesh@Lib3D@@QAEXHPAVVector4s@@@Z 004a5dc0 f   Mesh.obj
 0002:0002be70       ?AnimationPlay@CMesh@Lib3D@@QAEXHHH@Z 004a5e70 f   Mesh.obj
 0002:0002c210       ?AnimationPlay3@CMesh@Lib3D@@QAEXHHHHHH@Z 004a6210 f   Mesh.obj
 0002:0002c450       ??H@YA?AVVector4s@@ABV0@0@Z 004a6450 f i Mesh.obj
 0002:0002c4d0       ??D@YA?AVVector4s@@HABV0@@Z 004a64d0 f i Mesh.obj
 0002:0002c550       ??5@YA?AVVector4s@@ABV0@H@Z 004a6550 f i Mesh.obj
 0002:0002c5d0       ??0CGLMesh@Lib3D@@QAE@HHPAHPAM11PAPAGPAPBVTTexture@1@HHHH@Z 004a65d0 f   Mesh.obj
 0002:0002c860       ??_ECGLMesh@Lib3D@@UAEPAXI@Z 004a6860 f i Mesh.obj
 0002:0002c860       ??_GCGLMesh@Lib3D@@UAEPAXI@Z 004a6860 f i Mesh.obj
 0002:0002c8d0       ??1CGLMesh@Lib3D@@UAE@XZ   004a68d0 f   Mesh.obj
 0002:0002cbf0       ?SetGlobalColor@CGLMesh@Lib3D@@QAEXH@Z 004a6bf0 f   Mesh.obj
 0002:0002cc80       ?ComputeSphereTexCoord@CGLMesh@Lib3D@@QAEXHABVCMatrix44@2@@Z 004a6c80 f   Mesh.obj
 0002:0002d1e0       ?Sub@Vector4s@@QAEXPBV1@@Z 004a71e0 f i Mesh.obj
 0002:0002d260       ?Length2@Vector4s@@QBEHXZ  004a7260 f i Mesh.obj
 0002:0002d2d0       ?TransformVector@CMatrix44@Lib3D@@QBEXPBVVector4s@@PAV3@@Z 004a72d0 f i Mesh.obj
 0002:0002d4c0       ?RotateVector@CMatrix44@Lib3D@@QBEXPBVVector4s@@PAV3@@Z 004a74c0 f i Mesh.obj
 0002:0002d650       ?atan2@@YAMMM@Z            004a7650 f i Mesh.obj
 0002:0002d6b0       _atan2f                    004a76b0 f i Mesh.obj
 0002:0002d720       ?cos@@YAMM@Z               004a7720 f i Mesh.obj
 0002:0002d780       _cosf                      004a7780 f i Mesh.obj
 0002:0002d7f0       ?sin@@YAMM@Z               004a77f0 f i Mesh.obj
 0002:0002d850       _sinf                      004a7850 f i Mesh.obj
 0002:0002d8c0       ?Draw@CGLMesh@Lib3D@@QAEXABVCMatrix44@2@@Z 004a78c0 f   Mesh.obj
 0002:0002dee0       ?DrawEnvMap@CGLMesh@Lib3D@@QAEXABVCMatrix44@2@@Z 004a7ee0 f   Mesh.obj
 0002:0002ec00       ?GetVector@CGLMesh@Lib3D@@QAE?AVVector4s@@H@Z 004a8c00 f   Mesh.obj
 0002:0002ed30       ?DrawAsShadow@CGLMesh@Lib3D@@QAEXEEEEPBVCMatrix44@2@@Z 004a8d30 f   Mesh.obj
 0002:0002f4f0       ?AnimationAlloc@CGLMesh@Lib3D@@QAEXH@Z 004a94f0 f   Mesh.obj
 0002:0002f5c0       ?AnimationLoad@CGLMesh@Lib3D@@QAEXHPAM@Z 004a95c0 f   Mesh.obj
 0002:0002f680       ?AnimationPlay@CGLMesh@Lib3D@@QAEXHHH@Z 004a9680 f   Mesh.obj
 0002:0002f980       ?AnimationPlay3@CGLMesh@Lib3D@@QAEXHHHHHH@Z 004a9980 f   Mesh.obj
 0002:0002fb70       ??0CBasicMesh@Lib3D@@QAE@PBD0H@Z 004a9b70 f   Mesh.obj
 0002:00030120       ??_ECBasicMesh@Lib3D@@UAEPAXI@Z 004aa120 f i Mesh.obj
 0002:00030120       ??_GCBasicMesh@Lib3D@@UAEPAXI@Z 004aa120 f i Mesh.obj
 0002:00030190       ??0CBasicMesh@Lib3D@@QAE@PBDPAPBDHH@Z 004aa190 f   Mesh.obj
 0002:000306e0       ??1CBasicMesh@Lib3D@@UAE@XZ 004aa6e0 f   Mesh.obj
 0002:00030820       ?SetUV@CBasicMesh@Lib3D@@QAEXH@Z 004aa820 f   Mesh.obj
 0002:000308b0       ?Draw@CBasicMesh@Lib3D@@QAEXAAVCLib3D@2@@Z 004aa8b0 f   Mesh.obj
 0002:00030910       ?ShiftUV@CBasicMesh@Lib3D@@AAEXAAVTFace@2@@Z 004aa910 f   Mesh.obj
 0002:00030a20       ?CreateFace@CBasicMesh@Lib3D@@AAEXPAVA_IFile@@AAVTFace@2@PAVTVertex@2@@Z 004aaa20 f   Mesh.obj
 0002:00030ba0       ?ComputeBB@CBasicMesh@Lib3D@@QAEXAAVVector4s@@0@Z 004aaba0 f   Mesh.obj
 0002:00030d30       ?DrawScanLineZCorrected@Lib3D@@YAXAAVCBoard3D@1@HABULineParamZ@1@H@Z 004aad30 f   rasterize.obj
 0002:00031480       ?LineEnd@@YAPAGHPAGPAVCHighGear@@@Z 004ab480 f i rasterize.obj
 0002:000314f0       ?WritePixel@@YAXGPAG@Z     004ab4f0 f i rasterize.obj
 0002:00031550       ?DrawScanLineZCorrectedCar@Lib3D@@YAXAAVCBoard3D@1@HABULineParamZ@1@H@Z 004ab550 f   rasterize.obj
 0002:00031580       ?DrawScanLine@Lib3D@@YAXAAVCBoard3D@1@HABULineParamNoZ@1@H@Z 004ab580 f   rasterize.obj
 0002:00031c70       ?DrawScanLineFlat@Lib3D@@YAXAAVCBoard3D@1@HABULineParamNoZ@1@H@Z 004abc70 f   rasterize.obj
 0002:00031de0       ?DrawScanLineFlatTrans@Lib3D@@YAXAAVCBoard3D@1@HABULineParamNoZ@1@H@Z 004abde0 f   rasterize.obj
 0002:00032030       ?DrawScanLineFlatTransNeon@Lib3D@@YAXAAVCBoard3D@1@HABULineParamNoZ@1@H@Z 004ac030 f   rasterize.obj
 0002:00032310       ?DrawScanLineAdditive@Lib3D@@YAXAAVCBoard3D@1@HABULineParamNoZ@1@H@Z 004ac310 f   rasterize.obj
 0002:00032580       ?DrawScanLineAdditiveAlpha@Lib3D@@YAXAAVCBoard3D@1@HABULineParamNoZ@1@H@Z 004ac580 f   rasterize.obj
 0002:00032840       ?DrawScanLineAlphaMask@Lib3D@@YAXAAVCBoard3D@1@HABULineParamNoZ@1@H@Z 004ac840 f   rasterize.obj
 0002:00032af0       ?DrawScanLineShadow@Lib3D@@YAXAAVCBoard3D@1@HABULineParamNoZUV@1@H@Z 004acaf0 f   rasterize.obj
 0002:00032cd0       ?GetLib3D@CHighGear@@QAEAAVCLib3D@Lib3D@@XZ 004accd0 f i rasterize.obj
 0002:00032d10       ?DrawScanLineSubstractive@Lib3D@@YAXAAVCBoard3D@1@HABULineParamNoZ@1@H@Z 004acd10 f   rasterize.obj
 0002:000330d0       ?GetDestPtr@CLib2D@@QBEPAGXZ 004ad0d0 f i rasterize.obj
 0002:00033110       ?GetLib2D@CHighGear@@QAEAAVCLib2D@@XZ 004ad110 f i rasterize.obj
 0002:00033190       ??$ApproximateColorAdd@II@CLib2D@@SAHII@Z 004ad190 f i rasterize.obj
 0002:00033200       ??$ApproximateColorAdd@IG@CLib2D@@SAHIG@Z 004ad200 f i rasterize.obj
 0002:00033270       ??$ApproximateColorAdd@HH@CLib2D@@SAHHH@Z 004ad270 f i rasterize.obj
 0002:000332e0       ??$ApproximateColorMix50_50@GH@CLib2D@@SAHGH@Z 004ad2e0 f i rasterize.obj
 0002:00033330       ??$ApproximateColorMix2Pixel50_50@K@CLib2D@@SAKKK@Z 004ad330 f i rasterize.obj
 0002:00033380       ??$FastColorAdd@GG@CLib2D@@SAHGG@Z 004ad380 f i rasterize.obj
 0002:00033440       ??$MixBlack16@GH@CLib2D@@SAHGH@Z 004ad440 f i rasterize.obj
 0002:000334c0       ?InitVtxStorageArrays@CRender@Lib3D@@SAXXZ 004ad4c0 f   Render.obj
 0002:00033610       ?RenderOpaqueFenceQuads@CRender@Lib3D@@QAEXXZ 004ad610 f   Render.obj
 0002:00033900       ??0CRender@Lib3D@@QAE@H@Z  004ad900 f   Render.obj
 0002:00033d10       ??_ETBillboard@Lib3D@@UAEPAXI@Z 004add10 f i Render.obj
 0002:00033dd0       ??0TBillboard@Lib3D@@QAE@XZ 004addd0 f i Render.obj
 0002:00033e90       ??1TBillboard@Lib3D@@UAE@XZ 004ade90 f i Render.obj
 0002:00033ee0       ??1CRender@Lib3D@@QAE@XZ   004adee0 f   Render.obj
 0002:000341e0       ?SetFoV@CRender@Lib3D@@QAEXH@Z 004ae1e0 f   Render.obj
 0002:00034530       ?Init@Vector3i@@QAEXHHH@Z  004ae530 f i Render.obj
 0002:00034590       ?sqrt@@YAMM@Z              004ae590 f i Render.obj
 0002:000345f0       _sqrtf                     004ae5f0 f i Render.obj
 0002:00034660       ?FaceSubdivide@CRender@Lib3D@@QAEXPAVTFace@2@ABVCBoard3D@2@@Z 004ae660 f   Render.obj
 0002:00034da0       ?ScrVectorA@TFace@Lib3D@@QAEAAVVector4s@@XZ 004aeda0 f i Render.obj
 0002:00034de0       ?InitSubDivFace@TFace@Lib3D@@QAEXABV12@@Z 004aede0 f i Render.obj
 0002:00034e30       ?SetFlag@TFace@Lib3D@@QAEXE@Z 004aee30 f i Render.obj
 0002:00034e80       ?ClearFlag@TFace@Lib3D@@QAEXE@Z 004aee80 f i Render.obj
 0002:00034ed0       ??0MidPoint@@QAE@XZ        004aeed0 f i Render.obj
 0002:00034f30       ??4VertexUV@@QAEXABVMidPoint@@@Z 004aef30 f i Render.obj
 0002:00034fb0       ??4VertexUV@@QAEXABV0@@Z   004aefb0 f i Render.obj
 0002:00035110       ?FrustrumSubdiv@CRender@Lib3D@@QAEXPBVTFace@2@AAVCBoard3D@2@I_N@Z 004af110 f   Render.obj
 0002:00035830       ?Vmask@TVertex@Lib3D@@QBEHXZ 004af830 f i Render.obj
 0002:00035870       ?ScrVectorB@TFace@Lib3D@@QAEAAVVector4s@@XZ 004af870 f i Render.obj
 0002:000358b0       ?ScrVectorC@TFace@Lib3D@@QAEAAVVector4s@@XZ 004af8b0 f i Render.obj
 0002:000358f0       ?TestAnyFlag@TFace@Lib3D@@QBE_NXZ 004af8f0 f i Render.obj
 0002:00035940       ?ClearAllFlags@TFace@Lib3D@@QAEXXZ 004af940 f i Render.obj
 0002:00035990       ?TransformVertexFakeZ@CRender@Lib3D@@QBEKPAVTVertex@2@0@Z 004af990 f   Render.obj
 0002:00035ae0       ?SetVMask@TVertex@Lib3D@@QAEXH@Z 004afae0 f i Render.obj
 0002:00035b30       ?TransformVertex@CRender@Lib3D@@QBEKPAVTVertex@2@0@Z 004afb30 f   Render.obj
 0002:00035c70       ?TransformVertex_Test@CRender@Lib3D@@QAEKPAVTVertex@2@0@Z 004afc70 f   Render.obj
 0002:00035dd0       ?TransformVertexPointerArray@CRender@Lib3D@@QBEKPAPAVTVertex@2@H@Z 004afdd0 f   Render.obj
 0002:00035f30       ?TransformVertexNoClip@CRender@Lib3D@@QBEXPAVTVertex@2@0@Z 004aff30 f   Render.obj
 0002:00035fd0       ?FrustrumDraw@CRender@Lib3D@@QAEXPAVTFace@2@AAVCBoard3D@2@I@Z 004affd0 f   Render.obj
 0002:000360f0       ?FrustrumDrawCull@CRender@Lib3D@@QAEXPAVTFace@2@AAVCBoard3D@2@I@Z 004b00f0 f   Render.obj
 0002:000362f0       ?VertexA@TFace@Lib3D@@QAEPAVTVertex@2@XZ 004b02f0 f i Render.obj
 0002:00036330       ?VertexB@TFace@Lib3D@@QAEPAVTVertex@2@XZ 004b0330 f i Render.obj
 0002:00036370       ?VertexC@TFace@Lib3D@@QAEPAVTVertex@2@XZ 004b0370 f i Render.obj
 0002:000363b0       ?RenderLine@CRender@Lib3D@@QAEXABVVector4s@@0AAVCBoard3D@2@@Z 004b03b0 f   Render.obj
 0002:00036800       ?TransformVertex@CRender@Lib3D@@QBEKPAVTVertex@2@@Z 004b0800 f i Render.obj
 0002:00036860       ?RenderRoad@CRender@Lib3D@@QAEXPAURoadStruct@@HHHPAVTTexture@2@PAUsAtlasTextureTile@42@_N@Z 004b0860 f   Render.obj
 0002:00038bc0       ?procLoading@CHighGear@@QAEXXZ 004b2bc0 f   HighGear.obj
 0002:000394a0       ?RenderMeshOTFace@CRender@Lib3D@@QAEXPAVTVertex@2@HPAVTFace@2@HAAVCBoard3D@2@H_N@Z 004b34a0 f   Render.obj
 0002:00039820       ?RenderMeshOTFace@CRender@Lib3D@@QAEXPAVCMesh@2@AAVCBoard3D@2@H@Z 004b3820 f   Render.obj
 0002:000398c0       ?NbFaces@CMesh@Lib3D@@QBEHXZ 004b38c0 f i Render.obj
 0002:00039900       ?FirstFace@CMesh@Lib3D@@QAEPAVTFace@2@XZ 004b3900 f i Render.obj
 0002:00039970       ?FirstVertex@CMesh@Lib3D@@QAEPAVTVertex@2@XZ 004b3970 f i Render.obj
 0002:000399e0       ?IsDoubleFaced@CMesh@Lib3D@@QBE_NXZ 004b39e0 f i Render.obj
 0002:00039a20       ?TestSphereInFrustum@CRender@Lib3D@@QBE_NABVVector4s@@H@Z 004b3a20 f   Render.obj
 0002:00039c40       ?FrustrumRejectionTest@CRender@Lib3D@@QBEIABVVector4s@@@Z 004b3c40 f   Render.obj
 0002:00039d10       ?CurrentMatrix@CRender@Lib3D@@QBEABVCMatrix44@2@XZ 004b3d10 f i Render.obj
 0002:00039d70       ?OTTableClear@CRender@Lib3D@@QAEXXZ 004b3d70 f   Render.obj
 0002:00039e40       ?OTTableAdd@CRender@Lib3D@@QAEXPAVCOTObject@2@_N@Z 004b3e40 f   Render.obj
 0002:00039f70       ?OTTableDraw@CRender@Lib3D@@QAEXAAVCLib3D@2@_N@Z 004b3f70 f   Render.obj
 0002:0003ab70       ?OTTableDrawReverse@CRender@Lib3D@@QAEXAAVCLib3D@2@@Z 004b4b70 f   Render.obj
 0002:0003ad10       ??0tagOTGroupInfo@Lib3D@@QAE@XZ 004b4d10 f i Render.obj
 0002:0003ad80       ??0OTTableStats@@QAE@XZ    004b4d80 f i Render.obj
 0002:0003adf0       ??1OTTableStats@@QAE@XZ    004b4df0 f i Render.obj
 0002:0003af80       ?DrawScanline@CSoftLine3D@@CAXAAVCLib3D@Lib3D@@QAGHHHHQBH@Z 004b4f80 f   SoftLine.obj
 0002:0003b170       ?GetImageBuffer@CBoard3D@Lib3D@@QAEPAGXZ 004b5170 f i SoftLine.obj
 0002:0003b1b0       ?Width@CLib3D@Lib3D@@QAEHXZ 004b51b0 f i SoftLine.obj
 0002:0003b200       ?Height@CLib3D@Lib3D@@QAEHXZ 004b5200 f i SoftLine.obj
 0002:0003b250       ?Draw@CSoftLine3D@@UAEXAAVCLib3D@Lib3D@@@Z 004b5250 f   SoftLine.obj
 0002:0003bab0       ?Clamped@Lib3D@@YAHHHH@Z   004b5ab0 f i SoftLine.obj
 0002:0003bb30       ?AddToOGLRenderingPipeline@CSoftLine3D@@UAEXAAHAAPAUtagOTGroupInfo@Lib3D@@AAPAM2HAAPAGAAPAE@Z 004b5b30 f   SoftLine.obj
 0002:0003bb80       ?Draw@CFakeZAALine3D@@UAEXAAVCLib3D@Lib3D@@@Z 004b5b80 f   SoftLine.obj
 0002:0003bc40       ?Draw@CFakeZAALine3DGradient@@UAEXAAVCLib3D@Lib3D@@@Z 004b5c40 f   SoftLine.obj
 0002:0003be00       ?AddToOGLRenderingPipeline@CFakeZAALine3DGradient@@UAEXAAHAAPAUtagOTGroupInfo@Lib3D@@AAPAM2HAAPAGAAPAE@Z 004b5e00 f   SoftLine.obj
 0002:0003be50       ??$FastColorAdd@GH@CLib2D@@SAHGH@Z 004b5e50 f i SoftLine.obj
 0002:0003bf00       ??$Swap@VVector4s@@@Util@@SAXAAVVector4s@@0@Z 004b5f00 f i SoftLine.obj
 0002:0003bfc0       ?GetMaskShift@@YAXHAAH0@Z  004b5fc0 f   texture.obj
 0002:0003c050       ?COLOR_AVERAGE@@YAGGG@Z    004b6050 f   texture.obj
 0002:0003c100       ??0TTexture@Lib3D@@QAE@HH@Z 004b6100 f   texture.obj
 0002:0003c230       ?LoadTexture@TTexture@Lib3D@@AAEXPBD_N011H@Z 004b6230 f   texture.obj
 0002:0003d420       ??$_Insert@V?$_Deque_const_iterator@VARect@@V?$allocator@VARect@@@std@@$00@std@@@?$deque@VARect@@V?$allocator@VARect@@@std@@@std@@QAEXV?$_Deque_const_iterator@VARect@@V?$allocator@VARect@@@std@@$00@1@00Uinput_iterator_tag@1@@Z 004b7420 f i HighGear.obj
 0002:0003d8a0       ?CreateKeyForGLTexName@TTexture@Lib3D@@SAXAAFI@Z 004b78a0 f i texture.obj
 0002:0003d9d0       ?CleanBuffers@TTexture@Lib3D@@QAEXXZ 004b79d0 f   texture.obj
 0002:0003dab0       ??0TTexture@Lib3D@@QAE@PBD_N011H@Z 004b7ab0 f   texture.obj
 0002:0003db80       ??0TTexture@Lib3D@@QAE@PBDH@Z 004b7b80 f   texture.obj
 0002:0003dc40       ??0TTexture@Lib3D@@QAE@AAVA_IFile@@_N@Z 004b7c40 f   texture.obj
 0002:0003e6c0       ??1TTexture@Lib3D@@QAE@XZ  004b86c0 f   texture.obj
 0002:0003e7a0       ?FreeKeyForGLTexName@TTexture@Lib3D@@SAXAAF@Z 004b87a0 f i texture.obj
 0002:0003e840       ??0TTexture@Lib3D@@QAE@XZ  004b8840 f   texture.obj
 0002:0003e8e0       ?Init@TTexture@Lib3D@@AAEXKKW4e_RasterMode@12@@Z 004b88e0 f   texture.obj
 0002:0003ea00       ?FlipHorizontal@TTexture@Lib3D@@QAEXXZ 004b8a00 f   texture.obj
 0002:0003eb40       ?SaveTarga@TTexture@Lib3D@@QBEXPBD@Z 004b8b40 f   texture.obj
 0002:0003ee20       ?findFirstEmptyCell@@YA_NPAPAEHHAAH1@Z 004b8e20 f   texture.obj
 0002:0003f070       ?findMaxHeight@@YAHPAPAE@Z 004b9070 f   texture.obj
 0002:0003f130       ?CreateAtlasTexture@TTexture@Lib3D@@SAXPAV12@0PAUsAtlasTextureTile@12@1HHPAPAV12@H@Z 004b9130 f   texture.obj
 0002:0003fbd0       ?GetGlobalAlpha@TTexture@Lib3D@@QAEHXZ 004b9bd0 f i texture.obj
 0002:0003fc10       ?Length@Vector2s@@QBEJXZ   004b9c10 f   Vector.obj
 0002:0003fc70       ?Length2@Vector2s@@QBEJXZ  004b9c70 f i Vector.obj
 0002:0003fcd0       ?SafeLength@Vector2s@@QBEJXZ 004b9cd0 f   Vector.obj
 0002:0003fdb0       ?Square@Lib3D@@YAHH@Z      004b9db0 f i Vector.obj
 0002:0003fdf0       ?L1Norm@Vector2s@@QBEJXZ   004b9df0 f i Vector.obj
 0002:0003fe70       ?RightSide@Vector2s@@SA_NABV1@0@Z 004b9e70 f   Vector.obj
 0002:0003fee0       ?Normal@Vector2s@@QBE?AV1@XZ 004b9ee0 f i Vector.obj
 0002:0003ff50       ?Dot@Vector2s@@SAHABV1@0@Z 004b9f50 f i Vector.obj
 0002:0003ffa0       ?NullVector@Vector4s@@SAABV1@XZ 004b9fa0 f   Vector.obj
 0002:0003ffe0       ?_CheckLimit@@YAXN@Z       004b9fe0 f   Vector.obj
 0002:00040070       ?Normalize@Vector2s@@QAEXXZ 004ba070 f   Vector.obj
 0002:00040120       ?SafeNormalize@Vector2s@@QAE_NXZ 004ba120 f   Vector.obj
 0002:000401c0       ?QuotientCOS_SIN_SHIFT@Lib3D@@YAHHH@Z 004ba1c0 f i Vector.obj
 0002:00040240       ?Resize@Vector2s@@QAEXH@Z  004ba240 f   Vector.obj
 0002:000402f0       ?SafeResize@Vector2s@@QAE_NH@Z 004ba2f0 f   Vector.obj
 0002:000403a0       ?ProductQuotient@Lib3D@@YAHHHH@Z 004ba3a0 f i Vector.obj
 0002:00040440       ?LinIndex@Vector4s@@QAEHHHH@Z 004ba440 f   Vector.obj
 0002:000404b0       ?Scale@Vector4s@@QAEXH@Z   004ba4b0 f   Vector.obj
 0002:00040530       ?GetMin@Vector4s@@QAEXPBV1@@Z 004ba530 f   Vector.obj
 0002:000405d0       ?GetMax@Vector4s@@QAEXPBV1@@Z 004ba5d0 f   Vector.obj
 0002:00040670       ?CrossShift@Vector4s@@QBEXPBV1@PAV1@@Z 004ba670 f   Vector.obj
 0002:00040730       ?Length@Vector4s@@QBEHXZ   004ba730 f   Vector.obj
 0002:00040790       ?SafeLength@Vector4s@@QBEJXZ 004ba790 f   Vector.obj
 0002:00040890       ?L1Norm@Vector4s@@QBEJXZ   004ba890 f i Vector.obj
 0002:00040930       ?Normalize@Vector4s@@QAEXXZ 004ba930 f   Vector.obj
 0002:00040a10       ?SafeNormalize@Vector4s@@QAE_NXZ 004baa10 f   Vector.obj
 0002:00040ad0       ?Resize@Vector4s@@QAEXH@Z  004baad0 f   Vector.obj
 0002:00040bb0       ?SafeResize@Vector4s@@QAE_NH@Z 004babb0 f   Vector.obj
 0002:00040c80       ?GetReciprocalAxis@Vector4s@@SAPBHH@Z 004bac80 f   Vector.obj
 0002:00040d00       ?GetMainAxis@Vector4s@@QBEHXZ 004bad00 f   Vector.obj
 0002:00040dd0       ?SelfRotateY@Vector4s@@QAEXH@Z 004badd0 f   Vector.obj
 0002:00040eb0       ?GetRotatedY@Vector4s@@QBE?AV1@H@Z 004baeb0 f   Vector.obj
 0002:00040f90       ?GetProjection@Vector4s@@SA?AV1@ABV1@0@Z 004baf90 f   Vector.obj
 0002:00041090       ?GetReflexion@Vector4s@@SA?AV1@ABV1@0@Z 004bb090 f   Vector.obj
 0002:00041160       ?SelfRotate@Vector2s@@QAEXH@Z 004bb160 f   Vector.obj
 0002:00041240       ?GetRotated@Vector2s@@QBE?AV1@H@Z 004bb240 f   Vector.obj
 0002:00041310       ?RayPlaneInter@@YA_NABVVector4s@@000AAV1@@Z 004bb310 f   Vector.obj
 0002:000414d0       ?RaytriangleIntersect@@YA_NABVVector4s@@00000_N@Z 004bb4d0 f   Vector.obj
 0002:00041850       ?GetVector2s@Vector4s@@QBE?AVVector2s@@PBH@Z 004bb850 f i Vector.obj
 0002:000418d0       ??AVector4s@@QBEJH@Z       004bb8d0 f i Vector.obj
 0002:00041950       ??G@YA?AVVector2s@@ABV0@0@Z 004bb950 f i Vector.obj
 0002:000419c0       ?FrontSide@@YA_NABVVector4s@@00@Z 004bb9c0 f i Vector.obj
 0002:00041ac0       ?FindRaytriangleIntersectionPoint@@YAHABVVector4s@@0000AAV1@_N@Z 004bbac0 f   Vector.obj
 0002:00041ef0       ?PointRayDist2@@YAHABVVector4s@@00@Z 004bbef0 f   Vector.obj
 0002:00041fd0       ?Intersect@Vector2s@@SA_NABV1@000@Z 004bbfd0 f   Vector.obj
 0002:00042170       ?ComputeOutCode@@YAHABVVector2s@@00@Z 004bc170 f   aaline.obj
 0002:00042220       ?ClipLine@@YA_NAAVVector2s@@0ABV1@1@Z 004bc220 f   aaline.obj
 0002:00042510       ?ComposeColor@@YAXPAGGH@Z  004bc510 f   aaline.obj
 0002:000426a0       ?DrawAALine@@YA_NAAUImage@@ABVVector2s@@111GW4AALINE_MODE@@@Z 004bc6a0 f   aaline.obj
 0002:00043070       ?data@Image@@QAEPAGXZ      004bd070 f i aaline.obj
 0002:000430b0       ?width@Image@@QBEIXZ       004bd0b0 f i aaline.obj
 0002:000430f0       ?DrawAALineGradient@@YA_NAAUImage@@ABVVector2s@@111PAGHW4AALINE_MODE@@@Z 004bd0f0 f   aaline.obj
 0002:00043c90       ??$FastColorMix75_25@GG@CLib2D@@SAHGG@Z 004bdc90 f i aaline.obj
 0002:00043d40       ??$FastColorMix63_37@GG@CLib2D@@SAHGG@Z 004bdd40 f i aaline.obj
 0002:00043df0       ??$FastColorMix50_50@GG@CLib2D@@SAHGG@Z 004bddf0 f i aaline.obj
 0002:00043e50       ??$FastColorMix88_12@GG@CLib2D@@SAHGG@Z 004bde50 f i aaline.obj
 0002:00043fc0       ??$MixColor16@GGH@CLib2D@@SAHGGH@Z 004bdfc0 f i aaline.obj
 0002:00044070       ??$FastColorAddAlphaHD@GGH@CLib2D@@SAHGGH@Z 004be070 f i aaline.obj
 0002:00044150       ??0CModule@@QAE@HHHHH@Z    004be150 f   AuroraSprite.obj
 0002:00044220       ??_GCModule@@UAEPAXI@Z     004be220 f i AuroraSprite.obj
 0002:00044220       ??_ECModule@@UAEPAXI@Z     004be220 f i AuroraSprite.obj
 0002:00044290       ??1CModule@@UAE@XZ         004be290 f   AuroraSprite.obj
 0002:000442d0       ??0CAuroraPalette@@QAE@F@Z 004be2d0 f   AuroraSprite.obj
 0002:00044380       ??_ECAuroraPalette@@UAEPAXI@Z 004be380 f i AuroraSprite.obj
 0002:00044380       ??_GCAuroraPalette@@UAEPAXI@Z 004be380 f i AuroraSprite.obj
 0002:000443f0       ??1CAuroraPalette@@UAE@XZ  004be3f0 f   AuroraSprite.obj
 0002:00044480       ??0CFrame@@QAE@F@Z         004be480 f   AuroraSprite.obj
 0002:00044530       ??1CFrame@@QAE@XZ          004be530 f   AuroraSprite.obj
 0002:00044630       ??0CAnim@@QAE@F@Z          004be630 f   AuroraSprite.obj
 0002:000446e0       ??1CAnim@@QAE@XZ           004be6e0 f   AuroraSprite.obj
 0002:000447e0       ?initKerning@CSprite@@IAEX_N@Z 004be7e0 f   AuroraSprite.obj
 0002:00044830       ?GetKerningSpacing@CSprite@@IAEHG@Z 004be830 f   AuroraSprite.obj
 0002:00044920       ??0CSprite@@QAE@PBDH@Z     004be920 f   AuroraSprite.obj
 0002:000466c0       ??_ECSprite@@UAEPAXI@Z     004c06c0 f i AuroraSprite.obj
 0002:000466c0       ??_GCSprite@@UAEPAXI@Z     004c06c0 f i AuroraSprite.obj
 0002:00046730       ??1CSprite@@UAE@XZ         004c0730 f   AuroraSprite.obj
 0002:00046c90       ??_GCFrame@@QAEPAXI@Z      004c0c90 f i AuroraSprite.obj
 0002:00046d00       ??_GCAnim@@QAEPAXI@Z       004c0d00 f i AuroraSprite.obj
 0002:00046d70       ?DrawAFrame@CSprite@@QBEXAAVCLib2D@@HHHH@Z 004c0d70 f   AuroraSprite.obj
 0002:00046e20       ?GetNumAFrames@CSprite@@QBEHH@Z 004c0e20 f   AuroraSprite.obj
 0002:00046e70       ?GetAFrameTime@CSprite@@QBEHHH@Z 004c0e70 f   AuroraSprite.obj
 0002:00046ed0       ?DrawFrame@CSprite@@QBEXAAVCLib2D@@HHHHH@Z 004c0ed0 f   AuroraSprite.obj
 0002:00046fc0       ?DrawFrame@CSprite@@QBEXAAVCLib2D@@HHPAVCFrame@@HH@Z 004c0fc0 f   AuroraSprite.obj
 0002:00047090       ?GetFrameWidth@CSprite@@QBEFH@Z 004c1090 f   AuroraSprite.obj
 0002:00047180       ?GetFrameHeight@CSprite@@QBEFH@Z 004c1180 f   AuroraSprite.obj
 0002:00047280       ?GetAFrameRect@CSprite@@QBEXHHAAH000@Z 004c1280 f   AuroraSprite.obj
 0002:00047430       ?DrawModule@CSprite@@QBEXAAVCLib2D@@HHHHHHH@Z 004c1430 f   AuroraSprite.obj
 0002:000474c0       ?DrawModule@CSprite@@QBEXAAVCLib2D@@HHPAVCModule@@HHHH@Z 004c14c0 f   AuroraSprite.obj
 0002:000482e0       ?GetClipX@CLib2D@@QBEFXZ   004c22e0 f i AuroraSprite.obj
 0002:00048320       ?GetClipY@CLib2D@@QBEFXZ   004c2320 f i AuroraSprite.obj
 0002:00048360       ?GetClipWidth@CLib2D@@QBEFXZ 004c2360 f i AuroraSprite.obj
 0002:000483a0       ?GetClipHeight@CLib2D@@QBEFXZ 004c23a0 f i AuroraSprite.obj
 0002:000483e0       ?SetClip@CLib2D@@QAEXFFFF@Z 004c23e0 f i AuroraSprite.obj
 0002:00048450       ?GetDestWidth@CLib2D@@QBEGXZ 004c2450 f i AuroraSprite.obj
 0002:00048490       ?GetDestHeight@CLib2D@@QBEGXZ 004c2490 f i AuroraSprite.obj
 0002:000484d0       ?FormatStringWithLimitedWidth@CSprite@@QAEHPBGPAGH_N2@Z 004c24d0 f   AuroraSprite.obj
 0002:00048870       ?GetStringWidthLimited@CSprite@@QAEHPBGH_N@Z 004c2870 f   AuroraSprite.obj
 0002:00048940       ?GetStringHeightLimited@CSprite@@QAEHPBGH_N@Z 004c2940 f   AuroraSprite.obj
 0002:00048a10       ?DrawStringWithLimitedWidth@CSprite@@QAEHAAVCLib2D@@HHPBGH_NW4Align@1@2@Z 004c2a10 f   AuroraSprite.obj
 0002:00048b10       ?DrawStringWithLimitedWidthByAdjustingCharSpacing@CSprite@@QAEXAAVCLib2D@@HHPBGHW4Align@1@@Z 004c2b10 f   AuroraSprite.obj
 0002:00048be0       ?GetCharSpacing@CSprite@@QBEFXZ 004c2be0 f i AuroraSprite.obj
 0002:00048c20       ?SetCharSpacing@CSprite@@QAEXF@Z 004c2c20 f i AuroraSprite.obj
 0002:00048c70       ?DrawString@CSprite@@QAEXAAVCLib2D@@HHPBGW4Align@1@@Z 004c2c70 f   AuroraSprite.obj
 0002:00048e30       ?GetFontHeight@CSprite@@QBEFXZ 004c2e30 f i AuroraSprite.obj
 0002:00048e90       ?DrawString@CSprite@@QAEXAAVCLib2D@@HHPBG1W4Align@1@@Z 004c2e90 f   AuroraSprite.obj
 0002:00049120       ?DrawNumber@CSprite@@QAEXAAVCLib2D@@HHHW4Align@1@@Z 004c3120 f   AuroraSprite.obj
 0002:00049340       ?DrawNumberString@CSprite@@QAEXAAVCLib2D@@HHPBGW4Align@1@@Z 004c3340 f   AuroraSprite.obj
 0002:00049440       ?DrawNumberString@CSprite@@QAEXAAVCLib2D@@HHPBG1W4Align@1@@Z 004c3440 f   AuroraSprite.obj
 0002:000496c0       ?GetNumberModuleByChar@CSprite@@IBEHG@Z 004c36c0 f i AuroraSprite.obj
 0002:00049710       ?GetStringWidth@CSprite@@QAEFPBG@Z 004c3710 f   AuroraSprite.obj
 0002:00049780       ?GetStringHeight@CSprite@@QAEFPBG@Z 004c3780 f   AuroraSprite.obj
 0002:000497f0       ?GetModuleByChar@CSprite@@IBEHG@Z 004c37f0 f   AuroraSprite.obj
 0002:00049a00       ?MeasureString@CSprite@@IAEXPBG0@Z 004c3a00 f   AuroraSprite.obj
 0002:00049c30       ?GetNumberWidth@CSprite@@QAEFH@Z 004c3c30 f   AuroraSprite.obj
 0002:00049c90       ?GetNumberHeight@CSprite@@QAEFH@Z 004c3c90 f   AuroraSprite.obj
 0002:00049cf0       ?MeasureNumber@CSprite@@IAEXH@Z 004c3cf0 f   AuroraSprite.obj
 0002:00049dd0       ?GetNumberStringWidth@CSprite@@QAEFPBG@Z 004c3dd0 f   AuroraSprite.obj
 0002:00049e40       ?GetNumberStringHeight@CSprite@@QAEFPBG@Z 004c3e40 f   AuroraSprite.obj
 0002:00049eb0       ?ReplaceWidthChar@CSprite@@QAEXH@Z 004c3eb0 f   AuroraSprite.obj
 0002:00049f80       ?MeasureNumberString@CSprite@@IAEXPBG0@Z 004c3f80 f   AuroraSprite.obj
 0002:0004a1b0       ??$MixColor@FGF@CLib2D@@SAHFGF@Z 004c41b0 f i AuroraSprite.obj
 0002:0004a260       ??0DigitFont@@QAE@PBDI@Z   004c4260 f   Font.obj
 0002:0004a3d0       ??1DigitFont@@QAE@XZ       004c43d0 f   Font.obj
 0002:0004a4a0       ?LoadCharMap@DigitFont@@QAEXPBEE@Z 004c44a0 f   Font.obj
 0002:0004a580       ?draw_digit@DigitFont@@QAEXAAUImage@@EII@Z 004c4580 f   Font.obj
 0002:0004a700       ?draw_digit_shine@DigitFont@@QAEXAAUImage@@EIIHHH@Z 004c4700 f   Font.obj
 0002:0004a870       ?draw_digit_additive@DigitFont@@QAEXAAUImage@@EII@Z 004c4870 f   Font.obj
 0002:0004a9e0       ?draw_digit_mix@DigitFont@@QAEXAAUImage@@EIIH@Z 004c49e0 f   Font.obj
 0002:0004ab70       ?draw_number@DigitFont@@QAEXAAUImage@@III_NHI@Z 004c4b70 f   Font.obj
 0002:0004ad60       ?width@DigitFont@@QAEIXZ   004c4d60 f i Font.obj
 0002:0004ada0       ?draw_time@DigitFont@@QAEXAAUImage@@HIIH@Z 004c4da0 f   Font.obj
 0002:0004b010       ?draw_string@DigitFont@@QAEXAAUImage@@PBDIIW4DS_FX@1@HW4DS_ALIGN@1@@Z 004c5010 f   Font.obj
 0002:0004b240       ?GetStringWidth@DigitFont@@QAEHPBD@Z 004c5240 f   Font.obj
 0002:0004b2b0       ??0CFontWrapper@@QAE@PBD@Z 004c52b0 f   FontWrapper.obj
 0002:0004b3c0       ??_GCFontWrapper@@UAEPAXI@Z 004c53c0 f i FontWrapper.obj
 0002:0004b3c0       ??_ECFontWrapper@@UAEPAXI@Z 004c53c0 f i FontWrapper.obj
 0002:0004b430       ??1CFontWrapper@@UAE@XZ    004c5430 f   FontWrapper.obj
 0002:0004b4f0       ?DrawFrame@CFontWrapper@@QBEXAAVCLib2D@@HHH@Z 004c54f0 f   FontWrapper.obj
 0002:0004b560       ?GetStringWidth@CFontWrapper@@QAEFPBG@Z 004c5560 f   FontWrapper.obj
 0002:0004b5c0       ?GetStringHeight@CFontWrapper@@QAEFPBG@Z 004c55c0 f   FontWrapper.obj
 0002:0004b620       ?GetFontHeight@CFontWrapper@@QBEFXZ 004c5620 f   FontWrapper.obj
 0002:0004b680       ?GetFontWidth@CFontWrapper@@QBEFXZ 004c5680 f   FontWrapper.obj
 0002:0004b6e0       ?GetFontWidth@CSprite@@QBEFXZ 004c56e0 f i FontWrapper.obj
 0002:0004b740       ?GetLineSpacing@CFontWrapper@@QBEFXZ 004c5740 f   FontWrapper.obj
 0002:0004b7a0       ?GetLineSpacing@CSprite@@QBEFXZ 004c57a0 f i FontWrapper.obj
 0002:0004b7e0       ?GetCharSpacing@CFontWrapper@@QBEFXZ 004c57e0 f   FontWrapper.obj
 0002:0004b840       ?SetLineSpacing@CFontWrapper@@QAEXF@Z 004c5840 f   FontWrapper.obj
 0002:0004b8a0       ?SetLineSpacing@CSprite@@QAEXF@Z 004c58a0 f i FontWrapper.obj
 0002:0004b8f0       ?SetCharSpacing@CFontWrapper@@QAEXF@Z 004c58f0 f   FontWrapper.obj
 0002:0004b960       ?GetGlobalAlpha@CFontWrapper@@QAEFXZ 004c5960 f   FontWrapper.obj
 0002:0004b9c0       ?GetGlobalAlpha@CSprite@@QAEFXZ 004c59c0 f i FontWrapper.obj
 0002:0004ba00       ?SetMapping@CFontWrapper@@QAEXPBG@Z 004c5a00 f   FontWrapper.obj
 0002:0004ba60       ?SetMapping@CSprite@@QAEXPBG@Z 004c5a60 f i FontWrapper.obj
 0002:0004bab0       ?DrawString@CFontWrapper@@QAEXAAVCLib2D@@HHPBGH@Z 004c5ab0 f   FontWrapper.obj
 0002:0004bb20       ?DrawString@CFontWrapper@@QAEXAAVCLib2D@@HHHH@Z 004c5b20 f   FontWrapper.obj
 0002:0004bc00       ?DrawString@CFontWrapper@@QAEXAAVCLib2D@@HHPBG1H@Z 004c5c00 f   FontWrapper.obj
 0002:0004bc80       ?DrawStringWithLimitedWidth@CFontWrapper@@QAEHAAVCLib2D@@HHPBGH_NH2@Z 004c5c80 f   FontWrapper.obj
 0002:0004bd00       ?GetStringWithLimitedWidthLinesNumber@CFontWrapper@@QAEHPBGH_N@Z 004c5d00 f   FontWrapper.obj
 0002:0004bdd0       ?FormatStringWithLimitedWidth@CFontWrapper@@QAEHPBGPAGH_N@Z 004c5dd0 f   FontWrapper.obj
 0002:0004be40       ?DrawStringWithLimitedWidthByAdjustingCharSpacing@CFontWrapper@@QAEXAAVCLib2D@@HHPBGHH@Z 004c5e40 f   FontWrapper.obj
 0002:0004bec0       ?SetGlobalAlpha@CFontWrapper@@QAEXF@Z 004c5ec0 f   FontWrapper.obj
 0002:0004bf20       ?SetGlobalAlpha@CSprite@@QAEXF@Z 004c5f20 f i FontWrapper.obj
 0002:0004bf70       ?SetPalette@CFontWrapper@@QAEXF@Z 004c5f70 f   FontWrapper.obj
 0002:0004bfd0       ?SetPalette@CSprite@@QAEXF@Z 004c5fd0 f i FontWrapper.obj
 0002:0004c030       ?GetPalette@CFontWrapper@@QAEFXZ 004c6030 f   FontWrapper.obj
 0002:0004c090       ?GetPalette@CSprite@@QAEFXZ 004c6090 f i FontWrapper.obj
 0002:0004c0d0       ?GetStringWidthLimited@CFontWrapper@@QAEHPBGH_N@Z 004c60d0 f   FontWrapper.obj
 0002:0004c140       ?GetStringHeightLimited@CFontWrapper@@QAEHPBGH_N@Z 004c6140 f   FontWrapper.obj
 0002:0004c1b0       ??0Image@@QAE@AAVA_IFile@@@Z 004c61b0 f   Image.obj
 0002:0004c3c0       ??0Image@@QAE@PBD@Z        004c63c0 f   Image.obj
 0002:0004c5e0       ??0Image@@QAE@ABU0@@Z      004c65e0 f   Image.obj
 0002:0004c6f0       ??4Image@@QAEAAU0@ABU0@@Z  004c66f0 f   Image.obj
 0002:0004c860       ??0Image@@QAE@XZ           004c6860 f   Image.obj
 0002:0004c8e0       ??0Image@@QAE@II@Z         004c68e0 f   Image.obj
 0002:0004c9c0       ??0Image@@QAE@IIPAGH@Z     004c69c0 f   Image.obj
 0002:0004ca70       ?getPow2Size@@YAXAAH0HH@Z  004c6a70 f   Image.obj
 0002:0004caf0       ?blit@@YAXAAUImage@@ABU1@II@Z 004c6af0 f   Image.obj
 0002:0004cc00       ??RImage@@QAEAAGII@Z       004c6c00 f i Image.obj
 0002:0004cc60       ?data@Image@@QBEPBGXZ      004c6c60 f i Image.obj
 0002:0004cca0       ?height@Image@@QBEIXZ      004c6ca0 f i Image.obj
 0002:0004cce0       ?blit_vflip@@YAXAAUImage@@ABU1@IIHH@Z 004c6ce0 f   Image.obj
 0002:0004ce70       ?blit_vflip_mix@@YAXAAUImage@@ABU1@HHHHH@Z 004c6e70 f   Image.obj
 0002:0004cf70       ?blit_hflip@@YAXAAUImage@@ABU1@II@Z 004c6f70 f   Image.obj
 0002:0004d060       ?blit_hvflip@@YAXAAUImage@@ABU1@II@Z 004c7060 f   Image.obj
 0002:0004d150       ?draw_line_clip@@YAXAAUImage@@0HHH@Z 004c7150 f   Image.obj
 0002:0004d270       ?draw_mou@@YAXAAUImage@@0HHH@Z 004c7270 f   Image.obj
 0002:0004d320       ?blit_additive@@YAXAAUImage@@ABU1@II@Z 004c7320 f   Image.obj
 0002:0004d3f0       ?blit_additive_clipped@@YAXAAUImage@@ABU1@HH@Z 004c73f0 f   Image.obj
 0002:0004d520       ?blit_hvflip_additive@@YAXAAUImage@@ABU1@II@Z 004c7520 f   Image.obj
 0002:0004d610       ?memset_@@YAXPAGGI@Z       004c7610 f   Image.obj
 0002:0004d680       ?memcpy_@@YAXPAGPBGI@Z     004c7680 f   Image.obj
 0002:0004d700       ?memcpy_faded@@YAXPAGPBGI@Z 004c7700 f   Image.obj
 0002:0004d7c0       ?memcpy_colorkey@@YAXPAGPBGI@Z 004c77c0 f   Image.obj
 0002:0004d850       ?memcpy_colorkeymix@@YAXPAGPBGIH@Z 004c7850 f   Image.obj
 0002:0004d900       ?memcpy_colorkey_reverse@@YAXPAGPBGI@Z 004c7900 f   Image.obj
 0002:0004d9a0       ?memcpy_additive@@YAXPAGPBGI@Z 004c79a0 f   Image.obj
 0002:0004dac0       ?memcpy_additive_reverse@@YAXPAGPBGI@Z 004c7ac0 f   Image.obj
 0002:0004dbf0       ?blit@@YAXAAUImage@@ABU1@IIII@Z 004c7bf0 f   Image.obj
 0002:0004dcc0       ?memcpy_vertical_additive@@YAXPAGPBGIII@Z 004c7cc0 f   Image.obj
 0002:0004dd70       ?memcpy_vertical_colorkey@@YAXPAGPBGIII@Z 004c7d70 f   Image.obj
 0002:0004de00       ?memcpy_black_colorkey@@YAXPAGPBGI@Z 004c7e00 f   Image.obj
 0002:0004de90       ?blit_vflip_black_colorkey@@YAXAAUImage@@ABU1@II@Z 004c7e90 f   Image.obj
 0002:0004df80       ?fade_color@@YAGGH@Z       004c7f80 f   Image.obj
 0002:0004e060       ?fade_buffer@@YAXAAUImage@@HI@Z 004c8060 f   Image.obj
 0002:0004e1e0       ?fade_buffer_preserve_colorkey@@YAXAAUImage@@HI@Z 004c81e0 f   Image.obj
 0002:0004e380       ?fade_image@@YAXAAUImage@@HI@Z 004c8380 f   Image.obj
 0002:0004e520       ?fade_image_preserve_colorkey@@YAXAAUImage@@HI@Z 004c8520 f   Image.obj
 0002:0004e6e0       ?convert_to_grayscale@@YAXAAUImage@@@Z 004c86e0 f   Image.obj
 0002:0004e810       ??$MixColor@GGH@CLib2D@@SAHGGH@Z 004c8810 f i Image.obj
 0002:0004e8c0       ??0CLib2D@@QAE@PAGGGABVCLib3D@Lib3D@@@Z 004c88c0 f   Lib2D.obj
 0002:0004ea10       ??_ECLib2D@@UAEPAXI@Z      004c8a10 f i Lib2D.obj
 0002:0004ea10       ??_GCLib2D@@UAEPAXI@Z      004c8a10 f i Lib2D.obj
 0002:0004ea80       ??1?$stack@VARect@@V?$deque@VARect@@V?$allocator@VARect@@@std@@@std@@@std@@QAE@XZ 004c8a80 f i Lib2D.obj
 0002:0004ead0       ?DarkenScreen@CLib2D@@QAEXXZ 004c8ad0 f   Lib2D.obj
 0002:0004eb80       ??1CLib2D@@UAE@XZ          004c8b80 f   Lib2D.obj
 0002:0004ec00       ?BlitBackBuffer@CLib2D@@QAEXXZ 004c8c00 f   Lib2D.obj
 0002:0004ec40       ?CopyBufferTo@CLib2D@@QBEXPAG@Z 004c8c40 f   Lib2D.obj
 0002:0004ec80       ?SetDestPtr@CLib2D@@QAEXPAGGG@Z 004c8c80 f   Lib2D.obj
 0002:0004ed50       ??0ARect@@QAE@HHHH@Z       004c8d50 f i Lib2D.obj
 0002:0004edc0       ?Set@ARect@@QAEXHHHH@Z     004c8dc0 f i Lib2D.obj
 0002:0004ee40       ?Recalc@ARect@@QAEXXZ      004c8e40 f i Lib2D.obj
 0002:0004eea0       ?DrawPixel@CLib2D@@QBEXHHF@Z 004c8ea0 f   Lib2D.obj
 0002:0004ef60       ?DrawLine@CLib2D@@QBEXHHHHF@Z 004c8f60 f   Lib2D.obj
 0002:0004f230       ?GetClippingRect@CLib2D@@QBEABVARect@@XZ 004c9230 f i Lib2D.obj
 0002:0004f290       ?DrawAlphaColorLine@CLib2D@@QBEXHHHHF@Z 004c9290 f   Lib2D.obj
 0002:0004f640       ?DrawDotLine@CLib2D@@QBEXHHHHEF@Z 004c9640 f   Lib2D.obj
 0002:0004f9c0       ?DrawRect@CLib2D@@QBEXHHHHGG@Z 004c99c0 f   Lib2D.obj
 0002:0004fd80       ?DrawAlphaRect@CLib2D@@QBEXHHHHFH@Z 004c9d80 f   Lib2D.obj
 0002:0004fe30       ?DrawAlphaColorRect@CLib2D@@QBEXHHHHFF@Z 004c9e30 f   Lib2D.obj
 0002:0004ff30       ?DrawString@CLib2D@@QBEXHHPBGGFF@Z 004c9f30 f   Lib2D.obj
 0002:0004ff70       ?DrawArc@CLib2D@@QBEXHHHHHFF@Z 004c9f70 f   Lib2D.obj
 0002:00050150       ?DrawRoundRect@CLib2D@@QBEXHHHHHFF@Z 004ca150 f   Lib2D.obj
 0002:000506c0       ?DrawRoundRect@CLib2D@@QBEXHHHHHHFF@Z 004ca6c0 f   Lib2D.obj
 0002:00050ca0       ?DrawArrow@CLib2D@@QBEXHHHHHF@Z 004caca0 f   Lib2D.obj
 0002:00050ee0       ?DrawRectTriangle@CLib2D@@QBEXHHHHHF@Z 004caee0 f   Lib2D.obj
 0002:000510a0       ?DrawHTriangle@CLib2D@@QBEXHHHHHFF@Z 004cb0a0 f   Lib2D.obj
 0002:00051420       ?Clear@CLib2D@@QAEXXZ      004cb420 f   Lib2D.obj
 0002:000514a0       ?setColor@CLib2D@@QAEXI@Z  004cb4a0 f   Lib2D.obj
 0002:00051500       ?setColor@Lib3DGL@@QAEXI@Z 004cb500 f i Lib2D.obj
 0002:00051550       ??0?$stack@VARect@@V?$deque@VARect@@V?$allocator@VARect@@@std@@@std@@@std@@QAE@XZ 004cb550 f i Lib2D.obj
 0002:000515b0       ?empty@?$stack@VARect@@V?$deque@VARect@@V?$allocator@VARect@@@std@@@std@@@std@@QBE_NXZ 004cb5b0 f i Lib2D.obj
 0002:00051600       ?top@?$stack@VARect@@V?$deque@VARect@@V?$allocator@VARect@@@std@@@std@@@std@@QBEABVARect@@XZ 004cb600 f i Lib2D.obj
 0002:00051650       ?push@?$stack@VARect@@V?$deque@VARect@@V?$allocator@VARect@@@std@@@std@@@std@@QAEXABVARect@@@Z 004cb650 f i Lib2D.obj
 0002:000516b0       ?pop@?$stack@VARect@@V?$deque@VARect@@V?$allocator@VARect@@@std@@@std@@@std@@QAEXXZ 004cb6b0 f i Lib2D.obj
 0002:00051700       ??1?$deque@VARect@@V?$allocator@VARect@@@std@@@std@@QAE@XZ 004cb700 f i Lib2D.obj
 0002:000517a0       ??1?$_Deque_val@VARect@@V?$allocator@VARect@@@std@@@std@@QAE@XZ 004cb7a0 f i Lib2D.obj
 0002:000517f0       ??1?$_Deque_map@VARect@@V?$allocator@VARect@@@std@@@std@@QAE@XZ 004cb7f0 f i Lib2D.obj
 0002:00051840       ??0?$deque@VARect@@V?$allocator@VARect@@@std@@@std@@QAE@XZ 004cb840 f i Lib2D.obj
 0002:000518e0       ?empty@?$deque@VARect@@V?$allocator@VARect@@@std@@@std@@QBE_NXZ 004cb8e0 f i Lib2D.obj
 0002:00051930       ?back@?$deque@VARect@@V?$allocator@VARect@@@std@@@std@@QBEABVARect@@XZ 004cb930 f i Lib2D.obj
 0002:00051a60       ?push_back@?$deque@VARect@@V?$allocator@VARect@@@std@@@std@@QAEXABVARect@@@Z 004cba60 f i Lib2D.obj
 0002:00051bb0       ?pop_back@?$deque@VARect@@V?$allocator@VARect@@@std@@@std@@QAEXXZ 004cbbb0 f i Lib2D.obj
 0002:00051cf0       ?_Tidy@?$deque@VARect@@V?$allocator@VARect@@@std@@@std@@IAEXXZ 004cbcf0 f i Lib2D.obj
 0002:00051e10       ??1?$_Container_base_aux_alloc_empty@V?$allocator@VARect@@@std@@@std@@IAE@XZ 004cbe10 f i Lib2D.obj
 0002:00051e60       ??1?$_Deque_const_iterator@VARect@@V?$allocator@VARect@@@std@@$00@std@@QAE@XZ 004cbe60 f i Lib2D.obj
 0002:00051eb0       ??1?$_Ranit@VARect@@HPBV1@ABV1@@std@@QAE@XZ 004cbeb0 f i Lib2D.obj
 0002:00051f00       ??1?$_Iterator_with_base@Urandom_access_iterator_tag@std@@VARect@@HPBV3@ABV3@V_Iterator_base@2@@std@@QAE@XZ 004cbf00 f i Lib2D.obj
 0002:00051f50       ?end@?$deque@VARect@@V?$allocator@VARect@@@std@@@std@@QBE?AV?$_Deque_const_iterator@VARect@@V?$allocator@VARect@@@std@@$00@2@XZ 004cbf50 f i Lib2D.obj
 0002:00051fe0       ?_Growmap@?$deque@VARect@@V?$allocator@VARect@@@std@@@std@@IAEXI@Z 004cbfe0 f i Lib2D.obj
 0002:000522d0       ?_Orphan_off@?$deque@VARect@@V?$allocator@VARect@@@std@@@std@@IBEXI@Z 004cc2d0 f i Lib2D.obj
 0002:00052450       ??0?$_Deque_val@VARect@@V?$allocator@VARect@@@std@@@std@@IAE@V?$allocator@VARect@@@1@@Z 004cc450 f i Lib2D.obj
 0002:000524d0       ??0?$allocator@VARect@@@std@@QAE@XZ 004cc4d0 f i Lib2D.obj
 0002:00052510       ?deallocate@?$allocator@VARect@@@std@@QAEXPAVARect@@I@Z 004cc510 f i Lib2D.obj
 0002:00052570       ?allocate@?$allocator@VARect@@@std@@QAEPAVARect@@I@Z 004cc570 f i Lib2D.obj
 0002:000525d0       ?construct@?$allocator@VARect@@@std@@QAEXPAVARect@@ABV3@@Z 004cc5d0 f i Lib2D.obj
 0002:00052630       ?destroy@?$allocator@VARect@@@std@@QAEXPAVARect@@@Z 004cc630 f i Lib2D.obj
 0002:00052690       ?deallocate@?$allocator@PAVARect@@@std@@QAEXPAPAVARect@@I@Z 004cc690 f i Lib2D.obj
 0002:000526f0       ?destroy@?$allocator@PAVARect@@@std@@QAEXPAPAVARect@@@Z 004cc6f0 f i Lib2D.obj
 0002:00052750       ??D?$_Deque_const_iterator@VARect@@V?$allocator@VARect@@@std@@$00@std@@QBEABVARect@@XZ 004cc750 f i Lib2D.obj
 0002:000528a0       ??G?$_Deque_const_iterator@VARect@@V?$allocator@VARect@@@std@@$00@std@@QBE?AV01@H@Z 004cc8a0 f i Lib2D.obj
 0002:000529c0       ?max_size@?$deque@VARect@@V?$allocator@VARect@@@std@@@std@@QBEIXZ 004cc9c0 f i Lib2D.obj
 0002:00052a20       ?_Xlen@?$deque@VARect@@V?$allocator@VARect@@@std@@@std@@KAXXZ 004cca20 f i Lib2D.obj
 0002:00052b00       ??0?$_Deque_map@VARect@@V?$allocator@VARect@@@std@@@std@@IAE@V?$allocator@VARect@@@1@@Z 004ccb00 f i Lib2D.obj
 0002:00052b80       ??0?$allocator@VARect@@@std@@QAE@ABV01@@Z 004ccb80 f i Lib2D.obj
 0002:00052bc0       ?allocate@?$allocator@PAVARect@@@std@@QAEPAPAVARect@@I@Z 004ccbc0 f i Lib2D.obj
 0002:00052c20       ??0?$_Deque_const_iterator@VARect@@V?$allocator@VARect@@@std@@$00@std@@QAE@ABV01@@Z 004ccc20 f i Lib2D.obj
 0002:00052ce0       ??0?$_Deque_const_iterator@VARect@@V?$allocator@VARect@@@std@@$00@std@@QAE@IPBV_Container_base_secure@1@@Z 004ccce0 f i Lib2D.obj
 0002:00052e20       ??Z?$_Deque_const_iterator@VARect@@V?$allocator@VARect@@@std@@$00@std@@QAEAAV01@H@Z 004cce20 f i Lib2D.obj
 0002:00052e80       ??0?$_Ranit@VARect@@HPBV1@ABV1@@std@@QAE@XZ 004cce80 f i Lib2D.obj
 0002:00052ee0       ??0?$_Iterator_with_base@Urandom_access_iterator_tag@std@@VARect@@HPBV3@ABV3@V_Iterator_base@2@@std@@QAE@XZ 004ccee0 f i Lib2D.obj
 0002:00052f40       ??0?$_Container_base_aux_alloc_empty@V?$allocator@VARect@@@std@@@std@@IAE@V?$allocator@VARect@@@1@@Z 004ccf40 f i Lib2D.obj
 0002:00052fa0       ?max_size@?$allocator@VARect@@@std@@QBEIXZ 004ccfa0 f i Lib2D.obj
 0002:00053010       ??Y?$_Deque_const_iterator@VARect@@V?$allocator@VARect@@@std@@$00@std@@QAEAAV01@H@Z 004cd010 f i Lib2D.obj
 0002:000531a0       ??$FastColorMix50_50@GH@CLib2D@@SAHGH@Z 004cd1a0 f i Lib2D.obj
 0002:00053200       ??$MixColor@HHH@CLib2D@@SAHHHH@Z 004cd200 f i Lib2D.obj
 0002:000532b0       ??$MixColor@FGH@CLib2D@@SAHFGH@Z 004cd2b0 f i Lib2D.obj
 0002:00053360       ??$unchecked_uninitialized_copy@PAPAVARect@@PAPAV1@V?$allocator@PAVARect@@@std@@@stdext@@YAPAPAVARect@@PAPAV1@00AAV?$allocator@PAVARect@@@std@@@Z 004cd360 f i Lib2D.obj
 0002:00053410       ??$unchecked_uninitialized_fill_n@PAPAVARect@@IPAV1@V?$allocator@PAVARect@@@std@@@stdext@@YAXPAPAVARect@@IABQAV1@AAV?$allocator@PAVARect@@@std@@@Z 004cd410 f i Lib2D.obj
 0002:000534b0       ??$_Destroy_range@V?$allocator@PAVARect@@@std@@@std@@YAXPAPAVARect@@0AAV?$allocator@PAVARect@@@0@@Z 004cd4b0 f i Lib2D.obj
 0002:00053530       ??$_Allocate@VARect@@@std@@YAPAVARect@@IPAV1@@Z 004cd530 f i Lib2D.obj
 0002:000535d0       ??$_Construct@VARect@@V1@@std@@YAXPAVARect@@ABV1@@Z 004cd5d0 f i Lib2D.obj
 0002:00053690       ??$_Destroy@VARect@@@std@@YAXPAVARect@@@Z 004cd690 f i Lib2D.obj
 0002:000536c0       ??$_Destroy@PAVARect@@@std@@YAXPAPAVARect@@@Z 004cd6c0 f i Lib2D.obj
 0002:000536f0       ??$?0VARect@@@?$allocator@PAVARect@@@std@@QAE@ABV?$allocator@VARect@@@1@@Z 004cd6f0 f i Lib2D.obj
 0002:00053730       ??$_Allocate@PAVARect@@@std@@YAPAPAVARect@@IPAPAV1@@Z 004cd730 f i Lib2D.obj
 0002:000537d0       ??$_Checked_base@PAPAVARect@@@std@@YAPAPAVARect@@AAPAPAV1@@Z 004cd7d0 f i Lib2D.obj
 0002:00053860       ??$_Ptr_cat@PAPAVARect@@PAPAV1@@std@@YA?AU_Scalar_ptr_iterator_tag@0@AAPAPAVARect@@0@Z 004cd860 f i Lib2D.obj
 0002:000538d0       ??$_Uninit_copy@PAPAVARect@@PAPAV1@V?$allocator@PAVARect@@@std@@@std@@YAPAPAVARect@@PAPAV1@00AAV?$allocator@PAVARect@@@0@U_Scalar_ptr_iterator_tag@0@U_Range_checked_iterator_tag@0@@Z 004cd8d0 f i Lib2D.obj
 0002:000539a0       ??$_Uninit_fill_n@PAPAVARect@@IPAV1@V?$allocator@PAVARect@@@std@@@std@@YAXPAPAVARect@@IABQAV1@AAV?$allocator@PAVARect@@@0@U_Scalar_ptr_iterator_tag@0@U_Range_checked_iterator_tag@0@@Z 004cd9a0 f i Lib2D.obj
 0002:00053a00       ??$_Destroy_range@V?$allocator@PAVARect@@@std@@@std@@YAXPAPAVARect@@0AAV?$allocator@PAVARect@@@0@U_Scalar_ptr_iterator_tag@0@@Z 004cda00 f i Lib2D.obj
 0002:00053a30       ??$_Checked_base@PAPAVARect@@@std@@YAPAPAVARect@@AAPAPAV1@U_Unchanged_checked_iterator_base_type_tag@0@@Z 004cda30 f i Lib2D.obj
 0002:00053a70       ??$_Debug_range@PAPAVARect@@@std@@YAXPAPAVARect@@0PB_WI@Z 004cda70 f i Lib2D.obj
 0002:00053af0       ??$_Debug_pointer@PAVARect@@@std@@YAXPAPAVARect@@PB_WI@Z 004cdaf0 f i Lib2D.obj
 0002:00053b50       ??$unchecked_fill_n@PAPAVARect@@IPAV1@@stdext@@YAXPAPAVARect@@IABQAV1@@Z 004cdb50 f i Lib2D.obj
 0002:00053be0       ??$_Iter_cat@PAPAVARect@@@std@@YA?AUrandom_access_iterator_tag@0@ABQAPAVARect@@@Z 004cdbe0 f i Lib2D.obj
 0002:00053c50       ??$_Debug_range2@PAPAVARect@@@std@@YAXPAPAVARect@@0PB_WIUrandom_access_iterator_tag@0@@Z 004cdc50 f i Lib2D.obj
 0002:00053cf0       ??$_Fill_n@PAPAVARect@@IPAV1@@std@@YAXPAPAVARect@@IABQAV1@Urandom_access_iterator_tag@0@U_Range_checked_iterator_tag@0@@Z 004cdcf0 f i Lib2D.obj
 0002:00053d80       ??$_Fill_n@PAPAVARect@@IPAV1@@std@@YAXPAPAVARect@@IABQAV1@U_Range_checked_iterator_tag@0@@Z 004cdd80 f i Lib2D.obj
 0002:00053de0       ??0CActor@@QAE@PAVCHighGear@@@Z 004cdde0 f   Actor.obj
 0002:00053e40       ??1CActor@@QAE@XZ          004cde40 f   Actor.obj
 0002:00053e80       ?init@CActor@@QAEXHPAVCSprite@@HH@Z 004cde80 f   Actor.obj
 0002:00054020       ?notifyState@CActor@@QAEXHH@Z 004ce020 f   Actor.obj
 0002:00054230       ?update@CActor@@QAEXXZ     004ce230 f   Actor.obj
 0002:00054ad0       ?setAnim@CActor@@AAEXH_N@Z 004cead0 f   Actor.obj
 0002:00054b40       ?updateSprite@CActor@@AAEXXZ 004ceb40 f   Actor.obj
 0002:00054c50       ?draw@CActor@@QAEXVCLib2D@@@Z 004cec50 f   Actor.obj
 0002:00054e80       ?move@CActor@@QAEXH@Z      004cee80 f   Actor.obj
 0002:00054f10       ?isEnemy@CActor@@QAE_NXZ   004cef10 f   Actor.obj
 0002:00054f80       ?canFire@CActor@@QAE_NXZ   004cef80 f   Actor.obj
 0002:00054fd0       ??0CArchivedFileManager@@QAE@XZ 004cefd0 f   ArchivedFileManager.obj
 0002:00055120       ??_ECArchivedFileManager@@UAEPAXI@Z 004cf120 f i ArchivedFileManager.obj
 0002:00055120       ??_GCArchivedFileManager@@UAEPAXI@Z 004cf120 f i ArchivedFileManager.obj
 0002:00055190       ??0ArchiveData@CArchivedFileManager@@QAE@XZ 004cf190 f i ArchivedFileManager.obj
 0002:000551f0       ??1ArchiveData@CArchivedFileManager@@QAE@XZ 004cf1f0 f i ArchivedFileManager.obj
 0002:00055250       ??1?$map@PADUSFileProperties@CArchivedFileManager@@Ultstr@2@V?$allocator@U?$pair@QADUSFileProperties@CArchivedFileManager@@@std@@@std@@@std@@QAE@XZ 004cf250 f i ArchivedFileManager.obj
 0002:000552a0       ?CreateAllFileMappingTable@CArchivedFileManager@@QAEXXZ 004cf2a0 f   ArchivedFileManager.obj
 0002:00055330       ?OpenCurrentArchive@CArchivedFileManager@@QAEPAUArchiveData@1@XZ 004cf330 f   ArchivedFileManager.obj
 0002:00055410       ?CloseArchive@CArchivedFileManager@@QAEXPAUArchiveData@1@@Z 004cf410 f   ArchivedFileManager.obj
 0002:00055490       ?CloseAllArchives@CArchivedFileManager@@QAEXXZ 004cf490 f   ArchivedFileManager.obj
 0002:00055510       ??1CArchivedFileManager@@UAE@XZ 004cf510 f   ArchivedFileManager.obj
 0002:00055650       ?CreateFileMappingTable@CArchivedFileManager@@QAEXH@Z 004cf650 f   ArchivedFileManager.obj
 0002:00055a10       ?RetrieveFileOffset@CArchivedFileManager@@AAEIPADHPA_N@Z 004cfa10 f   ArchivedFileManager.obj
 0002:00055ae0       ?GetFileIndex@CArchivedFileManager@@QAEKPBD@Z 004cfae0 f   ArchivedFileManager.obj
 0002:00055d80       ??1iterator@?$_Tree@V?$_Tmap_traits@PADUSFileProperties@CArchivedFileManager@@Ultstr@2@V?$allocator@U?$pair@QADUSFileProperties@CArchivedFileManager@@@std@@@std@@$0A@@std@@@std@@QAE@XZ 004cfd80 f i ArchivedFileManager.obj
 0002:00055dd0       ??1const_iterator@?$_Tree@V?$_Tmap_traits@PADUSFileProperties@CArchivedFileManager@@Ultstr@2@V?$allocator@U?$pair@QADUSFileProperties@CArchivedFileManager@@@std@@@std@@$0A@@std@@@std@@QAE@XZ 004cfdd0 f i ArchivedFileManager.obj
 0002:00055e20       ??1?$_Bidit@U?$pair@QADUSFileProperties@CArchivedFileManager@@@std@@HPBU12@ABU12@@std@@QAE@XZ 004cfe20 f i ArchivedFileManager.obj
 0002:00055e70       ??1?$_Iterator_with_base@Ubidirectional_iterator_tag@std@@U?$pair@QADUSFileProperties@CArchivedFileManager@@@2@HPBU32@ABU32@V_Iterator_base@2@@std@@QAE@XZ 004cfe70 f i ArchivedFileManager.obj
 0002:00055ec0       ?GetFileSize@CArchivedFileManager@@QAEKPBD@Z 004cfec0 f   ArchivedFileManager.obj
 0002:00056160       ?GetFileCompression@CArchivedFileManager@@QAE_NPBD@Z 004d0160 f   ArchivedFileManager.obj
 0002:00056400       ?StringToLower@CArchivedFileManager@@AAEXPAD@Z 004d0400 f   ArchivedFileManager.obj
 0002:000564a0       ??0?$CSingleton@$01VCArchivedFileManager@@@@QAE@XZ 004d04a0 f i ArchivedFileManager.obj
 0002:00056500       ??1?$CSingleton@$01VCArchivedFileManager@@@@UAE@XZ 004d0500 f i ArchivedFileManager.obj
 0002:00056560       ??1?$CSingletonNoAutoConstruct@$01VCArchivedFileManager@@@@UAE@XZ 004d0560 f i ArchivedFileManager.obj
 0002:000565c0       ??1ISingleton@@UAE@XZ      004d05c0 f i ArchivedFileManager.obj
 0002:00056600       ??_GISingleton@@UAEPAXI@Z  004d0600 f i ArchivedFileManager.obj
 0002:00056600       ??_EISingleton@@UAEPAXI@Z  004d0600 f i ArchivedFileManager.obj
 0002:00056670       ??0?$map@PADUSFileProperties@CArchivedFileManager@@Ultstr@2@V?$allocator@U?$pair@QADUSFileProperties@CArchivedFileManager@@@std@@@std@@@std@@QAE@XZ 004d0670 f i ArchivedFileManager.obj
 0002:000566f0       ??A?$map@PADUSFileProperties@CArchivedFileManager@@Ultstr@2@V?$allocator@U?$pair@QADUSFileProperties@CArchivedFileManager@@@std@@@std@@@std@@QAEAAUSFileProperties@CArchivedFileManager@@ABQAD@Z 004d06f0 f i ArchivedFileManager.obj
 0002:000569b0       ??Rltstr@CArchivedFileManager@@QBE_NPBD0@Z 004d09b0 f i ArchivedFileManager.obj
 0002:00056a20       ??1?$_Tree@V?$_Tmap_traits@PADUSFileProperties@CArchivedFileManager@@Ultstr@2@V?$allocator@U?$pair@QADUSFileProperties@CArchivedFileManager@@@std@@@std@@$0A@@std@@@std@@QAE@XZ 004d0a20 f i ArchivedFileManager.obj
 0002:00056ac0       ?end@?$_Tree@V?$_Tmap_traits@PADUSFileProperties@CArchivedFileManager@@Ultstr@2@V?$allocator@U?$pair@QADUSFileProperties@CArchivedFileManager@@@std@@@std@@$0A@@std@@@std@@QAE?AViterator@12@XZ 004d0ac0 f i ArchivedFileManager.obj
 0002:00056b50       ?find@?$_Tree@V?$_Tmap_traits@PADUSFileProperties@CArchivedFileManager@@Ultstr@2@V?$allocator@U?$pair@QADUSFileProperties@CArchivedFileManager@@@std@@@std@@$0A@@std@@@std@@QAE?AViterator@12@ABQAD@Z 004d0b50 f i ArchivedFileManager.obj
 0002:00056de0       ??Citerator@?$_Tree@V?$_Tmap_traits@PADUSFileProperties@CArchivedFileManager@@Ultstr@2@V?$allocator@U?$pair@QADUSFileProperties@CArchivedFileManager@@@std@@@std@@$0A@@std@@@std@@QBEPAU?$pair@QADUSFileProperties@CArchivedFileManager@@@2@XZ 004d0de0 f i ArchivedFileManager.obj
 0002:00056e30       ??9const_iterator@?$_Tree@V?$_Tmap_traits@PADUSFileProperties@CArchivedFileManager@@Ultstr@2@V?$allocator@U?$pair@QADUSFileProperties@CArchivedFileManager@@@std@@@std@@$0A@@std@@@std@@QBE_NABV012@@Z 004d0e30 f i ArchivedFileManager.obj
 0002:00056ea0       ??_E?$CSingleton@$01VCArchivedFileManager@@@@UAEPAXI@Z 004d0ea0 f i ArchivedFileManager.obj
 0002:00056ea0       ??_G?$CSingleton@$01VCArchivedFileManager@@@@UAEPAXI@Z 004d0ea0 f i ArchivedFileManager.obj
 0002:00056f10       ??_E?$CSingletonNoAutoConstruct@$01VCArchivedFileManager@@@@UAEPAXI@Z 004d0f10 f i ArchivedFileManager.obj
 0002:00056f10       ??_G?$CSingletonNoAutoConstruct@$01VCArchivedFileManager@@@@UAEPAXI@Z 004d0f10 f i ArchivedFileManager.obj
 0002:00056f80       ??0const_iterator@?$_Tree@V?$_Tmap_traits@PADUSFileProperties@CArchivedFileManager@@Ultstr@2@V?$allocator@U?$pair@QADUSFileProperties@CArchivedFileManager@@@std@@@std@@$0A@@std@@@std@@QAE@ABV012@@Z 004d0f80 f i ArchivedFileManager.obj
 0002:00056ff0       ??4iterator@?$_Tree@V?$_Tmap_traits@PADUSFileProperties@CArchivedFileManager@@Ultstr@2@V?$allocator@U?$pair@QADUSFileProperties@CArchivedFileManager@@@std@@@std@@$0A@@std@@@std@@QAEAAV012@ABV012@@Z 004d0ff0 f i ArchivedFileManager.obj
 0002:00057050       ??1?$_Tree_val@V?$_Tmap_traits@PADUSFileProperties@CArchivedFileManager@@Ultstr@2@V?$allocator@U?$pair@QADUSFileProperties@CArchivedFileManager@@@std@@@std@@$0A@@std@@@std@@QAE@XZ 004d1050 f i ArchivedFileManager.obj
 0002:000570a0       ??0iterator@?$_Tree@V?$_Tmap_traits@PADUSFileProperties@CArchivedFileManager@@Ultstr@2@V?$allocator@U?$pair@QADUSFileProperties@CArchivedFileManager@@@std@@@std@@$0A@@std@@@std@@QAE@ABV012@@Z 004d10a0 f i ArchivedFileManager.obj
 0002:00057100       ??0?$_Bidit@U?$pair@QADUSFileProperties@CArchivedFileManager@@@std@@HPBU12@ABU12@@std@@QAE@ABU01@@Z 004d1100 f i ArchivedFileManager.obj
 0002:00057160       ??4const_iterator@?$_Tree@V?$_Tmap_traits@PADUSFileProperties@CArchivedFileManager@@Ultstr@2@V?$allocator@U?$pair@QADUSFileProperties@CArchivedFileManager@@@std@@@std@@$0A@@std@@@std@@QAEAAV012@ABV012@@Z 004d1160 f i ArchivedFileManager.obj
 0002:000571d0       ??1?$_Tree_ptr@V?$_Tmap_traits@PADUSFileProperties@CArchivedFileManager@@Ultstr@2@V?$allocator@U?$pair@QADUSFileProperties@CArchivedFileManager@@@std@@@std@@$0A@@std@@@std@@QAE@XZ 004d11d0 f i ArchivedFileManager.obj
 0002:00057220       ??0?$_Iterator_with_base@Ubidirectional_iterator_tag@std@@U?$pair@QADUSFileProperties@CArchivedFileManager@@@2@HPBU32@ABU32@V_Iterator_base@2@@std@@QAE@ABU01@@Z 004d1220 f i ArchivedFileManager.obj
 0002:00057280       ??4?$_Bidit@U?$pair@QADUSFileProperties@CArchivedFileManager@@@std@@HPBU12@ABU12@@std@@QAEAAU01@ABU01@@Z 004d1280 f i ArchivedFileManager.obj
 0002:000572e0       ??1?$_Tree_nod@V?$_Tmap_traits@PADUSFileProperties@CArchivedFileManager@@Ultstr@2@V?$allocator@U?$pair@QADUSFileProperties@CArchivedFileManager@@@std@@@std@@$0A@@std@@@std@@QAE@XZ 004d12e0 f i ArchivedFileManager.obj
 0002:00057330       ??4?$_Iterator_with_base@Ubidirectional_iterator_tag@std@@U?$pair@QADUSFileProperties@CArchivedFileManager@@@2@HPBU32@ABU32@V_Iterator_base@2@@std@@QAEAAU01@ABU01@@Z 004d1330 f i ArchivedFileManager.obj
 0002:00057390       ??1?$_Tmap_traits@PADUSFileProperties@CArchivedFileManager@@Ultstr@2@V?$allocator@U?$pair@QADUSFileProperties@CArchivedFileManager@@@std@@@std@@$0A@@std@@QAE@XZ 004d1390 f i ArchivedFileManager.obj
 0002:000573e0       ??0?$CSingletonNoAutoConstruct@$01VCArchivedFileManager@@@@QAE@XZ 004d13e0 f i ArchivedFileManager.obj
 0002:000574a0       ?_Key@?$_Tree@V?$_Tmap_traits@PADUSFileProperties@CArchivedFileManager@@Ultstr@2@V?$allocator@U?$pair@QADUSFileProperties@CArchivedFileManager@@@std@@@std@@$0A@@std@@@std@@KAABQADPAU_Node@?$_Tree_nod@V?$_Tmap_traits@PADUSFileProperties@CArchivedFileManager@@Ultstr@2@V?$allocator@U?$pair@QADUSFileProperties@CArchivedFileManager@@@std@@@std@@$0A@@std@@@2@@Z 004d14a0 f i ArchivedFileManager.obj
 0002:00057500       ??0?$_Tree@V?$_Tmap_traits@PADUSFileProperties@CArchivedFileManager@@Ultstr@2@V?$allocator@U?$pair@QADUSFileProperties@CArchivedFileManager@@@std@@@std@@$0A@@std@@@std@@QAE@ABUltstr@CArchivedFileManager@@ABV?$allocator@U?$pair@QADUSFileProperties@CArchivedFileManager@@@std@@@1@@Z 004d1500 f i ArchivedFileManager.obj
 0002:000575c0       ?insert@?$_Tree@V?$_Tmap_traits@PADUSFileProperties@CArchivedFileManager@@Ultstr@2@V?$allocator@U?$pair@QADUSFileProperties@CArchivedFileManager@@@std@@@std@@$0A@@std@@@std@@QAE?AViterator@12@Vconst_iterator@12@ABU?$pair@QADUSFileProperties@CArchivedFileManager@@@2@@Z 004d15c0 f i ArchivedFileManager.obj
 0002:00058490       ?lower_bound@?$_Tree@V?$_Tmap_traits@PADUSFileProperties@CArchivedFileManager@@Ultstr@2@V?$allocator@U?$pair@QADUSFileProperties@CArchivedFileManager@@@std@@@std@@$0A@@std@@@std@@QAE?AViterator@12@ABQAD@Z 004d2490 f i ArchivedFileManager.obj
 0002:00058520       ?_Tidy@?$_Tree@V?$_Tmap_traits@PADUSFileProperties@CArchivedFileManager@@Ultstr@2@V?$allocator@U?$pair@QADUSFileProperties@CArchivedFileManager@@@std@@@std@@$0A@@std@@@std@@IAEXXZ 004d2520 f i ArchivedFileManager.obj
 0002:00058750       ??1?$_Container_base_aux_alloc_empty@V?$allocator@U?$pair@QADUSFileProperties@CArchivedFileManager@@@std@@@std@@@std@@IAE@XZ 004d2750 f i ArchivedFileManager.obj
 0002:000587a0       ??0?$allocator@U?$pair@QADUSFileProperties@CArchivedFileManager@@@std@@@std@@QAE@XZ 004d27a0 f i ArchivedFileManager.obj
 0002:000587e0       ??0iterator@?$_Tree@V?$_Tmap_traits@PADUSFileProperties@CArchivedFileManager@@Ultstr@2@V?$allocator@U?$pair@QADUSFileProperties@CArchivedFileManager@@@std@@@std@@$0A@@std@@@std@@QAE@PAU_Node@?$_Tree_nod@V?$_Tmap_traits@PADUSFileProperties@CArchivedFileManager@@Ultstr@2@V?$allocator@U?$pair@QADUSFileProperties@CArchivedFileManager@@@std@@@std@@$0A@@std@@@2@PBV12@@Z 004d27e0 f i ArchivedFileManager.obj
 0002:00058840       ??Diterator@?$_Tree@V?$_Tmap_traits@PADUSFileProperties@CArchivedFileManager@@Ultstr@2@V?$allocator@U?$pair@QADUSFileProperties@CArchivedFileManager@@@std@@@std@@$0A@@std@@@std@@QBEAAU?$pair@QADUSFileProperties@CArchivedFileManager@@@2@XZ 004d2840 f i ArchivedFileManager.obj
 0002:00058890       ??8const_iterator@?$_Tree@V?$_Tmap_traits@PADUSFileProperties@CArchivedFileManager@@Ultstr@2@V?$allocator@U?$pair@QADUSFileProperties@CArchivedFileManager@@@std@@@std@@$0A@@std@@@std@@QBE_NABV012@@Z 004d2890 f i ArchivedFileManager.obj
 0002:00058980       ?_Mynode@const_iterator@?$_Tree@V?$_Tmap_traits@PADUSFileProperties@CArchivedFileManager@@Ultstr@2@V?$allocator@U?$pair@QADUSFileProperties@CArchivedFileManager@@@std@@@std@@$0A@@std@@@std@@QBEPAU_Node@?$_Tree_nod@V?$_Tmap_traits@PADUSFileProperties@CArchivedFileManager@@Ultstr@2@V?$allocator@U?$pair@QADUSFileProperties@CArchivedFileManager@@@std@@@std@@$0A@@std@@@3@XZ 004d2980 f i ArchivedFileManager.obj
 0002:000589c0       ??0?$pair@QADUSFileProperties@CArchivedFileManager@@@std@@QAE@ABQADABUSFileProperties@CArchivedFileManager@@@Z 004d29c0 f i ArchivedFileManager.obj
 0002:00058a30       ??0ISingleton@@QAE@XZ      004d2a30 f i ArchivedFileManager.obj
 0002:00058a80       ??1?$pair@Viterator@?$_Tree@V?$_Tmap_traits@PADUSFileProperties@CArchivedFileManager@@Ultstr@2@V?$allocator@U?$pair@QADUSFileProperties@CArchivedFileManager@@@std@@@std@@$0A@@std@@@std@@_N@std@@QAE@XZ 004d2a80 f i ArchivedFileManager.obj
 0002:00058ad0       ?_Isnil@?$_Tree@V?$_Tmap_traits@PADUSFileProperties@CArchivedFileManager@@Ultstr@2@V?$allocator@U?$pair@QADUSFileProperties@CArchivedFileManager@@@std@@@std@@$0A@@std@@@std@@KAAADPAU_Node@?$_Tree_nod@V?$_Tmap_traits@PADUSFileProperties@CArchivedFileManager@@Ultstr@2@V?$allocator@U?$pair@QADUSFileProperties@CArchivedFileManager@@@std@@@std@@$0A@@std@@@2@@Z 004d2ad0 f i ArchivedFileManager.obj
 0002:00058b10       ?_Left@?$_Tree@V?$_Tmap_traits@PADUSFileProperties@CArchivedFileManager@@Ultstr@2@V?$allocator@U?$pair@QADUSFileProperties@CArchivedFileManager@@@std@@@std@@$0A@@std@@@std@@KAAAPAU_Node@?$_Tree_nod@V?$_Tmap_traits@PADUSFileProperties@CArchivedFileManager@@Ultstr@2@V?$allocator@U?$pair@QADUSFileProperties@CArchivedFileManager@@@std@@@std@@$0A@@std@@@2@PAU342@@Z 004d2b10 f i ArchivedFileManager.obj
 0002:00058b50       ?_Parent@?$_Tree@V?$_Tmap_traits@PADUSFileProperties@CArchivedFileManager@@Ultstr@2@V?$allocator@U?$pair@QADUSFileProperties@CArchivedFileManager@@@std@@@std@@$0A@@std@@@std@@KAAAPAU_Node@?$_Tree_nod@V?$_Tmap_traits@PADUSFileProperties@CArchivedFileManager@@Ultstr@2@V?$allocator@U?$pair@QADUSFileProperties@CArchivedFileManager@@@std@@@std@@$0A@@std@@@2@PAU342@@Z 004d2b50 f i ArchivedFileManager.obj
 0002:00058b90       ?_Right@?$_Tree@V?$_Tmap_traits@PADUSFileProperties@CArchivedFileManager@@Ultstr@2@V?$allocator@U?$pair@QADUSFileProperties@CArchivedFileManager@@@std@@@std@@$0A@@std@@@std@@KAAAPAU_Node@?$_Tree_nod@V?$_Tmap_traits@PADUSFileProperties@CArchivedFileManager@@Ultstr@2@V?$allocator@U?$pair@QADUSFileProperties@CArchivedFileManager@@@std@@@std@@$0A@@std@@@2@PAU342@@Z 004d2b90 f i ArchivedFileManager.obj
 0002:00058bd0       ?_Myval@?$_Tree@V?$_Tmap_traits@PADUSFileProperties@CArchivedFileManager@@Ultstr@2@V?$allocator@U?$pair@QADUSFileProperties@CArchivedFileManager@@@std@@@std@@$0A@@std@@@std@@KAAAU?$pair@QADUSFileProperties@CArchivedFileManager@@@2@PAU_Node@?$_Tree_nod@V?$_Tmap_traits@PADUSFileProperties@CArchivedFileManager@@Ultstr@2@V?$allocator@U?$pair@QADUSFileProperties@CArchivedFileManager@@@std@@@std@@$0A@@std@@@2@@Z 004d2bd0 f i ArchivedFileManager.obj
 0002:00058c10       ?begin@?$_Tree@V?$_Tmap_traits@PADUSFileProperties@CArchivedFileManager@@Ultstr@2@V?$allocator@U?$pair@QADUSFileProperties@CArchivedFileManager@@@std@@@std@@$0A@@std@@@std@@QAE?AViterator@12@XZ 004d2c10 f i ArchivedFileManager.obj
 0002:00058ca0       ?size@?$_Tree@V?$_Tmap_traits@PADUSFileProperties@CArchivedFileManager@@Ultstr@2@V?$allocator@U?$pair@QADUSFileProperties@CArchivedFileManager@@@std@@@std@@$0A@@std@@@std@@QBEIXZ 004d2ca0 f i ArchivedFileManager.obj
 0002:00058ce0       ?insert@?$_Tree@V?$_Tmap_traits@PADUSFileProperties@CArchivedFileManager@@Ultstr@2@V?$allocator@U?$pair@QADUSFileProperties@CArchivedFileManager@@@std@@@std@@$0A@@std@@@std@@QAE?AU?$pair@Viterator@?$_Tree@V?$_Tmap_traits@PADUSFileProperties@CArchivedFileManager@@Ultstr@2@V?$allocator@U?$pair@QADUSFileProperties@CArchivedFileManager@@@std@@@std@@$0A@@std@@@std@@_N@2@ABU?$pair@QADUSFileProperties@CArchivedFileManager@@@2@@Z 004d2ce0 f i ArchivedFileManager.obj
 0002:000591b0       ?erase@?$_Tree@V?$_Tmap_traits@PADUSFileProperties@CArchivedFileManager@@Ultstr@2@V?$allocator@U?$pair@QADUSFileProperties@CArchivedFileManager@@@std@@@std@@$0A@@std@@@std@@QAE?AViterator@12@Vconst_iterator@12@0@Z 004d31b0 f i ArchivedFileManager.obj
 0002:000594e0       ?_Init@?$_Tree@V?$_Tmap_traits@PADUSFileProperties@CArchivedFileManager@@Ultstr@2@V?$allocator@U?$pair@QADUSFileProperties@CArchivedFileManager@@@std@@@std@@$0A@@std@@@std@@IAEXXZ 004d34e0 f i ArchivedFileManager.obj
 0002:000595a0       ?_Insert@?$_Tree@V?$_Tmap_traits@PADUSFileProperties@CArchivedFileManager@@Ultstr@2@V?$allocator@U?$pair@QADUSFileProperties@CArchivedFileManager@@@std@@@std@@$0A@@std@@@std@@IAE?AViterator@12@_NPAU_Node@?$_Tree_nod@V?$_Tmap_traits@PADUSFileProperties@CArchivedFileManager@@Ultstr@2@V?$allocator@U?$pair@QADUSFileProperties@CArchivedFileManager@@@std@@@std@@$0A@@std@@@2@ABU?$pair@QADUSFileProperties@CArchivedFileManager@@@2@@Z 004d35a0 f i ArchivedFileManager.obj
 0002:00059ba0       ?_Lbound@?$_Tree@V?$_Tmap_traits@PADUSFileProperties@CArchivedFileManager@@Ultstr@2@V?$allocator@U?$pair@QADUSFileProperties@CArchivedFileManager@@@std@@@std@@$0A@@std@@@std@@IBEPAU_Node@?$_Tree_nod@V?$_Tmap_traits@PADUSFileProperties@CArchivedFileManager@@Ultstr@2@V?$allocator@U?$pair@QADUSFileProperties@CArchivedFileManager@@@std@@@std@@$0A@@std@@@2@ABQAD@Z 004d3ba0 f i ArchivedFileManager.obj
 0002:00059ca0       ?_Rmost@?$_Tree@V?$_Tmap_traits@PADUSFileProperties@CArchivedFileManager@@Ultstr@2@V?$allocator@U?$pair@QADUSFileProperties@CArchivedFileManager@@@std@@@std@@$0A@@std@@@std@@IBEAAPAU_Node@?$_Tree_nod@V?$_Tmap_traits@PADUSFileProperties@CArchivedFileManager@@Ultstr@2@V?$allocator@U?$pair@QADUSFileProperties@CArchivedFileManager@@@std@@@std@@$0A@@std@@@2@XZ 004d3ca0 f i ArchivedFileManager.obj
 0002:00059d00       ??0?$_Tree_val@V?$_Tmap_traits@PADUSFileProperties@CArchivedFileManager@@Ultstr@2@V?$allocator@U?$pair@QADUSFileProperties@CArchivedFileManager@@@std@@@std@@$0A@@std@@@std@@IAE@ABUltstr@CArchivedFileManager@@V?$allocator@U?$pair@QADUSFileProperties@CArchivedFileManager@@@std@@@1@@Z 004d3d00 f i ArchivedFileManager.obj
 0002:00059d90       ?_Kfn@?$_Tmap_traits@PADUSFileProperties@CArchivedFileManager@@Ultstr@2@V?$allocator@U?$pair@QADUSFileProperties@CArchivedFileManager@@@std@@@std@@$0A@@std@@SAABQADABU?$pair@QADUSFileProperties@CArchivedFileManager@@@2@@Z 004d3d90 f i ArchivedFileManager.obj
 0002:00059dd0       ??0?$allocator@U?$pair@QADUSFileProperties@CArchivedFileManager@@@std@@@std@@QAE@ABV01@@Z 004d3dd0 f i ArchivedFileManager.obj
 0002:00059e10       ?deallocate@?$allocator@U_Node@?$_Tree_nod@V?$_Tmap_traits@PADUSFileProperties@CArchivedFileManager@@Ultstr@2@V?$allocator@U?$pair@QADUSFileProperties@CArchivedFileManager@@@std@@@std@@$0A@@std@@@std@@@std@@QAEXPAU_Node@?$_Tree_nod@V?$_Tmap_traits@PADUSFileProperties@CArchivedFileManager@@Ultstr@2@V?$allocator@U?$pair@QADUSFileProperties@CArchivedFileManager@@@std@@@std@@$0A@@std@@@2@I@Z 004d3e10 f i ArchivedFileManager.obj
 0002:00059e70       ?destroy@?$allocator@PAU_Node@?$_Tree_nod@V?$_Tmap_traits@PADUSFileProperties@CArchivedFileManager@@Ultstr@2@V?$allocator@U?$pair@QADUSFileProperties@CArchivedFileManager@@@std@@@std@@$0A@@std@@@std@@@std@@QAEXPAPAU_Node@?$_Tree_nod@V?$_Tmap_traits@PADUSFileProperties@CArchivedFileManager@@Ultstr@2@V?$allocator@U?$pair@QADUSFileProperties@CArchivedFileManager@@@std@@@std@@$0A@@std@@@2@@Z 004d3e70 f i ArchivedFileManager.obj
 0002:00059ed0       ??0const_iterator@?$_Tree@V?$_Tmap_traits@PADUSFileProperties@CArchivedFileManager@@Ultstr@2@V?$allocator@U?$pair@QADUSFileProperties@CArchivedFileManager@@@std@@@std@@$0A@@std@@@std@@QAE@XZ 004d3ed0 f i ArchivedFileManager.obj
 0002:00059f30       ??0const_iterator@?$_Tree@V?$_Tmap_traits@PADUSFileProperties@CArchivedFileManager@@Ultstr@2@V?$allocator@U?$pair@QADUSFileProperties@CArchivedFileManager@@@std@@@std@@$0A@@std@@@std@@QAE@PAU_Node@?$_Tree_nod@V?$_Tmap_traits@PADUSFileProperties@CArchivedFileManager@@Ultstr@2@V?$allocator@U?$pair@QADUSFileProperties@CArchivedFileManager@@@std@@@std@@$0A@@std@@@2@PBV12@@Z 004d3f30 f i ArchivedFileManager.obj
 0002:00059ff0       ??Dconst_iterator@?$_Tree@V?$_Tmap_traits@PADUSFileProperties@CArchivedFileManager@@Ultstr@2@V?$allocator@U?$pair@QADUSFileProperties@CArchivedFileManager@@@std@@@std@@$0A@@std@@@std@@QBEABU?$pair@QADUSFileProperties@CArchivedFileManager@@@2@XZ 004d3ff0 f i ArchivedFileManager.obj
 0002:0005a0f0       ??Econst_iterator@?$_Tree@V?$_Tmap_traits@PADUSFileProperties@CArchivedFileManager@@Ultstr@2@V?$allocator@U?$pair@QADUSFileProperties@CArchivedFileManager@@@std@@@std@@$0A@@std@@@std@@QAEAAV012@XZ 004d40f0 f i ArchivedFileManager.obj
 0002:0005a150       ??Fconst_iterator@?$_Tree@V?$_Tmap_traits@PADUSFileProperties@CArchivedFileManager@@Ultstr@2@V?$allocator@U?$pair@QADUSFileProperties@CArchivedFileManager@@@std@@@std@@$0A@@std@@@std@@QAEAAV012@XZ 004d4150 f i ArchivedFileManager.obj
 0002:0005a1b0       ??0?$_Bidit@U?$pair@QADUSFileProperties@CArchivedFileManager@@@std@@HPBU12@ABU12@@std@@QAE@XZ 004d41b0 f i ArchivedFileManager.obj
 0002:0005a210       ??0?$_Iterator_with_base@Ubidirectional_iterator_tag@std@@U?$pair@QADUSFileProperties@CArchivedFileManager@@@2@HPBU32@ABU32@V_Iterator_base@2@@std@@QAE@XZ 004d4210 f i ArchivedFileManager.obj
 0002:0005a270       ?_Color@?$_Tree@V?$_Tmap_traits@PADUSFileProperties@CArchivedFileManager@@Ultstr@2@V?$allocator@U?$pair@QADUSFileProperties@CArchivedFileManager@@@std@@@std@@$0A@@std@@@std@@KAAADPAU_Node@?$_Tree_nod@V?$_Tmap_traits@PADUSFileProperties@CArchivedFileManager@@Ultstr@2@V?$allocator@U?$pair@QADUSFileProperties@CArchivedFileManager@@@std@@@std@@$0A@@std@@@2@@Z 004d4270 f i ArchivedFileManager.obj
 0002:0005a2b0       ?_Make_iter@?$_Tree@V?$_Tmap_traits@PADUSFileProperties@CArchivedFileManager@@Ultstr@2@V?$allocator@U?$pair@QADUSFileProperties@CArchivedFileManager@@@std@@@std@@$0A@@std@@@std@@QBE?AViterator@12@Vconst_iterator@12@@Z 004d42b0 f i ArchivedFileManager.obj
 0002:0005a3c0       ?max_size@?$_Tree@V?$_Tmap_traits@PADUSFileProperties@CArchivedFileManager@@Ultstr@2@V?$allocator@U?$pair@QADUSFileProperties@CArchivedFileManager@@@std@@@std@@$0A@@std@@@std@@QBEIXZ 004d43c0 f i ArchivedFileManager.obj
 0002:0005a420       ?erase@?$_Tree@V?$_Tmap_traits@PADUSFileProperties@CArchivedFileManager@@Ultstr@2@V?$allocator@U?$pair@QADUSFileProperties@CArchivedFileManager@@@std@@@std@@$0A@@std@@@std@@QAE?AViterator@12@Vconst_iterator@12@@Z 004d4420 f i ArchivedFileManager.obj
 0002:0005ae80       ?clear@?$_Tree@V?$_Tmap_traits@PADUSFileProperties@CArchivedFileManager@@Ultstr@2@V?$allocator@U?$pair@QADUSFileProperties@CArchivedFileManager@@@std@@@std@@$0A@@std@@@std@@QAEXXZ 004d4e80 f i ArchivedFileManager.obj
 0002:0005af40       ?_Lmost@?$_Tree@V?$_Tmap_traits@PADUSFileProperties@CArchivedFileManager@@Ultstr@2@V?$allocator@U?$pair@QADUSFileProperties@CArchivedFileManager@@@std@@@std@@$0A@@std@@@std@@IBEAAPAU_Node@?$_Tree_nod@V?$_Tmap_traits@PADUSFileProperties@CArchivedFileManager@@Ultstr@2@V?$allocator@U?$pair@QADUSFileProperties@CArchivedFileManager@@@std@@@std@@$0A@@std@@@2@XZ 004d4f40 f i ArchivedFileManager.obj
 0002:0005afa0       ?_Lrotate@?$_Tree@V?$_Tmap_traits@PADUSFileProperties@CArchivedFileManager@@Ultstr@2@V?$allocator@U?$pair@QADUSFileProperties@CArchivedFileManager@@@std@@@std@@$0A@@std@@@std@@IAEXPAU_Node@?$_Tree_nod@V?$_Tmap_traits@PADUSFileProperties@CArchivedFileManager@@Ultstr@2@V?$allocator@U?$pair@QADUSFileProperties@CArchivedFileManager@@@std@@@std@@$0A@@std@@@2@@Z 004d4fa0 f i ArchivedFileManager.obj
 0002:0005b150       ?_Root@?$_Tree@V?$_Tmap_traits@PADUSFileProperties@CArchivedFileManager@@Ultstr@2@V?$allocator@U?$pair@QADUSFileProperties@CArchivedFileManager@@@std@@@std@@$0A@@std@@@std@@IBEAAPAU_Node@?$_Tree_nod@V?$_Tmap_traits@PADUSFileProperties@CArchivedFileManager@@Ultstr@2@V?$allocator@U?$pair@QADUSFileProperties@CArchivedFileManager@@@std@@@std@@$0A@@std@@@2@XZ 004d5150 f i ArchivedFileManager.obj
 0002:0005b1b0       ?_Rrotate@?$_Tree@V?$_Tmap_traits@PADUSFileProperties@CArchivedFileManager@@Ultstr@2@V?$allocator@U?$pair@QADUSFileProperties@CArchivedFileManager@@@std@@@std@@$0A@@std@@@std@@IAEXPAU_Node@?$_Tree_nod@V?$_Tmap_traits@PADUSFileProperties@CArchivedFileManager@@Ultstr@2@V?$allocator@U?$pair@QADUSFileProperties@CArchivedFileManager@@@std@@@std@@$0A@@std@@@2@@Z 004d51b0 f i ArchivedFileManager.obj
 0002:0005b360       ?_Buynode@?$_Tree@V?$_Tmap_traits@PADUSFileProperties@CArchivedFileManager@@Ultstr@2@V?$allocator@U?$pair@QADUSFileProperties@CArchivedFileManager@@@std@@@std@@$0A@@std@@@std@@IAEPAU_Node@?$_Tree_nod@V?$_Tmap_traits@PADUSFileProperties@CArchivedFileManager@@Ultstr@2@V?$allocator@U?$pair@QADUSFileProperties@CArchivedFileManager@@@std@@@std@@$0A@@std@@@2@XZ 004d5360 f i ArchivedFileManager.obj
 0002:0005b5a0       ?_Buynode@?$_Tree@V?$_Tmap_traits@PADUSFileProperties@CArchivedFileManager@@Ultstr@2@V?$allocator@U?$pair@QADUSFileProperties@CArchivedFileManager@@@std@@@std@@$0A@@std@@@std@@IAEPAU_Node@?$_Tree_nod@V?$_Tmap_traits@PADUSFileProperties@CArchivedFileManager@@Ultstr@2@V?$allocator@U?$pair@QADUSFileProperties@CArchivedFileManager@@@std@@@std@@$0A@@std@@@2@PAU342@00ABU?$pair@QADUSFileProperties@CArchivedFileManager@@@2@D@Z 004d55a0 f i ArchivedFileManager.obj
 0002:0005b710       ??0?$_Tree_ptr@V?$_Tmap_traits@PADUSFileProperties@CArchivedFileManager@@Ultstr@2@V?$allocator@U?$pair@QADUSFileProperties@CArchivedFileManager@@@std@@@std@@$0A@@std@@@std@@QAE@ABUltstr@CArchivedFileManager@@V?$allocator@U?$pair@QADUSFileProperties@CArchivedFileManager@@@std@@@1@@Z 004d5710 f i ArchivedFileManager.obj
 0002:0005b7a0       ??Fiterator@?$_Tree@V?$_Tmap_traits@PADUSFileProperties@CArchivedFileManager@@Ultstr@2@V?$allocator@U?$pair@QADUSFileProperties@CArchivedFileManager@@@std@@@std@@$0A@@std@@@std@@QAEAAV012@XZ 004d57a0 f i ArchivedFileManager.obj
 0002:0005b800       ??Econst_iterator@?$_Tree@V?$_Tmap_traits@PADUSFileProperties@CArchivedFileManager@@Ultstr@2@V?$allocator@U?$pair@QADUSFileProperties@CArchivedFileManager@@@std@@@std@@$0A@@std@@@std@@QAE?AV012@H@Z 004d5800 f i ArchivedFileManager.obj
 0002:0005b920       ?_Dec@const_iterator@?$_Tree@V?$_Tmap_traits@PADUSFileProperties@CArchivedFileManager@@Ultstr@2@V?$allocator@U?$pair@QADUSFileProperties@CArchivedFileManager@@@std@@@std@@$0A@@std@@@std@@QAEXXZ 004d5920 f i ArchivedFileManager.obj
 0002:0005bc10       ?_Inc@const_iterator@?$_Tree@V?$_Tmap_traits@PADUSFileProperties@CArchivedFileManager@@Ultstr@2@V?$allocator@U?$pair@QADUSFileProperties@CArchivedFileManager@@@std@@@std@@$0A@@std@@@std@@QAEXXZ 004d5c10 f i ArchivedFileManager.obj
 0002:0005bdc0       ??0?$pair@Viterator@?$_Tree@V?$_Tmap_traits@PADUSFileProperties@CArchivedFileManager@@Ultstr@2@V?$allocator@U?$pair@QADUSFileProperties@CArchivedFileManager@@@std@@@std@@$0A@@std@@@std@@_N@std@@QAE@ABViterator@?$_Tree@V?$_Tmap_traits@PADUSFileProperties@CArchivedFileManager@@Ultstr@2@V?$allocator@U?$pair@QADUSFileProperties@CArchivedFileManager@@@std@@@std@@$0A@@std@@@1@AB_N@Z 004d5dc0 f i ArchivedFileManager.obj
 0002:0005be30       ?_Erase@?$_Tree@V?$_Tmap_traits@PADUSFileProperties@CArchivedFileManager@@Ultstr@2@V?$allocator@U?$pair@QADUSFileProperties@CArchivedFileManager@@@std@@@std@@$0A@@std@@@std@@IAEXPAU_Node@?$_Tree_nod@V?$_Tmap_traits@PADUSFileProperties@CArchivedFileManager@@Ultstr@2@V?$allocator@U?$pair@QADUSFileProperties@CArchivedFileManager@@@std@@@std@@$0A@@std@@@2@@Z 004d5e30 f i ArchivedFileManager.obj
 0002:0005bf00       ?_Max@?$_Tree@V?$_Tmap_traits@PADUSFileProperties@CArchivedFileManager@@Ultstr@2@V?$allocator@U?$pair@QADUSFileProperties@CArchivedFileManager@@@std@@@std@@$0A@@std@@@std@@KAPAU_Node@?$_Tree_nod@V?$_Tmap_traits@PADUSFileProperties@CArchivedFileManager@@Ultstr@2@V?$allocator@U?$pair@QADUSFileProperties@CArchivedFileManager@@@std@@@std@@$0A@@std@@@2@PAU342@@Z 004d5f00 f i ArchivedFileManager.obj
 0002:0005bf80       ?_Min@?$_Tree@V?$_Tmap_traits@PADUSFileProperties@CArchivedFileManager@@Ultstr@2@V?$allocator@U?$pair@QADUSFileProperties@CArchivedFileManager@@@std@@@std@@$0A@@std@@@std@@KAPAU_Node@?$_Tree_nod@V?$_Tmap_traits@PADUSFileProperties@CArchivedFileManager@@Ultstr@2@V?$allocator@U?$pair@QADUSFileProperties@CArchivedFileManager@@@std@@@std@@$0A@@std@@@2@PAU342@@Z 004d5f80 f i ArchivedFileManager.obj
 0002:0005c000       ?_Orphan_ptr@?$_Tree@V?$_Tmap_traits@PADUSFileProperties@CArchivedFileManager@@Ultstr@2@V?$allocator@U?$pair@QADUSFileProperties@CArchivedFileManager@@@std@@@std@@$0A@@std@@@std@@IBEXAAV12@PAU_Node@?$_Tree_nod@V?$_Tmap_traits@PADUSFileProperties@CArchivedFileManager@@Ultstr@2@V?$allocator@U?$pair@QADUSFileProperties@CArchivedFileManager@@@std@@@std@@$0A@@std@@@2@@Z 004d6000 f i ArchivedFileManager.obj
 0002:0005c110       ??0?$_Tree_nod@V?$_Tmap_traits@PADUSFileProperties@CArchivedFileManager@@Ultstr@2@V?$allocator@U?$pair@QADUSFileProperties@CArchivedFileManager@@@std@@@std@@$0A@@std@@@std@@IAE@ABUltstr@CArchivedFileManager@@V?$allocator@U?$pair@QADUSFileProperties@CArchivedFileManager@@@std@@@1@@Z 004d6110 f i ArchivedFileManager.obj
 0002:0005c1a0       ?max_size@?$allocator@U?$pair@QADUSFileProperties@CArchivedFileManager@@@std@@@std@@QBEIXZ 004d61a0 f i ArchivedFileManager.obj
 0002:0005c210       ?allocate@?$allocator@U_Node@?$_Tree_nod@V?$_Tmap_traits@PADUSFileProperties@CArchivedFileManager@@Ultstr@2@V?$allocator@U?$pair@QADUSFileProperties@CArchivedFileManager@@@std@@@std@@$0A@@std@@@std@@@std@@QAEPAU_Node@?$_Tree_nod@V?$_Tmap_traits@PADUSFileProperties@CArchivedFileManager@@Ultstr@2@V?$allocator@U?$pair@QADUSFileProperties@CArchivedFileManager@@@std@@@std@@$0A@@std@@@2@I@Z 004d6210 f i ArchivedFileManager.obj
 0002:0005c270       ?destroy@?$allocator@U_Node@?$_Tree_nod@V?$_Tmap_traits@PADUSFileProperties@CArchivedFileManager@@Ultstr@2@V?$allocator@U?$pair@QADUSFileProperties@CArchivedFileManager@@@std@@@std@@$0A@@std@@@std@@@std@@QAEXPAU_Node@?$_Tree_nod@V?$_Tmap_traits@PADUSFileProperties@CArchivedFileManager@@Ultstr@2@V?$allocator@U?$pair@QADUSFileProperties@CArchivedFileManager@@@std@@@std@@$0A@@std@@@2@@Z 004d6270 f i ArchivedFileManager.obj
 0002:0005c2d0       ?construct@?$allocator@PAU_Node@?$_Tree_nod@V?$_Tmap_traits@PADUSFileProperties@CArchivedFileManager@@Ultstr@2@V?$allocator@U?$pair@QADUSFileProperties@CArchivedFileManager@@@std@@@std@@$0A@@std@@@std@@@std@@QAEXPAPAU_Node@?$_Tree_nod@V?$_Tmap_traits@PADUSFileProperties@CArchivedFileManager@@Ultstr@2@V?$allocator@U?$pair@QADUSFileProperties@CArchivedFileManager@@@std@@@std@@$0A@@std@@@2@ABQAU342@@Z 004d62d0 f i ArchivedFileManager.obj
 0002:0005c330       ??0_Node@?$_Tree_nod@V?$_Tmap_traits@PADUSFileProperties@CArchivedFileManager@@Ultstr@2@V?$allocator@U?$pair@QADUSFileProperties@CArchivedFileManager@@@std@@@std@@$0A@@std@@@std@@QAE@PAU012@00ABU?$pair@QADUSFileProperties@CArchivedFileManager@@@2@D@Z 004d6330 f i ArchivedFileManager.obj
 0002:0005c3d0       ??0?$_Tmap_traits@PADUSFileProperties@CArchivedFileManager@@Ultstr@2@V?$allocator@U?$pair@QADUSFileProperties@CArchivedFileManager@@@std@@@std@@$0A@@std@@QAE@Ultstr@CArchivedFileManager@@V?$allocator@U?$pair@QADUSFileProperties@CArchivedFileManager@@@std@@@1@@Z 004d63d0 f i ArchivedFileManager.obj
 0002:0005c440       ??0?$_Container_base_aux_alloc_empty@V?$allocator@U?$pair@QADUSFileProperties@CArchivedFileManager@@@std@@@std@@@std@@IAE@V?$allocator@U?$pair@QADUSFileProperties@CArchivedFileManager@@@std@@@1@@Z 004d6440 f i ArchivedFileManager.obj
 0002:0005c4a0       ??$_Debug_lt_pred@Ultstr@CArchivedFileManager@@PADPAD@std@@YA_NUltstr@CArchivedFileManager@@ABQAD1PB_WI@Z 004d64a0 f i ArchivedFileManager.obj
 0002:0005c550       ??$_Destroy@PAU_Node@?$_Tree_nod@V?$_Tmap_traits@PADUSFileProperties@CArchivedFileManager@@Ultstr@2@V?$allocator@U?$pair@QADUSFileProperties@CArchivedFileManager@@@std@@@std@@$0A@@std@@@std@@@std@@YAXPAPAU_Node@?$_Tree_nod@V?$_Tmap_traits@PADUSFileProperties@CArchivedFileManager@@Ultstr@2@V?$allocator@U?$pair@QADUSFileProperties@CArchivedFileManager@@@std@@@std@@$0A@@std@@@0@@Z 004d6550 f i ArchivedFileManager.obj
 0002:0005c580       ??$swap@D@std@@YAXAAD0@Z   004d6580 f i ArchivedFileManager.obj
 0002:0005c5e0       ??$?0U?$pair@QADUSFileProperties@CArchivedFileManager@@@std@@@?$allocator@PAU_Node@?$_Tree_nod@V?$_Tmap_traits@PADUSFileProperties@CArchivedFileManager@@Ultstr@2@V?$allocator@U?$pair@QADUSFileProperties@CArchivedFileManager@@@std@@@std@@$0A@@std@@@std@@@std@@QAE@ABV?$allocator@U?$pair@QADUSFileProperties@CArchivedFileManager@@@std@@@1@@Z 004d65e0 f i ArchivedFileManager.obj
 0002:0005c620       ??$?0U?$pair@QADUSFileProperties@CArchivedFileManager@@@std@@@?$allocator@U_Node@?$_Tree_nod@V?$_Tmap_traits@PADUSFileProperties@CArchivedFileManager@@Ultstr@2@V?$allocator@U?$pair@QADUSFileProperties@CArchivedFileManager@@@std@@@std@@$0A@@std@@@std@@@std@@QAE@ABV?$allocator@U?$pair@QADUSFileProperties@CArchivedFileManager@@@std@@@1@@Z 004d6620 f i ArchivedFileManager.obj
 0002:0005c660       ??$_Allocate@U_Node@?$_Tree_nod@V?$_Tmap_traits@PADUSFileProperties@CArchivedFileManager@@Ultstr@2@V?$allocator@U?$pair@QADUSFileProperties@CArchivedFileManager@@@std@@@std@@$0A@@std@@@std@@@std@@YAPAU_Node@?$_Tree_nod@V?$_Tmap_traits@PADUSFileProperties@CArchivedFileManager@@Ultstr@2@V?$allocator@U?$pair@QADUSFileProperties@CArchivedFileManager@@@std@@@std@@$0A@@std@@@0@IPAU120@@Z 004d6660 f i ArchivedFileManager.obj
 0002:0005c700       ??$_Destroy@U_Node@?$_Tree_nod@V?$_Tmap_traits@PADUSFileProperties@CArchivedFileManager@@Ultstr@2@V?$allocator@U?$pair@QADUSFileProperties@CArchivedFileManager@@@std@@@std@@$0A@@std@@@std@@@std@@YAXPAU_Node@?$_Tree_nod@V?$_Tmap_traits@PADUSFileProperties@CArchivedFileManager@@Ultstr@2@V?$allocator@U?$pair@QADUSFileProperties@CArchivedFileManager@@@std@@@std@@$0A@@std@@@0@@Z 004d6700 f i ArchivedFileManager.obj
 0002:0005c730       ??$_Construct@PAU_Node@?$_Tree_nod@V?$_Tmap_traits@PADUSFileProperties@CArchivedFileManager@@Ultstr@2@V?$allocator@U?$pair@QADUSFileProperties@CArchivedFileManager@@@std@@@std@@$0A@@std@@@std@@PAU123@@std@@YAXPAPAU_Node@?$_Tree_nod@V?$_Tmap_traits@PADUSFileProperties@CArchivedFileManager@@Ultstr@2@V?$allocator@U?$pair@QADUSFileProperties@CArchivedFileManager@@@std@@@std@@$0A@@std@@@0@ABQAU120@@Z 004d6730 f i ArchivedFileManager.obj
 0002:0005c7d0       ??0CFPSCounter@@QAE@XZ     004d67d0 f   FPSCounter.obj
 0002:0005c880       ??_ECFPSCounter@@UAEPAXI@Z 004d6880 f i FPSCounter.obj
 0002:0005c880       ??_GCFPSCounter@@UAEPAXI@Z 004d6880 f i FPSCounter.obj
 0002:0005c8f0       ??1CFPSCounter@@UAE@XZ     004d68f0 f   FPSCounter.obj
 0002:0005c930       ?ToggleInfoShow@CFPSCounter@@QAEXXZ 004d6930 f   FPSCounter.obj
 0002:0005c980       ?Update@CFPSCounter@@QAEXXZ 004d6980 f   FPSCounter.obj
 0002:0005c9d0       ?IntToStr@@YAXHPAG@Z       004d69d0 f   FPSCounter.obj
 0002:0005cb00       ?Draw@CFPSCounter@@QAEXHHAAVCLib2D@@H@Z 004d6b00 f   FPSCounter.obj
 0002:0005cd10       ??0CFunctor@@QAE@XZ        004d6d10 f   Functor.obj
 0002:0005cd60       ??_ECFunctor@@UAEPAXI@Z    004d6d60 f i Functor.obj
 0002:0005cd60       ??_GCFunctor@@UAEPAXI@Z    004d6d60 f i Functor.obj
 0002:0005cdd0       ??1CFunctor@@UAE@XZ        004d6dd0 f   Functor.obj
 0002:0005ce10       ??0CHighGear@@QAE@AAVCGapi@@@Z 004d6e10 f   HighGear.obj
 0002:0005d0b0       ??_ECHighGear@@UAEPAXI@Z   004d70b0 f i HighGear.obj
 0002:0005d0b0       ??_GCHighGear@@UAEPAXI@Z   004d70b0 f i HighGear.obj
 0002:0005d120       ??0ITouchZonesListener@@QAE@XZ 004d7120 f i HighGear.obj
 0002:0005d170       ??1CHighGear@@UAE@XZ       004d7170 f   HighGear.obj
 0002:0005d360       ??_GCLib3D@Lib3D@@QAEPAXI@Z 004d7360 f i HighGear.obj
 0002:0005d3d0       ??_GImage@@QAEPAXI@Z       004d73d0 f i HighGear.obj
 0002:0005d440       ??1Image@@QAE@XZ           004d7440 f i HighGear.obj
 0002:0005d4c0       ?InitHighGear@CHighGear@@QAE_NH@Z 004d74c0 f   HighGear.obj
 0002:0005d6d0       ?SetLib3D@CLib2D@@QAEXPAVCLib3D@Lib3D@@@Z 004d76d0 f i HighGear.obj
 0002:0005d720       ?InitDisplayOrientation@CHighGear@@QAE_NH@Z 004d7720 f   HighGear.obj
 0002:0005d950       ?changeSize@Image@@QAEXHH@Z 004d7950 f i HighGear.obj
 0002:0005d9a0       ?ResetClip@CLib2D@@QAEXXZ  004d79a0 f i HighGear.obj
 0002:0005d9f0       ?GameInit@CHighGear@@QAEHXZ 004d79f0 f   HighGear.obj
 0002:0005da30       ?GameLoop@CHighGear@@QAEXXZ 004d7a30 f   HighGear.obj
 0002:0005de60       ?GetModuleWidth@CSprite@@QBEFF@Z 004d7e60 f i HighGear.obj
 0002:0005deb0       ?GetModuleHeight@CSprite@@QBEFF@Z 004d7eb0 f i HighGear.obj
 0002:0005def0       ?SetSeed@CRandom@@QAEXI@Z  004d7ef0 f i HighGear.obj
 0002:0005df30       ?ZonePressed@CHighGear@@UAEXF@Z 004d7f30 f   HighGear.obj
 0002:0005df70       ?ZoneReleased@CHighGear@@UAEXF@Z 004d7f70 f   HighGear.obj
 0002:0005dfb0       ?ZoneActivated@CHighGear@@UAEXF@Z 004d7fb0 f   HighGear.obj
 0002:0005e030       ?ZoneMove@CHighGear@@UAEXFHH@Z 004d8030 f   HighGear.obj
 0002:0005e940       ?setGameState@CHighGear@@QAEXW4e_m_state@1@_N@Z 004d8940 f   HighGear.obj
 0002:0005eb40       ?initActors@CHighGear@@QAEXXZ 004d8b40 f   HighGear.obj
 0002:0005ec80       ?procMaingame@CHighGear@@QAEXXZ 004d8c80 f   HighGear.obj
 0002:0005f7d0       ?GetNumber@CRandom@@QAEIHH@Z 004d97d0 f i HighGear.obj
 0002:0005f840       ?GetNumber@CRandom@@QAEII@Z 004d9840 f i HighGear.obj
 0002:0005f8a0       ?GetNumber@CRandom@@QAEIXZ 004d98a0 f i HighGear.obj
 0002:0005fa40       ??0?$stack@VARect@@V?$deque@VARect@@V?$allocator@VARect@@@std@@@std@@@std@@QAE@ABV01@@Z 004d9a40 f i HighGear.obj
 0002:0005fbd0       ?getNumDigit@CHighGear@@QAEHH@Z 004d9bd0 f   HighGear.obj
 0002:0005fcd0       ?GetInstance@?$CSingleton@$01VCArchivedFileManager@@@@SAPAVCArchivedFileManager@@XZ 004d9cd0 f i HighGear.obj
 0002:0005fff0       ??1?$CSingletonNoAutoConstruct@$00VCHighGear@@@@UAE@XZ 004d9ff0 f i HighGear.obj
 0002:00060040       ??1?$_Deque_iterator@VARect@@V?$allocator@VARect@@@std@@$00@std@@QAE@XZ 004da040 f i HighGear.obj
 0002:00060100       ?_GetInstance@?$CSingletonNoAutoConstruct@$01VCArchivedFileManager@@@@KAPAVCArchivedFileManager@@XZ 004da100 f i HighGear.obj
 0002:00060190       ?begin@?$deque@VARect@@V?$allocator@VARect@@@std@@@std@@QAE?AV?$_Deque_iterator@VARect@@V?$allocator@VARect@@@std@@$00@2@XZ 004da190 f i HighGear.obj
 0002:00060280       ??0?$_Deque_iterator@VARect@@V?$allocator@VARect@@@std@@$00@std@@QAE@IPBV_Container_base_secure@1@@Z 004da280 f i HighGear.obj
 0002:00060460       ??$_Iter_cat@V?$_Deque_const_iterator@VARect@@V?$allocator@VARect@@@std@@$00@std@@@std@@YA?AUrandom_access_iterator_tag@0@ABV?$_Deque_const_iterator@VARect@@V?$allocator@VARect@@@std@@$00@0@@Z 004da460 f i HighGear.obj
 0002:00060a30       ?push_front@?$deque@VARect@@V?$allocator@VARect@@@std@@@std@@QAEXABVARect@@@Z 004daa30 f i HighGear.obj
 0002:00060b60       ?pop_front@?$deque@VARect@@V?$allocator@VARect@@@std@@@std@@QAEXXZ 004dab60 f i HighGear.obj
 0002:00060ca0       ?_Reverse@?$deque@VARect@@V?$allocator@VARect@@@std@@@std@@QAEXII@Z 004daca0 f i HighGear.obj
 0002:00060f70       ??8?$_Deque_const_iterator@VARect@@V?$allocator@VARect@@@std@@$00@std@@QBE_NABV01@@Z 004daf70 f i HighGear.obj
 0002:00060fe0       ??9?$_Deque_const_iterator@VARect@@V?$allocator@VARect@@@std@@$00@std@@QBE_NABV01@@Z 004dafe0 f i HighGear.obj
 0002:000610d0       ??A?$_Deque_iterator@VARect@@V?$allocator@VARect@@@std@@$00@std@@QBEAAVARect@@H@Z 004db0d0 f i HighGear.obj
 0002:00061200       ??D?$_Deque_iterator@VARect@@V?$allocator@VARect@@@std@@$00@std@@QBEAAVARect@@XZ 004db200 f i HighGear.obj
 0002:00061380       ??0?$_Deque_iterator@VARect@@V?$allocator@VARect@@@std@@$00@std@@QAE@ABV01@@Z 004db380 f i HighGear.obj
 0002:000613e0       ??Y?$_Deque_iterator@VARect@@V?$allocator@VARect@@@std@@$00@std@@QAEAAV01@H@Z 004db3e0 f i HighGear.obj
 0002:00061570       ??$_Swap_adl@VARect@@@std@@YAXAAVARect@@0@Z 004db570 f i HighGear.obj
 0002:00061690       ??$_Debug_range2@V?$_Deque_const_iterator@VARect@@V?$allocator@VARect@@@std@@$00@std@@@std@@YAXV?$_Deque_const_iterator@VARect@@V?$allocator@VARect@@@std@@$00@0@0PB_WIUrandom_access_iterator_tag@0@@Z 004db690 f i HighGear.obj
 0002:00061830       ?unload_language@@YAXAAPAPAG@Z 004db830 f   Intl.obj
 0002:000618b0       ?load_language@@YAXPBDAAPAPAG@Z 004db8b0 f   Intl.obj
 0002:00061cb0       ?load_language@@YAXHAAPAPAG@Z 004dbcb0 f   Intl.obj
 0002:00061d80       ??$?HDU?$char_traits@D@std@@V?$allocator@D@1@@std@@YA?AV?$basic_string@DU?$char_traits@D@std@@V?$allocator@D@2@@0@ABV10@PBD@Z 004dbd80 f i Intl.obj
 0002:00061e80       ??Y?$basic_string@DU?$char_traits@D@std@@V?$allocator@D@2@@std@@QAEAAV01@PBD@Z 004dbe80 f i Intl.obj
 0002:00061ee0       ??0CNeon@Lib3D@@QAE@HHHH@Z 004dbee0 f   neon.obj
 0002:00062160       ??1CNeon@Lib3D@@QAE@XZ     004dc160 f   neon.obj
 0002:00062280       ?Draw@CNeon@Lib3D@@QAEXAAVCLib3D@2@@Z 004dc280 f   neon.obj
 0002:000623a0       ?SetColor@CNeon@Lib3D@@QAEXW4neon_color@12@@Z 004dc3a0 f   neon.obj
 0002:000628f0       ?DrawAdditiveNeonGeom@CNeon@Lib3D@@AAEXAAVCLib3D@2@PAVTTexture@2@PAVTVertex@2@PAVTFace@2@@Z 004dc8f0 f   neon.obj
 0002:000629d0       ?SetTexture@TFace@Lib3D@@QAEXPBVTTexture@2@@Z 004dc9d0 f i neon.obj
 0002:00062a20       ?CreateAdditiveNeonGeom@CNeon@Lib3D@@AAEXPAVTVertex@2@PAVTFace@2@ABVVector4s@@HH_N@Z 004dca20 f   neon.obj
 0002:00063340       ?SetVectorA@TFace@Lib3D@@QAEXPAVTVertex@2@@Z 004dd340 f i neon.obj
 0002:00063390       ?SetVectorB@TFace@Lib3D@@QAEXPAVTVertex@2@@Z 004dd390 f i neon.obj
 0002:000633e0       ?SetVectorC@TFace@Lib3D@@QAEXPAVTVertex@2@@Z 004dd3e0 f i neon.obj
 0002:00063430       ?SetuA@TFace@Lib3D@@QAEXH@Z 004dd430 f i neon.obj
 0002:00063480       ?SetvA@TFace@Lib3D@@QAEXH@Z 004dd480 f i neon.obj
 0002:000634d0       ?SetuB@TFace@Lib3D@@QAEXH@Z 004dd4d0 f i neon.obj
 0002:00063520       ?SetvB@TFace@Lib3D@@QAEXH@Z 004dd520 f i neon.obj
 0002:00063570       ?SetuC@TFace@Lib3D@@QAEXH@Z 004dd570 f i neon.obj
 0002:000635c0       ?SetvC@TFace@Lib3D@@QAEXH@Z 004dd5c0 f i neon.obj
 0002:00063610       ??0CRandom@@QAE@I@Z        004dd610 f   Random.obj
 0002:00063660       ??0CRandom@@QAE@XZ         004dd660 f   Random.obj
 0002:000636b0       ??1CRandom@@QAE@XZ         004dd6b0 f   Random.obj
 0002:000636f0       ?freeShadowMesh@CShadow@Lib3D@@AAEXXZ 004dd6f0 f   shadow.obj
 0002:000637a0       ?initializeShadowMesh@CShadow@Lib3D@@AAEXXZ 004dd7a0 f   shadow.obj
 0002:00063ac0       ?GetLengthFront@CGLMesh@Lib3D@@QBEHXZ 004ddac0 f i shadow.obj
 0002:00063b00       ?GetLengthRear@CGLMesh@Lib3D@@QBEHXZ 004ddb00 f i shadow.obj
 0002:00063b40       ?GetHalfWidth@CGLMesh@Lib3D@@QBEHXZ 004ddb40 f i shadow.obj
 0002:00063b80       ?NbMaterials@CGLMesh@Lib3D@@QBEHXZ 004ddb80 f i shadow.obj
 0002:00063bc0       ?NbIndices@CGLMesh@Lib3D@@QBEHH@Z 004ddbc0 f i shadow.obj
 0002:00063c10       ?Indices@CGLMesh@Lib3D@@QBEPAGH@Z 004ddc10 f i shadow.obj
 0002:00063c90       ??0CShadow@Lib3D@@QAE@PBVTTexture@1@AAVCGLMesh@1@@Z 004ddc90 f   shadow.obj
 0002:00063d20       ??1CShadow@Lib3D@@QAE@XZ   004ddd20 f   shadow.obj
 0002:00063d70       ?Draw@CShadow@Lib3D@@QAEXAAVCLib3D@2@PBVVector4s@@PAV4@_NPAVCMatrix44@2@4@Z 004ddd70 f   shadow.obj
 0002:00064420       ?DrawCopterShadow@CShadow@Lib3D@@QAEXAAVCLib3D@2@PBVVector4s@@PAV4@@Z 004de420 f   shadow.obj
 0002:00064460       ??0CSingletonManager@@IAE@XZ 004de460 f   Singleton.obj
 0002:00064530       ??_ECSingletonManager@@UAEPAXI@Z 004de530 f i Singleton.obj
 0002:00064530       ??_GCSingletonManager@@UAEPAXI@Z 004de530 f i Singleton.obj
 0002:000645a0       ??1CSingletonManager@@UAE@XZ 004de5a0 f   Singleton.obj
 0002:000646d0       ?Create@CSingletonManager@@SAXXZ 004de6d0 f   Singleton.obj
 0002:000647c0       ?RegisterSingleton@CSingletonManager@@SAXPAVISingleton@@H@Z 004de7c0 f   Singleton.obj
 0002:00064820       ?Inst_RegisterSingleton@CSingletonManager@@IAEXPAVISingleton@@H@Z 004de820 f   Singleton.obj
 0002:000648e0       ?Shutdown@CSingletonManager@@SAXXZ 004de8e0 f   Singleton.obj
 0002:00064990       ?GetInstance@CSingletonManager@@SAPAV1@XZ 004de990 f   Singleton.obj
 0002:000649f0       ??1A_IFile@@UAE@XZ         004de9f0 f   File_iPhone.obj
 0002:00064ac0       ??_EA_IFile@@UAEPAXI@Z     004deac0 f i File_iPhone.obj
 0002:00064ac0       ??_GA_IFile@@UAEPAXI@Z     004deac0 f i File_iPhone.obj
 0002:00064b30       ?Open@A_IFile@@SAPAV1@PBDH_N1@Z 004deb30 f   File_iPhone.obj
 0002:00064fc0       ?CreateStreamBuffer@A_IFile@@SAPAV1@XZ 004defc0 f   File_iPhone.obj
 0002:000650b0       ?Close@A_IFile@@SAXAAPAV1@@Z 004df0b0 f   File_iPhone.obj
 0002:000651c0       ?Delete@A_IFile@@SA_NPBD_N@Z 004df1c0 f   File_iPhone.obj
 0002:00065220       ?HandleReadError@A_IFile@@UAEXXZ 004df220 f   File_iPhone.obj
 0002:00065260       ?WriteString@A_IFile@@QAEXPBD@Z 004df260 f   File_iPhone.obj
 0002:00065350       ?ReadString@A_IFile@@QAEPBDXZ 004df350 f   File_iPhone.obj
 0002:00065450       ?CacheFile@A_IFile@@IAEXXZ 004df450 f   File_iPhone.obj
 0002:00065560       ?Read@A_IFile@@QAEIPAXI@Z  004df560 f   File_iPhone.obj
 0002:00065640       ?Write@A_IFile@@QAEIPBXI@Z 004df640 f   File_iPhone.obj
 0002:000658f0       ?GetSize@A_IFile@@QAEJXZ   004df8f0 f   File_iPhone.obj
 0002:00065980       ?Seek@A_IFile@@QAE_NI@Z    004df980 f   File_iPhone.obj
 0002:00065a50       ?GetCurrentOffset@A_IFile@@QAEHXZ 004dfa50 f   File_iPhone.obj
 0002:00065aa0       ?GetChar@A_IFile@@QAEDXZ   004dfaa0 f   File_iPhone.obj
 0002:00065b40       ?GetShort@A_IFile@@QAEFXZ  004dfb40 f   File_iPhone.obj
 0002:00065be0       ?GetInt@A_IFile@@QAEHXZ    004dfbe0 f   File_iPhone.obj
 0002:00065c80       ?GetLong@A_IFile@@QAEJXZ   004dfc80 f   File_iPhone.obj
 0002:00065d20       ?SkipLine@A_IFile@@QAEXXZ  004dfd20 f   File_iPhone.obj
 0002:00065d90       ?GetBuffer@A_IFile@@UAEPAXXZ 004dfd90 f   File_iPhone.obj
 0002:00065dd0       ??0CCachedFile@@QAE@PBD@Z  004dfdd0 f   File_iPhone.obj
 0002:00065ef0       ?Read@CCachedFile@@QAEHPAXI@Z 004dfef0 f   File_iPhone.obj
 0002:00065f90       ?GetInt@CCachedFile@@QAEHXZ 004dff90 f   File_iPhone.obj
 0002:00066030       ??1CCachedFile@@QAE@XZ     004e0030 f   File_iPhone.obj
 0002:000660a0       ?Seek@CCachedFile@@QAE_NI@Z 004e00a0 f   File_iPhone.obj
 0002:00066110       ??0CArchivedFile@@QAE@PBDH_N@Z 004e0110 f   File_iPhone.obj
 0002:00066640       ??0A_IFile@@QAE@_N@Z       004e0640 f i File_iPhone.obj
 0002:000666f0       ?HandleReadError@CArchivedFile@@UAEXXZ 004e06f0 f i File_iPhone.obj
 0002:00066740       ??_GCArchivedFile@@UAEPAXI@Z 004e0740 f i File_iPhone.obj
 0002:00066740       ??_ECArchivedFile@@UAEPAXI@Z 004e0740 f i File_iPhone.obj
 0002:000667b0       ??1CArchivedFile@@UAE@XZ   004e07b0 f   File_iPhone.obj
 0002:00066860       ?Exist@CArchivedFile@@QAE_NXZ 004e0860 f   File_iPhone.obj
 0002:000668e0       ?SpecificWrite@CArchivedFile@@UAEIPBXI@Z 004e08e0 f   File_iPhone.obj
 0002:00066960       ?SpecificSeek@CArchivedFile@@UAE_NI@Z 004e0960 f   File_iPhone.obj
 0002:00066a00       ?SpecificGetSize@CArchivedFile@@UAEJXZ 004e0a00 f   File_iPhone.obj
 0002:00066a40       ?SpecificRead@CArchivedFile@@UAEIPAXI@Z 004e0a40 f   File_iPhone.obj
 0002:00066bf0       ?SpecificClose@CArchivedFile@@UAEXXZ 004e0bf0 f   File_iPhone.obj
 0002:00066cb0       ?Flush@CArchivedFile@@UAEXXZ 004e0cb0 f   File_iPhone.obj
 0002:00066cf0       ?IsCompressed@CArchivedFile@@QAE_NXZ 004e0cf0 f   File_iPhone.obj
 0002:00066d30       ?GetBuffer@CArchivedFile@@UAEPAXXZ 004e0d30 f   File_iPhone.obj
 0002:00066d90       ??0CStreamBuffer@@QAE@XZ   004e0d90 f   File_iPhone.obj
 0002:00066e70       ?SpecificGetSize@CStreamBuffer@@UAEJXZ 004e0e70 f i File_iPhone.obj
 0002:00066eb0       ?SpecificClose@CStreamBuffer@@UAEXXZ 004e0eb0 f i File_iPhone.obj
 0002:00066ef0       ?Flush@CStreamBuffer@@UAEXXZ 004e0ef0 f i File_iPhone.obj
 0002:00066f30       ?GetBuffer@CStreamBuffer@@UAEPAXXZ 004e0f30 f i File_iPhone.obj
 0002:00066f70       ?Tell@CStreamBuffer@@UAEHXZ 004e0f70 f i File_iPhone.obj
 0002:00066fb0       ??_GCStreamBuffer@@UAEPAXI@Z 004e0fb0 f i File_iPhone.obj
 0002:00066fb0       ??_ECStreamBuffer@@UAEPAXI@Z 004e0fb0 f i File_iPhone.obj
 0002:00067020       ??1CStreamBuffer@@UAE@XZ   004e1020 f   File_iPhone.obj
 0002:00067090       ?SpecificRead@CStreamBuffer@@UAEIPAXI@Z 004e1090 f   File_iPhone.obj
 0002:00067120       ?SpecificWrite@CStreamBuffer@@UAEIPBXI@Z 004e1120 f   File_iPhone.obj
 0002:000671f0       ?SpecificSeek@CStreamBuffer@@UAE_NI@Z 004e11f0 f   File_iPhone.obj
 0002:000672c0       ??0CWinFile@@QAE@_N@Z      004e12c0 f   File_iPhone.obj
 0002:00067340       ??_ECWinFile@@UAEPAXI@Z    004e1340 f i File_iPhone.obj
 0002:00067340       ??_GCWinFile@@UAEPAXI@Z    004e1340 f i File_iPhone.obj
 0002:000673b0       ?Create@CWinFile@@QAE_NPBDH@Z 004e13b0 f   File_iPhone.obj
 0002:00067600       ??1CWinFile@@UAE@XZ        004e1600 f   File_iPhone.obj
 0002:000676b0       ?SpecificRead@CWinFile@@UAEIPAXI@Z 004e16b0 f   File_iPhone.obj
 0002:00067770       ?SpecificWrite@CWinFile@@UAEIPBXI@Z 004e1770 f   File_iPhone.obj
 0002:00067830       ?SpecificSeek@CWinFile@@UAE_NI@Z 004e1830 f   File_iPhone.obj
 0002:000678a0       ?SpecificGetSize@CWinFile@@UAEJXZ 004e18a0 f   File_iPhone.obj
 0002:00067960       ?SpecificClose@CWinFile@@UAEXXZ 004e1960 f   File_iPhone.obj
 0002:000679e0       ?Flush@CWinFile@@UAEXXZ    004e19e0 f   File_iPhone.obj
 0002:00067a50       _zcalloc                   004e1a50 f   File_iPhone.obj
 0002:00067b10       _zcfree                    004e1b10 f   File_iPhone.obj
 0002:00067b40       ??0?$basic_string@DU?$char_traits@D@std@@V?$allocator@D@2@@std@@QAE@XZ 004e1b40 f i File_iPhone.obj
 0002:00067c00       ??Y?$basic_string@DU?$char_traits@D@std@@V?$allocator@D@2@@std@@QAEAAV01@D@Z 004e1c00 f i File_iPhone.obj
 0002:00067c60       ?append@?$basic_string@DU?$char_traits@D@std@@V?$allocator@D@2@@std@@QAEAAV12@ID@Z 004e1c60 f i File_iPhone.obj
 0002:00067d30       ?_Chassign@?$basic_string@DU?$char_traits@D@std@@V?$allocator@D@2@@std@@IAEXIID@Z 004e1d30 f i File_iPhone.obj
 0002:00067dd0       ?assign@?$char_traits@D@std@@SAPADPADID@Z 004e1dd0 f i File_iPhone.obj
 0002:00067e30       ??$_Throw@H@@YAXABHPBDH@Z  004e1e30 f i File_iPhone.obj
 0002:00067ea0       ?LinkGLToScreenBuffer@@YAXHHHH@Z 004e1ea0 f   ScreenBufferWrapper.obj
 0002:00067fc0       ?IsGLLinkedToScreenBuffer@@YA_NXZ 004e1fc0 f   ScreenBufferWrapper.obj
 0002:00068000       ?RestoreGLLinkage@@YAXXZ   004e2000 f   ScreenBufferWrapper.obj
 0002:000680b0       ?InitScreenBufferIndices@@YAXXZ 004e20b0 f   ScreenBufferWrapper.obj
 0002:00068110       ?FlushScreenBuffer@@YAXXZ  004e2110 f   ScreenBufferWrapper.obj
 0002:000686a0       ?DrawScreenBuffer@@YAXHHHHI@Z 004e26a0 f   ScreenBufferWrapper.obj
 0002:00068ac0       ?BlitFromScreenBuffer@@YAXAAUtag_QuadInfo@@@Z 004e2ac0 f   ScreenBufferWrapper.obj
 0002:00068fd0       ?DrawBlurEffect@@YAXIIHHH@Z 004e2fd0 f   ScreenBufferWrapper.obj
 0002:000698e0       ??0TextureFBO@@QAE@HH_N@Z  004e38e0 f   TextureFBO.obj
 0002:00069cd0       ??1TextureFBO@@QAE@XZ      004e3cd0 f   TextureFBO.obj
 0002:00069da0       ?saveFBOLinkage@TextureFBO@@QAEXXZ 004e3da0 f   TextureFBO.obj
 0002:00069e30       ?restoreFBOLinkage@TextureFBO@@QAEXXZ 004e3e30 f   TextureFBO.obj
 0002:00069ec0       ?bindFBO@TextureFBO@@QAEXXZ 004e3ec0 f   TextureFBO.obj
 0002:00069f80       ?LinkOES2EXT@@YAXXZ        004e3f80 f   GLES_TO_WGL.obj
 0002:0006a190       ??0Comms@@QAE@XZ           004e4190 f   Comms.obj
 0002:0006a360       ??_EComms@@UAEPAXI@Z       004e4360 f i Comms.obj
 0002:0006a360       ??_GComms@@UAEPAXI@Z       004e4360 f i Comms.obj
 0002:0006a3d0       ?update@Comms@@UAE_NXZ     004e43d0 f   Comms.obj
 0002:0006a410       ?DiscoverServers@Comms@@UAE_NXZ 004e4410 f   Comms.obj
 0002:0006a450       ?DiscoveryFinished@Comms@@UAE_NXZ 004e4450 f   Comms.obj
 0002:0006a490       ?StartServer@Comms@@UAE_NXZ 004e4490 f   Comms.obj
 0002:0006a4d0       ?StopListening@Comms@@UAEXXZ 004e44d0 f   Comms.obj
 0002:0006a510       ?StartClient@Comms@@UAE_NXZ 004e4510 f   Comms.obj
 0002:0006a550       ?SendData@Comms@@UAE_NPAEIE@Z 004e4550 f   Comms.obj
 0002:0006a590       ?GetLocalDeviceName@Comms@@UAEPADXZ 004e4590 f   Comms.obj
 0002:0006a5d0       ?SetLocalDeviceName@Comms@@UAEXPAD@Z 004e45d0 f   Comms.obj
 0002:0006a610       ?RecvData@Comms@@QAEPAEAAIAAE@Z 004e4610 f   Comms.obj
 0002:0006a670       ?OnDataRecv@Comms@@QAE_NPAEIE@Z 004e4670 f   Comms.obj
 0002:0006a770       ?Connect@Comms@@UAE_NH@Z   004e4770 f   Comms.obj
 0002:0006a7b0       ?Disconnect@Comms@@UAEXH@Z 004e47b0 f   Comms.obj
 0002:0006a840       ?Connected@Comms@@QAEXH@Z  004e4840 f   Comms.obj
 0002:0006a8d0       ?IsConnectionAvailable@Comms@@UAE_NXZ 004e48d0 f   Comms.obj
 0002:0006a910       ?GetPowerState@Comms@@UAE_NXZ 004e4910 f   Comms.obj
 0002:0006a950       ?SetPowerState@Comms@@UAEX_N@Z 004e4950 f   Comms.obj
 0002:0006a990       ?GetDevicesNo@Comms@@QAEIXZ 004e4990 f   Comms.obj
 0002:0006a9d0       ?GetConnectedDevicesNo@Comms@@QAEIXZ 004e49d0 f   Comms.obj
 0002:0006aa60       ?AddDevice@Comms@@UAEXPAVDeviceDetails@@@Z 004e4a60 f   Comms.obj
 0002:0006aae0       ?SelectFirstDevice@Comms@@QAEXXZ 004e4ae0 f   Comms.obj
 0002:0006ab30       ?GetNextDevice@Comms@@QAEPAVDeviceDetails@@XZ 004e4b30 f   Comms.obj
 0002:0006abd0       ?RemoveDevice@Comms@@UAEXI@Z 004e4bd0 f   Comms.obj
 0002:0006ad30       ??_GDeviceDetails@@QAEPAXI@Z 004e4d30 f i Comms.obj
 0002:0006ada0       ?RemoveUnconnectedDevices@Comms@@QAEXXZ 004e4da0 f   Comms.obj
 0002:0006ae40       ?ClearDevicesList@Comms@@QAEXXZ 004e4e40 f   Comms.obj
 0002:0006aed0       ?QueueIsEmpty@Comms@@IAE_NXZ 004e4ed0 f   Comms.obj
 0002:0006af30       ?QueueIsFull@Comms@@IAE_NXZ 004e4f30 f   Comms.obj
 0002:0006af90       ?QueuePut@Comms@@IAE_NPAEIE@Z 004e4f90 f   Comms.obj
 0002:0006b0f0       ?QueueGet@Comms@@IAEPAEAAIAAE@Z 004e50f0 f   Comms.obj
 0002:0006b1f0       ?ResetQueue@Comms@@QAEXXZ  004e51f0 f   Comms.obj
 0002:0006b250       ??1Comms@@UAE@XZ           004e5250 f   Comms.obj
 0002:0006b330       ??0DeviceDetails@@QAE@XZ   004e5330 f   DeviceDetails.obj
 0002:0006b3a0       ??1DeviceDetails@@QAE@XZ   004e53a0 f   DeviceDetails.obj
 0002:0006b3e0       ??0CWinNetwork@@QAE@XZ     004e53e0 f   WinNetwork.obj
 0002:0006b540       ??_ECWinNetwork@@UAEPAXI@Z 004e5540 f i WinNetwork.obj
 0002:0006b540       ??_GCWinNetwork@@UAEPAXI@Z 004e5540 f i WinNetwork.obj
 0002:0006b5b0       ?update@CWinNetwork@@UAE_NXZ 004e55b0 f   WinNetwork.obj
 0002:0006c710       ?DiscoverServers@CWinNetwork@@UAE_NXZ 004e6710 f   WinNetwork.obj
 0002:0006c8b0       ?StartServer@CWinNetwork@@UAE_NXZ 004e68b0 f   WinNetwork.obj
 0002:0006cbd0       ?InitDiscover@CWinNetwork@@AAE_N_N@Z 004e6bd0 f   WinNetwork.obj
 0002:0006cf00       ?StopListening@CWinNetwork@@UAEXXZ 004e6f00 f   WinNetwork.obj
 0002:0006cfd0       ?StartClient@CWinNetwork@@UAE_NXZ 004e6fd0 f   WinNetwork.obj
 0002:0006d040       ?Connect@CWinNetwork@@UAE_NH@Z 004e7040 f   WinNetwork.obj
 0002:0006d360       ?Disconnect@CWinNetwork@@UAEXH@Z 004e7360 f   WinNetwork.obj
 0002:0006d450       ?SendData@CWinNetwork@@UAE_NPAEIE@Z 004e7450 f   WinNetwork.obj
 0002:0006d720       ?GetLocalDeviceName@CWinNetwork@@UAEPADXZ 004e7720 f   WinNetwork.obj
 0002:0006d820       ?strstr@@YAPADPADPBD@Z     004e7820 f i WinNetwork.obj
 0002:0006d880       ?SetLocalDeviceName@CWinNetwork@@UAEXPAD@Z 004e7880 f   WinNetwork.obj
 0002:0006d8f0       ?IsConnectionAvailable@CWinNetwork@@UAE_NXZ 004e78f0 f   WinNetwork.obj
 0002:0006d930       ?CleanUp@CWinNetwork@@AAEXXZ 004e7930 f   WinNetwork.obj
 0002:0006da80       ?RemoveDevice@CWinNetwork@@UAEXI@Z 004e7a80 f   WinNetwork.obj
 0002:0006db80       ??1CWinNetwork@@UAE@XZ     004e7b80 f   WinNetwork.obj
 0002:0006dc50       _adler32                   004e7c50 f   adler32.obj
 0002:0006df50       _inflate_blocks_reset      004e7f50 f   infblock.obj
 0002:0006e090       _inflate_blocks_new        004e8090 f   infblock.obj
 0002:0006e250       _inflate_blocks            004e8250 f   infblock.obj
 0002:0006fc90       _inflate_blocks_free       004e9c90 f   infblock.obj
 0002:0006fd70       _inflate_codes_new         004e9d70 f   infcodes.obj
 0002:0006fe20       _inflate_codes             004e9e20 f   infcodes.obj
 0002:00070f40       _inflate_codes_free        004eaf40 f   infcodes.obj
 0002:00070fb0       ?inflate_fast@@YAHIIPAUinflate_huft_s@@0PAUinflate_blocks_state@@PAUz_stream_s@@@Z 004eafb0 f   inffast.obj
 0002:000718b0       _inflateReset              004eb8b0 f   inflate.obj
 0002:00071970       _inflateEnd                004eb970 f   inflate.obj
 0002:00071a40       _inflateInit2_             004eba40 f   inflate.obj
 0002:00071c50       _inflateInit_              004ebc50 f   inflate.obj
 0002:00071cb0       _inflate                   004ebcb0 f   inflate.obj
 0002:00072580       _inflate_trees_bits        004ec580 f   inftrees.obj
 0002:00073300       _inflate_trees_dynamic     004ed300 f   inftrees.obj
 0002:00073590       _inflate_trees_fixed       004ed590 f   inftrees.obj
 0002:00073960       _inflate_flush             004ed960 f   infutil.obj
 0002:00073c00       _uncompress                004edc00 f   uncompr.obj
 0002:00073d80       ??0SoundManager@@QAE@XZ    004edd80 f   SoundManager.obj
 0002:00073f00       ??1SoundManager@@QAE@XZ    004edf00 f   SoundManager.obj
 0002:00074070       ??_GCSoundWrap@@QAEPAXI@Z  004ee070 f i SoundManager.obj
 0002:000740e0       ?loadCurrentSound@SoundManager@@QAE_NXZ 004ee0e0 f   SoundManager.obj
 0002:00074410       ?initialize@SoundManager@@QAEXXZ 004ee410 f   SoundManager.obj
 0002:00074470       ?destroy@SoundManager@@QAEXXZ 004ee470 f   SoundManager.obj
 0002:00074530       ?lockProcessing@SoundManager@@QAEXXZ 004ee530 f i SoundManager.obj
 0002:00074570       ?unlockProcessing@SoundManager@@QAEXXZ 004ee570 f i SoundManager.obj
 0002:000745b0       ?loadAllEffect@SoundManager@@QAEXXZ 004ee5b0 f   SoundManager.obj
 0002:000746d0       ?releaseAllEffect@SoundManager@@QAEXXZ 004ee6d0 f   SoundManager.obj
 0002:00074710       ?SampleGetTime@SoundManager@@QAEHH@Z 004ee710 f   SoundManager.obj
 0002:00074770       ?SetMasterVolume@SoundManager@@QAEXE@Z 004ee770 f   SoundManager.obj
 0002:000747e0       ?SetSfxVolume@SoundManager@@QAEXE@Z 004ee7e0 f   SoundManager.obj
 0002:00074850       ?SetMusicVolume@SoundManager@@QAEXE@Z 004ee850 f   SoundManager.obj
 0002:000748c0       ?GetMasterVolume@SoundManager@@QAEEXZ 004ee8c0 f   SoundManager.obj
 0002:00074900       ?GetSfxVolume@SoundManager@@QAEEXZ 004ee900 f   SoundManager.obj
 0002:00074940       ?GetMusicVolume@SoundManager@@QAEEXZ 004ee940 f   SoundManager.obj
 0002:00074980       ?RemoveStoppedSamples@@YAXXZ 004ee980 f   SoundManager.obj
 0002:000749b0       ?SampleStart@SoundManager@@QAEXH_N@Z 004ee9b0 f   SoundManager.obj
 0002:00074a80       ?SampleSetVolume@SoundManager@@QAEXHH@Z 004eea80 f   SoundManager.obj
 0002:00074b30       ?SampleStop@SoundManager@@QAEXHH@Z 004eeb30 f   SoundManager.obj
 0002:00074b90       ?stopAllSounds@SoundManager@@QAEX_N@Z 004eeb90 f   SoundManager.obj
 0002:00074c40       ?setMasterVolume@SoundManager@@QAEXE@Z 004eec40 f   SoundManager.obj
 0002:00074ce0       ?SampleFrequencySet@SoundManager@@QAEXHHH@Z 004eece0 f   SoundManager.obj
 0002:00074d50       ?SamplePlaying@SoundManager@@QAE_NH@Z 004eed50 f   SoundManager.obj
 0002:00074db0       ?EnterPhoneCall@SoundManager@@QAEXXZ 004eedb0 f   SoundManager.obj
 0002:00074e10       ?ExitPhoneCall@SoundManager@@QAEXXZ 004eee10 f   SoundManager.obj
 0002:00074e70       ?isPlaying@SoundManager@@QAE_NXZ 004eee70 f   SoundManager.obj
 0002:00074f00       ?suspend@SoundManager@@QAEH_N@Z 004eef00 f   SoundManager.obj
 0002:00074f70       ?resume@SoundManager@@QAEH_N@Z 004eef70 f   SoundManager.obj
 0002:00074fc0       ?isSilence@SoundManager@@QAEHXZ 004eefc0 f   SoundManager.obj
 0002:00075000       ?setVolumeSoundId@SoundManager@@QAEXHH@Z 004ef000 f   SoundManager.obj
 0002:00075070       ?update@SoundManager@@QAEXXZ 004ef070 f   SoundManager.obj
 0002:000750d0       ?setMultipleChannels@SoundManager@@QAEX_N@Z 004ef0d0 f   SoundManager.obj
 0002:00075110       ?refreshLongSongs@SoundManager@@QAEX_N@Z 004ef110 f   SoundManager.obj
 0002:00075150       ?queryDeviceVolume@SoundManager@@QAEXXZ 004ef150 f   SoundManager.obj
 0002:00075190       ?setDeviceVolume@SoundManager@@QAEXH@Z 004ef190 f   SoundManager.obj
 0002:000751d0       ?getAudio@SoundManager@@QAEXPAHH@Z 004ef1d0 f   SoundManager.obj
 0002:00075210       ?StartMixer@SoundManager@@QAEXXZ 004ef210 f   SoundManager.obj
 0002:00075250       ?StopMixer@SoundManager@@QAEXXZ 004ef250 f   SoundManager.obj
 0002:00075290       ?vibrate@SoundManager@@QAEXXZ 004ef290 f   SoundManager.obj
 0002:000752d0       ??0CSoundWrap@@QAE@XZ      004ef2d0 f   SoundWrap.obj
 0002:00075390       ??1CSoundWrap@@QAE@XZ      004ef390 f   SoundWrap.obj
 0002:00075460       ?GetSoundEngine@CSSEWinDriver@@QAEPAVCSSEMixEngine@@XZ 004ef460 f i SoundWrap.obj
 0002:000754a0       ??_GCSSEWinDriver@@QAEPAXI@Z 004ef4a0 f i SoundWrap.obj
 0002:00075510       ??1CSSEWinDriver@@QAE@XZ   004ef510 f i SoundWrap.obj
 0002:000755a0       ?Init@CSoundWrap@@QAE_NXZ  004ef5a0 f   SoundWrap.obj
 0002:000756f0       ??0CSSEWinDriver@@QAE@XZ   004ef6f0 f i SoundWrap.obj
 0002:00075750       ?Start@CSoundWrap@@QAEXXZ  004ef750 f   SoundWrap.obj
 0002:00075810       ?SoundStreamStart@CSSEWinDriver@@QAEXXZ 004ef810 f i SoundWrap.obj
 0002:00075850       ?QueueStream@CSoundWrap@@QAEXPAD@Z 004ef850 f   SoundWrap.obj
 0002:00075890       ?PlayStream@CSoundWrap@@QAEXXZ 004ef890 f   SoundWrap.obj
 0002:000758d0       ?StopStream@CSoundWrap@@QAEXXZ 004ef8d0 f   SoundWrap.obj
 0002:00075910       ?LoopStream@CSoundWrap@@QAEX_N@Z 004ef910 f   SoundWrap.obj
 0002:00075950       ?SetVolumeStream@CSoundWrap@@QAEXG@Z 004ef950 f   SoundWrap.obj
 0002:00075990       ?SetHalfSpeedStream@CSoundWrap@@QAEX_N@Z 004ef990 f   SoundWrap.obj
 0002:000759d0       ?Stop@CSoundWrap@@QAEXXZ   004ef9d0 f   SoundWrap.obj
 0002:00075a50       ?SoundStreamStop@CSSEWinDriver@@QAEXXZ 004efa50 f i SoundWrap.obj
 0002:00075a90       ?SampleGetTime@CSoundWrap@@QAEHH@Z 004efa90 f   SoundWrap.obj
 0002:00075ae0       ?Update@CSoundWrap@@QAEXXZ 004efae0 f   SoundWrap.obj
 0002:00075c20       ?SoundStreamIsReallyStarted@CSSEWinDriver@@QAEHXZ 004efc20 f i SoundWrap.obj
 0002:00075c60       ?SoundStreamIsStarted@CSSEWinDriver@@QAEHXZ 004efc60 f i SoundWrap.obj
 0002:00075ca0       ?Suspend@CSoundWrap@@QAEXXZ 004efca0 f   SoundWrap.obj
 0002:00075d10       ?Resume@CSoundWrap@@QAEXXZ 004efd10 f   SoundWrap.obj
 0002:00075dd0       ?EnterPhoneCall@CSoundWrap@@QAEXXZ 004efdd0 f   SoundWrap.obj
 0002:00075e50       ?ExitPhoneCall@CSoundWrap@@QAEXXZ 004efe50 f   SoundWrap.obj
 0002:00075ee0       ?SetMuteWhenInCall@CSoundWrap@@QAEX_N@Z 004efee0 f   SoundWrap.obj
 0002:00075f90       ?SetMasterVolume@CSoundWrap@@QAEXE@Z 004eff90 f   SoundWrap.obj
 0002:00076000       ?SetSfxVolume@CSoundWrap@@QAEXE@Z 004f0000 f   SoundWrap.obj
 0002:00076040       ?SetMusicVolume@CSoundWrap@@QAEXE@Z 004f0040 f   SoundWrap.obj
 0002:00076080       ?SampleLoad@CSoundWrap@@QAEXHPADH@Z 004f0080 f   SoundWrap.obj
 0002:00076100       ?SampleFree@CSoundWrap@@QAEXH@Z 004f0100 f   SoundWrap.obj
 0002:00076170       ?SampleStart@CSoundWrap@@QAEXH_N@Z 004f0170 f   SoundWrap.obj
 0002:00076270       ?SampleStartFade@CSoundWrap@@QAEXHEEH_N@Z 004f0270 f   SoundWrap.obj
 0002:000762b0       ?SampleStop@CSoundWrap@@QAEXH@Z 004f02b0 f   SoundWrap.obj
 0002:00076360       ?SampleStopFade@CSoundWrap@@QAEXHEH@Z 004f0360 f   SoundWrap.obj
 0002:000763a0       ?SampleSetVolume@CSoundWrap@@QAEXHEH@Z 004f03a0 f   SoundWrap.obj
 0002:00076430       ?SampleFrequencySet@CSoundWrap@@QAEXHHH@Z 004f0430 f   SoundWrap.obj
 0002:000764d0       ?SamplePlaying@CSoundWrap@@QAE_NH@Z 004f04d0 f   SoundWrap.obj
 0002:00076580       ?MusicStart@CSoundWrap@@QAEX_N@Z 004f0580 f   SoundWrap.obj
 0002:000765c0       ?MusicStop@CSoundWrap@@QAEXXZ 004f05c0 f   SoundWrap.obj
 0002:00076600       ?MusicLoadXM@CSoundWrap@@QAEXPBD@Z 004f0600 f   SoundWrap.obj
 0002:00076640       ?MusicLoadXTI@CSoundWrap@@QAEXPBD@Z 004f0640 f   SoundWrap.obj
 0002:00076680       ?MusicLoadXTM@CSoundWrap@@QAEXPBD@Z 004f0680 f   SoundWrap.obj
 0002:000766c0       ?MusicFreeXTI@CSoundWrap@@QAEXXZ 004f06c0 f   SoundWrap.obj
 0002:00076700       ?MusicFreeXTM@CSoundWrap@@QAEXXZ 004f0700 f   SoundWrap.obj
 0002:00076740       ?MusicFreeXM@CSoundWrap@@QAEXXZ 004f0740 f   SoundWrap.obj
 0002:00076780       ??0CTouchZones@@QAE@XZ     004f0780 f   TouchZones.obj
 0002:00076910       ??_GCTouchZones@@UAEPAXI@Z 004f0910 f i TouchZones.obj
 0002:00076910       ??_ECTouchZones@@UAEPAXI@Z 004f0910 f i TouchZones.obj
 0002:00076980       ?AddZone@CTouchZones@@QAEFEFFFF@Z 004f0980 f   TouchZones.obj
 0002:00076ae0       ?AddZoneWithMoveDetect@CTouchZones@@QAEFEFFFF@Z 004f0ae0 f   TouchZones.obj
 0002:00076b90       ?ClearZones@CTouchZones@@QAEXXZ 004f0b90 f   TouchZones.obj
 0002:00076bd0       ?ClearZone@CTouchZones@@QAEXH@Z 004f0bd0 f   TouchZones.obj
 0002:00076cc0       ?SetListener@CTouchZones@@QAEXPAVITouchZonesListener@@@Z 004f0cc0 f   TouchZones.obj
 0002:00076d10       ?WasZoneActivated@CTouchZones@@QAE_NE@Z 004f0d10 f   TouchZones.obj
 0002:00076d60       ?IsZonePressed@CTouchZones@@QAE_NE@Z 004f0d60 f   TouchZones.obj
 0002:00076e10       ?IsZoneReleased@CTouchZones@@QAE_NE@Z 004f0e10 f   TouchZones.obj
 0002:00076ec0       ?ClearLastZoneActivated@CTouchZones@@QAEXXZ 004f0ec0 f   TouchZones.obj
 0002:00076f10       ?IsZoneIntersected@CTouchZones@@AAE_NEFF@Z 004f0f10 f   TouchZones.obj
 0002:00076ff0       ?GetNextIntersectedZone@CTouchZones@@AAEFFFF@Z 004f0ff0 f   TouchZones.obj
 0002:00077120       ?TouchPressed@CTouchZones@@QAEXEFF@Z 004f1120 f   TouchZones.obj
 0002:000771e0       ?TouchMoved@CTouchZones@@QAEXEFF@Z 004f11e0 f   TouchZones.obj
 0002:000772a0       ?TouchReleased@CTouchZones@@QAEXEFF@Z 004f12a0 f   TouchZones.obj
 0002:00077360       ?Update@CTouchZones@@QAEXXZ 004f1360 f   TouchZones.obj
 0002:000779f0       ?ForceReleaseZones@CTouchZones@@QAEX_N@Z 004f19f0 f   TouchZones.obj
 0002:00077b10       ?DrawZones@CTouchZones@@QAEXAAVCLib2D@@@Z 004f1b10 f   TouchZones.obj
 0002:00077db0       ??1CTouchZones@@UAE@XZ     004f1db0 f   TouchZones.obj
 0002:00077ef0       ?setCheatName@CTouchZones@@SAXXZ 004f1ef0 f   TouchZones.obj
 0002:00077f60       ?updateCheatZones@CTouchZones@@QAEXXZ 004f1f60 f   TouchZones.obj
 0002:00078180       ?checkCheatZones@CTouchZones@@QAEX_N@Z 004f2180 f   TouchZones.obj
 0002:00078220       ?drawActivatedCheat@CTouchZones@@QAEXXZ 004f2220 f   TouchZones.obj
 0002:00078270       ??0?$CSingleton@$09VCTouchZones@@@@QAE@XZ 004f2270 f i TouchZones.obj
 0002:000782d0       ??1?$CSingleton@$09VCTouchZones@@@@UAE@XZ 004f22d0 f i TouchZones.obj
 0002:00078330       ??1?$CSingletonNoAutoConstruct@$09VCTouchZones@@@@UAE@XZ 004f2330 f i TouchZones.obj
 0002:00078390       ??_E?$CSingleton@$09VCTouchZones@@@@UAEPAXI@Z 004f2390 f i TouchZones.obj
 0002:00078390       ??_G?$CSingleton@$09VCTouchZones@@@@UAEPAXI@Z 004f2390 f i TouchZones.obj
 0002:00078400       ??_G?$CSingletonNoAutoConstruct@$09VCTouchZones@@@@UAEPAXI@Z 004f2400 f i TouchZones.obj
 0002:00078400       ??_E?$CSingletonNoAutoConstruct@$09VCTouchZones@@@@UAEPAXI@Z 004f2400 f i TouchZones.obj
 0002:00078470       ??0?$CSingletonNoAutoConstruct@$09VCTouchZones@@@@QAE@XZ 004f2470 f i TouchZones.obj
 0002:00078530       ??0Lib3DGL@@QAE@XZ         004f2530 f   Lib3DGL.obj
 0002:000785c0       ??1Lib3DGL@@QAE@XZ         004f25c0 f   Lib3DGL.obj
 0002:00078600       ?fillRect@Lib3DGL@@QAEXHHHHI@Z 004f2600 f   Lib3DGL.obj
 0002:00078970       ?fillRectImmediateMode@Lib3DGL@@QAEXHHHHI@Z 004f2970 f   Lib3DGL.obj
 0002:00078d80       ?drawLine@Lib3DGL@@QAEXHHHHI@Z 004f2d80 f   Lib3DGL.obj
 0002:00078fe0       ?fillArc@Lib3DGL@@QAEXHHHHHI@Z 004f2fe0 f   Lib3DGL.obj
 0002:00079470       ?drawArc@Lib3DGL@@QAEXHHHHHI@Z 004f3470 f   Lib3DGL.obj
 0002:00079810       ?setClip@Lib3DGL@@QAEXHHHH@Z 004f3810 f   Lib3DGL.obj
 0002:00079970       ?clearClip@Lib3DGL@@QAEXXZ 004f3970 f   Lib3DGL.obj
 0002:00079a60       ?paint2DModule@Lib3DGL@@QAEXHHHHIQBMHHHH@Z 004f3a60 f   Lib3DGL.obj
 0002:0007a550       ?paint2DModuleImmediateMode@Lib3DGL@@QAEXHHHHIQBMH@Z 004f4550 f   Lib3DGL.obj
 0002:0007abd0       ?Begin2DRendering@Lib3DGL@@QAEXXZ 004f4bd0 f   Lib3DGL.obj
 0002:0007adb0       ?End2DRendering@Lib3DGL@@QAEXXZ 004f4db0 f   Lib3DGL.obj
 0002:0007ae80       ?Flush2D@Lib3DGL@@QAEXXZ   004f4e80 f   Lib3DGL.obj
 0002:0007b8f0       ?Init3D@Lib3DGL@@QAEXXZ    004f58f0 f   Lib3DGL.obj
 0002:0007bbd0       ?Clean3D@Lib3DGL@@QAEXXZ   004f5bd0 f   Lib3DGL.obj
 0002:0007be20       ?GLEnableFog@Lib3DGL@@QAEXIMMMMMMM@Z 004f5e20 f   Lib3DGL.obj
 0002:0007bf70       ?GLDisableFog@Lib3DGL@@QAEXXZ 004f5f70 f   Lib3DGL.obj
 0002:0007bfd0       ?CreateGLTexture@Lib3DGL@@SAXAAIIIPBEIII_N@Z 004f5fd0 f   Lib3DGL.obj
 0002:0007c160       ?ReleaseGLTexture@Lib3DGL@@SAXI@Z 004f6160 f   Lib3DGL.obj
 0002:0007c200       ?GLScissor@Lib3DGL@@QAEXHHHH@Z 004f6200 f   Lib3DGL.obj
 0002:0007c290       ?Decode565To8888@Lib3DGL@@SAXPAEAAH1PBGHH_NPBE@Z 004f6290 f   Lib3DGL.obj
 0002:0007c650       ?DecodeP888To8888@Lib3DGL@@SAXPAEAAH1PBEHH2H@Z 004f6650 f   Lib3DGL.obj
 0002:0007c900       ?Decode8888To8888@Lib3DGL@@SAXPAEAAH1PBEHH@Z 004f6900 f   Lib3DGL.obj
 0002:0007caa0       ?Decode888To8888@Lib3DGL@@SAXPAEAAH1PBEHH_N@Z 004f6aa0 f   Lib3DGL.obj
 0002:0007ccf0       ?DecodeP888To5551@Lib3DGL@@SAXPAEAAH1PBEHH2H@Z 004f6cf0 f   Lib3DGL.obj
 0002:0007cec0       ?DecodeP888ToLUMINANCE@Lib3DGL@@SAXPAEAAH1PBEHH2@Z 004f6ec0 f   Lib3DGL.obj
 0002:0007d060       ?DecodeP888To565@Lib3DGL@@SAXPAEAAH1PBEHH2@Z 004f7060 f   Lib3DGL.obj
 0002:0007d210       ?GetPow2Size@Lib3DGL@@SAXAAH0HH@Z 004f7210 f   Lib3DGL.obj
 0002:0007d290       ??0CSSESample@@QAE@XZ      004f7290 f   SSEMixEngine.obj
 0002:0007d2e0       ??1CSSESample@@QAE@XZ      004f72e0 f   SSEMixEngine.obj
 0002:0007d340       ?InitSSEFromMem@CSSESample@@QAEEPAX@Z 004f7340 f   SSEMixEngine.obj
 0002:0007d420       ?InitWAVFromMem@CSSESample@@QAEEPAX@Z 004f7420 f   SSEMixEngine.obj
 0002:0007d5a0       ?InitRAWFromMem@CSSESample@@QAEEPAXII_N@Z 004f75a0 f   SSEMixEngine.obj
 0002:0007d6f0       ??0CSSEMixEngine@@QAE@I@Z  004f76f0 f   SSEMixEngine.obj
 0002:0007d8f0       ??_ECSSESample@@QAEPAXI@Z  004f78f0 f i SSEMixEngine.obj
 0002:0007d9b0       ??1CSSEMixEngine@@QAE@XZ   004f79b0 f   SSEMixEngine.obj
 0002:0007da50       ?SetMasterVolume@CSSEMixEngine@@QAEXG@Z 004f7a50 f   SSEMixEngine.obj
 0002:0007daa0       ?Mix@CSSEMixEngine@@QAEXPAXI@Z 004f7aa0 f   SSEMixEngine.obj
 0002:0007df50       ?NewSampleFromMemSSE@CSSEMixEngine@@QAEEIPAX@Z 004f7f50 f   SSEMixEngine.obj
 0002:0007dfc0       ?NewSampleFromMemWAV@CSSEMixEngine@@QAEEHPAX@Z 004f7fc0 f   SSEMixEngine.obj
 0002:0007e030       ?NewSampleFromMemRAW@CSSEMixEngine@@QAEEIPAXII_N@Z 004f8030 f   SSEMixEngine.obj
 0002:0007e0b0       ?DeleteSample@CSSEMixEngine@@QAEXI@Z 004f80b0 f   SSEMixEngine.obj
 0002:0007e160       ?DeleteAllSamples@CSSEMixEngine@@QAEXXZ 004f8160 f   SSEMixEngine.obj
 0002:0007e200       ?PlaySample@CSSEMixEngine@@QAEIIGIEE@Z 004f8200 f   SSEMixEngine.obj
 0002:0007e3a0       ?StopAllVoices@CSSEMixEngine@@QAEXXZ 004f83a0 f   SSEMixEngine.obj
 0002:0007e410       ?StopVoice@CSSEMixEngine@@QAEXI@Z 004f8410 f   SSEMixEngine.obj
 0002:0007e4b0       ?IsVoicePlaying@CSSEMixEngine@@QAEII@Z 004f84b0 f   SSEMixEngine.obj
 0002:0007e530       ?SetVoiceVolume@CSSEMixEngine@@QAEXIGG@Z 004f8530 f   SSEMixEngine.obj
 0002:0007e5e0       ?SetVoicePitch@CSSEMixEngine@@QAEXIIG@Z 004f85e0 f   SSEMixEngine.obj
 0002:0007e690       ?SetStream@CSSEMixEngine@@QAEXPAVCSSEStreamPCM@@I@Z 004f8690 f   SSEMixEngine.obj
 0002:0007e730       ?Init@CSSEStreamPCM@@QAEXPAXP6APAX0PAD@ZP6AH000H@ZP6AX00@Z4H@Z 004f8730 f   SSEStream.obj
 0002:0007e7f0       ?DeInit@CSSEStreamPCM@@QAEXXZ 004f87f0 f   SSEStream.obj
 0002:0007e860       ?Open@CSSEStreamPCM@@QAEHPAD_N@Z 004f8860 f   SSEStream.obj
 0002:0007e950       ?Close@CSSEStreamPCM@@QAEXXZ 004f8950 f   SSEStream.obj
 0002:0007e9e0       ?ReadData@CSSEStreamPCM@@QAEHH@Z 004f89e0 f   SSEStream.obj
 0002:0007eb30       ?SoundStreamInit@CSSEWinDriver@@QAEPAVCSSEMixEngine@@HPAX@Z 004f8b30 f   SSEWinDriver.obj
 0002:0007f180       ?SoundStreamDeInit@CSSEWinDriver@@QAEXXZ 004f9180 f   SSEWinDriver.obj
 0002:0007f340       ?ThreadUpdate@CSSEWinDriver@@CGKPAX@Z 004f9340 f   SSEWinDriver.obj
 0002:0007f5e0       ?SoundStreamSetReallyStarted@CSSEWinDriver@@QAEXXZ 004f95e0 f i SSEWinDriver.obj
 0002:0007f630       ?SoundStreamSuspend@CSSEWinDriver@@QAEXXZ 004f9630 f   SSEWinDriver.obj
 0002:0007f6d0       ?SoundStreamResume@CSSEWinDriver@@QAEXXZ 004f96d0 f   SSEWinDriver.obj
 0002:0007f770       ??0CWinWave@@QAE@XZ        004f9770 f   WAVWin.obj
 0002:0007f7d0       ?InitFromMemory@CWinWave@@QAEXPAXH@Z 004f97d0 f   WAVWin.obj
 0002:0007f8e0       ?Play@CWinWave@@QAEHH@Z    004f98e0 f   WAVWin.obj
 0002:0007fb10       ?WaveOutProc@@YGXPAUHWAVEOUT__@@IKKK@Z 004f9b10 f   WAVWin.obj
 0002:0007fb9e       _WSAStartup@8              004f9b9e f   Ws2_32:WS2_32.dll
 0002:0007fba4       _sendto@24                 004f9ba4 f   Ws2_32:WS2_32.dll
 0002:0007fbaa       _recvfrom@24               004f9baa f   Ws2_32:WS2_32.dll
 0002:0007fbb0       _recv@16                   004f9bb0 f   Ws2_32:WS2_32.dll
 0002:0007fbb6       _accept@12                 004f9bb6 f   Ws2_32:WS2_32.dll
 0002:0007fbbc       ___WSAFDIsSet@8            004f9bbc f   Ws2_32:WS2_32.dll
 0002:0007fbc2       _WSAGetLastError@0         004f9bc2 f   Ws2_32:WS2_32.dll
 0002:0007fbc8       _select@20                 004f9bc8 f   Ws2_32:WS2_32.dll
 0002:0007fbce       _htonl@4                   004f9bce f   Ws2_32:WS2_32.dll
 0002:0007fbd4       _htons@4                   004f9bd4 f   Ws2_32:WS2_32.dll
 0002:0007fbda       _listen@8                  004f9bda f   Ws2_32:WS2_32.dll
 0002:0007fbe0       _bind@12                   004f9be0 f   Ws2_32:WS2_32.dll
 0002:0007fbe6       _freeaddrinfo@4            004f9be6 f   Ws2_32:WS2_32.dll
 0002:0007fbec       _socket@12                 004f9bec f   Ws2_32:WS2_32.dll
 0002:0007fbf2       _getaddrinfo@16            004f9bf2 f   Ws2_32:WS2_32.dll
 0002:0007fbf8       _setsockopt@20             004f9bf8 f   Ws2_32:WS2_32.dll
 0002:0007fbfe       _closesocket@4             004f9bfe f   Ws2_32:WS2_32.dll
 0002:0007fc04       _send@16                   004f9c04 f   Ws2_32:WS2_32.dll
 0002:0007fc0a       _connect@12                004f9c0a f   Ws2_32:WS2_32.dll
 0002:0007fc10       _gethostname@8             004f9c10 f   Ws2_32:WS2_32.dll
 0002:0007fc16       _WSACleanup@0              004f9c16 f   Ws2_32:WS2_32.dll
 0002:0007fc1c       _waveOutRestart@4          004f9c1c f   Winmm:WINMM.dll
 0002:0007fc22       _waveOutWrite@12           004f9c22 f   Winmm:WINMM.dll
 0002:0007fc28       _waveOutPrepareHeader@12   004f9c28 f   Winmm:WINMM.dll
 0002:0007fc2e       _waveOutPause@4            004f9c2e f   Winmm:WINMM.dll
 0002:0007fc34       _waveOutOpen@24            004f9c34 f   Winmm:WINMM.dll
 0002:0007fc3a       _waveOutGetNumDevs@0       004f9c3a f   Winmm:WINMM.dll
 0002:0007fc40       _waveOutClose@4            004f9c40 f   Winmm:WINMM.dll
 0002:0007fc46       _waveOutUnprepareHeader@12 004f9c46 f   Winmm:WINMM.dll
 0002:0007fc4c       _waveOutReset@4            004f9c4c f   Winmm:WINMM.dll
 0002:0007fc52       _waveOutSetVolume@8        004f9c52 f   Winmm:WINMM.dll
 0002:0007fc58       _glViewport@16             004f9c58 f   opengl32:OPENGL32.dll
 0002:0007fc5e       _glHint@8                  004f9c5e f   opengl32:OPENGL32.dll
 0002:0007fc64       _glDepthFunc@4             004f9c64 f   opengl32:OPENGL32.dll
 0002:0007fc6a       _glEnable@4                004f9c6a f   opengl32:OPENGL32.dll
 0002:0007fc70       _glClearDepth@8            004f9c70 f   opengl32:OPENGL32.dll
 0002:0007fc76       _glClearColor@16           004f9c76 f   opengl32:OPENGL32.dll
 0002:0007fc7c       _glShadeModel@4            004f9c7c f   opengl32:OPENGL32.dll
 0002:0007fc82       _wglMakeCurrent@8          004f9c82 f   opengl32:OPENGL32.dll
 0002:0007fc88       _wglCreateContext@4        004f9c88 f   opengl32:OPENGL32.dll
 0002:0007fc8e       _wglDeleteContext@4        004f9c8e f   opengl32:OPENGL32.dll
 0002:0007fc94       _glClear@4                 004f9c94 f   opengl32:OPENGL32.dll
 0002:0007fc9a       _glDepthMask@4             004f9c9a f   opengl32:OPENGL32.dll
 0002:0007fca0       _glColor4ub@16             004f9ca0 f   opengl32:OPENGL32.dll
 0002:0007fca6       _glPopMatrix@0             004f9ca6 f   opengl32:OPENGL32.dll
 0002:0007fcac       _glDrawElements@16         004f9cac f   opengl32:OPENGL32.dll
 0002:0007fcb2       _glTexEnvi@12              004f9cb2 f   opengl32:OPENGL32.dll
 0002:0007fcb8       _glBindTexture@8           004f9cb8 f   opengl32:OPENGL32.dll
 0002:0007fcbe       _glLoadMatrixf@4           004f9cbe f   opengl32:OPENGL32.dll
 0002:0007fcc4       _glPushMatrix@0            004f9cc4 f   opengl32:OPENGL32.dll
 0002:0007fcca       _glMatrixMode@4            004f9cca f   opengl32:OPENGL32.dll
 0002:0007fcd0       _glNormalPointer@12        004f9cd0 f   opengl32:OPENGL32.dll
 0002:0007fcd6       _glDisableClientState@4    004f9cd6 f   opengl32:OPENGL32.dll
 0002:0007fcdc       _glColorPointer@16         004f9cdc f   opengl32:OPENGL32.dll
 0002:0007fce2       _glTexCoordPointer@16      004f9ce2 f   opengl32:OPENGL32.dll
 0002:0007fce8       _glVertexPointer@16        004f9ce8 f   opengl32:OPENGL32.dll
 0002:0007fcee       _glEnableClientState@4     004f9cee f   opengl32:OPENGL32.dll
 0002:0007fcf4       _glCullFace@4              004f9cf4 f   opengl32:OPENGL32.dll
 0002:0007fcfa       _glBlendFunc@8             004f9cfa f   opengl32:OPENGL32.dll
 0002:0007fd00       _glDisable@4               004f9d00 f   opengl32:OPENGL32.dll
 0002:0007fd06       _glRotatef@16              004f9d06 f   opengl32:OPENGL32.dll
 0002:0007fd0c       _glTranslatef@12           004f9d0c f   opengl32:OPENGL32.dll
 0002:0007fd12       _glLoadIdentity@0          004f9d12 f   opengl32:OPENGL32.dll
 0002:0007fd18       _glTexEnvfv@12             004f9d18 f   opengl32:OPENGL32.dll
 0002:0007fd1e       _glMultMatrixf@4           004f9d1e f   opengl32:OPENGL32.dll
 0002:0007fd24       _glColorMask@16            004f9d24 f   opengl32:OPENGL32.dll
 0002:0007fd2a       _glPolygonOffset@8         004f9d2a f   opengl32:OPENGL32.dll
 0002:0007fd30       _glFrustum@48              004f9d30 f   opengl32:OPENGL32.dll
 0002:0007fd36       _glTexParameteri@12        004f9d36 f   opengl32:OPENGL32.dll
 0002:0007fd3c       _glScalef@12               004f9d3c f   opengl32:OPENGL32.dll
 0002:0007fd42       _glOrtho@48                004f9d42 f   opengl32:OPENGL32.dll
 0002:0007fd48       _glTexImage2D@36           004f9d48 f   opengl32:OPENGL32.dll
 0002:0007fd4e       _glGenTextures@8           004f9d4e f   opengl32:OPENGL32.dll
 0002:0007fd54       _glGetIntegerv@8           004f9d54 f   opengl32:OPENGL32.dll
 0002:0007fd5a       _glDeleteTextures@8        004f9d5a f   opengl32:OPENGL32.dll
 0002:0007fd60       _wglGetProcAddress@4       004f9d60 f   opengl32:OPENGL32.dll
 0002:0007fd66       _glGetString@4             004f9d66 f   opengl32:OPENGL32.dll
 0002:0007fd6c       _glFogfv@8                 004f9d6c f   opengl32:OPENGL32.dll
 0002:0007fd72       _glFogf@8                  004f9d72 f   opengl32:OPENGL32.dll
 0002:0007fd78       _glPixelStorei@8           004f9d78 f   opengl32:OPENGL32.dll
 0002:0007fd7e       _glScissor@16              004f9d7e f   opengl32:OPENGL32.dll
 0002:0007fd90       ?PVRTLoadPartialTextureFromPointer@@YAIQBX0IQAIPBX@Z 004f9d90 f   OGLESTools:PVRTTextureAPI.obj
 0002:000802e0       ?PVRTLoadTextureFromPointer@@YAIPBXQAI0@Z 004fa2e0 f   OGLESTools:PVRTTextureAPI.obj
 0002:00080310       ?PVRTLoadPartialTextureFromPVR@@YAIQBD0IQAIPBX@Z 004fa310 f   OGLESTools:PVRTTextureAPI.obj
 0002:000803e0       ?PVRTLoadTextureFromPVR@@YAIQBDQAIPBX@Z 004fa3e0 f   OGLESTools:PVRTTextureAPI.obj
 0002:00080410       ?PVRTReleaseTexture@@YAXI@Z 004fa410 f   OGLESTools:PVRTTextureAPI.obj
 0002:00080430       ?PVRTTextureFormatBPP@@YAIII@Z 004fa430 f   OGLESTools:PVRTTextureAPI.obj
 0002:000804b0       ?PVRTTextureTile@@YAXPAPAUPVR_Header_Texture_TAG@@QBU1@H@Z 004fa4b0 f   OGLESTools:PVRTTextureAPI.obj
 0002:00080730       ?PVRTLoadDecompressedPartialTextureFromPointer@@YAIPBXIPAI0@Z 004fa730 f   OGLESTools:PVRTTextureAPI.obj
 0002:00080900       ?PVRTLoadDecompressedPartialTextureFromPVR@@YAIQBDIPAIPBX@Z 004fa900 f   OGLESTools:PVRTTextureAPI.obj
 0002:000809d0       ?PVRTLoadDecompressedTextureFromPVR@@YAIQBDQAIPBX@Z 004fa9d0 f   OGLESTools:PVRTTextureAPI.obj
 0002:000809f0       ?PVRTLoadDecompressedTextureFromPointer@@YAIPBXPAI0@Z 004fa9f0 f   OGLESTools:PVRTTextureAPI.obj
 0002:00080a10       ?util_number_is_power_2@@YAHI@Z 004faa10 f   OGLESTools:PVRTDecompress.obj
 0002:000817e0       ?modifyPixel@@YAKHHHHHKH@Z 004fb7e0 f   OGLESTools:PVRTDecompress.obj
 0002:00081900       ?ETCTextureDecompress@@YAHQBXABH1PBX1@Z 004fb900 f   OGLESTools:PVRTDecompress.obj
 0002:00081d10       ?ETCDecompress@@YAHQBXABI1PAXABH@Z 004fbd10 f   OGLESTools:PVRTDecompress.obj
 0002:00081ea0       ?PVRTCDecompress@@YAXPBXHHHPAE@Z 004fbea0 f   OGLESTools:PVRTDecompress.obj
 0002:00081ed0       ?Init@CPVRTglesExt@@QAEXXZ 004fbed0 f   OGLESTools:PVRTglesExt.obj
 0002:00082150       ?IsGLExtensionSupported@CPVRTglesExt@@SA_NPBD@Z 004fc150 f   OGLESTools:PVRTglesExt.obj
 0002:000821f0       ?SetReadPath@CPVRTResourceFile@@SAXPBD@Z 004fc1f0 f   OGLESTools:PVRTResourceFile.obj
 0002:00082210       ?GetReadPath@CPVRTResourceFile@@SA?AVstring@PVRT@@XZ 004fc210 f   OGLESTools:PVRTResourceFile.obj
 0002:000822b0       ?IsOpen@CPVRTResourceFile@@QBE_NXZ 004fc2b0 f   OGLESTools:PVRTResourceFile.obj
 0002:000822c0       ?IsMemoryFile@CPVRTResourceFile@@QBE_NXZ 004fc2c0 f   OGLESTools:PVRTResourceFile.obj
 0002:000822d0       ?Size@CPVRTResourceFile@@QBEIXZ 004fc2d0 f   OGLESTools:PVRTResourceFile.obj
 0002:000822e0       ?DataPtr@CPVRTResourceFile@@QBEPBXXZ 004fc2e0 f   OGLESTools:PVRTResourceFile.obj
 0002:000822f0       ?StringPtr@CPVRTResourceFile@@QBEPBDXZ 004fc2f0 f   OGLESTools:PVRTResourceFile.obj
 0002:00082300       ?Close@CPVRTResourceFile@@QAEXXZ 004fc300 f   OGLESTools:PVRTResourceFile.obj
 0002:00082340       ??1CAtExit@CPVRTMemoryFileSystem@@QAE@XZ 004fc340 f   OGLESTools:PVRTResourceFile.obj
 0002:000823b0       ?RegisterMemoryFile@CPVRTMemoryFileSystem@@SAXPBDPBXI_N@Z 004fc3b0 f   OGLESTools:PVRTResourceFile.obj
 0002:00082540       ?GetFile@CPVRTMemoryFileSystem@@SA_NPBDPAPBXPAI@Z 004fc540 f   OGLESTools:PVRTResourceFile.obj
 0002:00082610       ?GetNumFiles@CPVRTMemoryFileSystem@@SAHXZ 004fc610 f   OGLESTools:PVRTResourceFile.obj
 0002:00082620       ?GetFilename@CPVRTMemoryFileSystem@@SAPBDH@Z 004fc620 f   OGLESTools:PVRTResourceFile.obj
 0002:00082650       ??0CPVRTResourceFile@@QAE@PBD@Z 004fc650 f   OGLESTools:PVRTResourceFile.obj
 0002:000827d0       ??1CPVRTResourceFile@@UAE@XZ 004fc7d0 f   OGLESTools:PVRTResourceFile.obj
 0002:00082810       ??0CPVRTMemoryFileSystem@@QAE@PBDPBXI_N@Z 004fc810 f   OGLESTools:PVRTResourceFile.obj
 0002:00082840       ??_GCPVRTResourceFile@@UAEPAXI@Z 004fc840 f i OGLESTools:PVRTResourceFile.obj
 0002:00082840       ??_ECPVRTResourceFile@@UAEPAXI@Z 004fc840 f i OGLESTools:PVRTResourceFile.obj
 0002:000828a0       ?PVRTTextureLoadTiled@@YAXQAEIIQBEIII_N@Z 004fc8a0 f   OGLESTools:PVRTTexture.obj
 0002:000829b0       ?PVRTTextureCreate@@YAPAUPVR_Header_Texture_TAG@@IIIII_N@Z 004fc9b0 f   OGLESTools:PVRTTexture.obj
 0002:00082a20       ??0string@PVRT@@QAE@XZ     004fca20 f   OGLESTools:PVRTString.obj
 0002:00082a60       ??1string@PVRT@@UAE@XZ     004fca60 f   OGLESTools:PVRTString.obj
 0002:00082a80       ?append@string@PVRT@@QAEAAV12@PBDI@Z 004fca80 f   OGLESTools:PVRTString.obj
 0002:00082b20       ?append@string@PVRT@@QAEAAV12@ABV12@@Z 004fcb20 f   OGLESTools:PVRTString.obj
 0002:00082b40       ?append@string@PVRT@@QAEAAV12@ABV12@II@Z 004fcb40 f   OGLESTools:PVRTString.obj
 0002:00082b60       ?append@string@PVRT@@QAEAAV12@DI@Z 004fcb60 f   OGLESTools:PVRTString.obj
 0002:00082c00       ?assign@string@PVRT@@QAEAAV12@PBDI@Z 004fcc00 f   OGLESTools:PVRTString.obj
 0002:00082c70       ?assign@string@PVRT@@QAEAAV12@ABV12@@Z 004fcc70 f   OGLESTools:PVRTString.obj
 0002:00082c90       ?assign@string@PVRT@@QAEAAV12@ABV12@II@Z 004fcc90 f   OGLESTools:PVRTString.obj
 0002:00082cc0       ?assign@string@PVRT@@QAEAAV12@DI@Z 004fccc0 f   OGLESTools:PVRTString.obj
 0002:00082d40       ?c_str@string@PVRT@@QBEPBDXZ 004fcd40 f   OGLESTools:PVRTString.obj
 0002:00082d50       ?capacity@string@PVRT@@QBEIXZ 004fcd50 f   OGLESTools:PVRTString.obj
 0002:00082d60       ?clear@string@PVRT@@QAEXXZ 004fcd60 f   OGLESTools:PVRTString.obj
 0002:00082da0       ?compare@string@PVRT@@QBEHABV12@@Z 004fcda0 f   OGLESTools:PVRTString.obj
 0002:00082e00       ?compare@string@PVRT@@QBEHIIABV12@@Z 004fce00 f   OGLESTools:PVRTString.obj
 0002:00082f00       ?compare@string@PVRT@@QBEHIIABV12@II@Z 004fcf00 f   OGLESTools:PVRTString.obj
 0002:00083030       ?compare@string@PVRT@@QBEHPBD@Z 004fd030 f   OGLESTools:PVRTString.obj
 0002:00083090       ?compare@string@PVRT@@QBEHIIPBD@Z 004fd090 f   OGLESTools:PVRTString.obj
 0002:00083190       ?compare@string@PVRT@@QBEHIIPBDI@Z 004fd190 f   OGLESTools:PVRTString.obj
 0002:000832d0       ??8string@PVRT@@QBE_NABV01@@Z 004fd2d0 f   OGLESTools:PVRTString.obj
 0002:00083340       ??8string@PVRT@@QBE_NQBD@Z 004fd340 f   OGLESTools:PVRTString.obj
 0002:000833b0       ?copy@string@PVRT@@QBEIPADII@Z 004fd3b0 f   OGLESTools:PVRTString.obj
 0002:00083400       ?data@string@PVRT@@QBEPBDXZ 004fd400 f   OGLESTools:PVRTString.obj
 0002:00083410       ?empty@string@PVRT@@QBE_NXZ 004fd410 f   OGLESTools:PVRTString.obj
 0002:00083420       ?find_first_not_of@string@PVRT@@QBEIDI@Z 004fd420 f   OGLESTools:PVRTString.obj
 0002:00083450       ?find_first_not_of@string@PVRT@@QBEIPBDI@Z 004fd450 f   OGLESTools:PVRTString.obj
 0002:000834c0       ?find_first_not_of@string@PVRT@@QBEIPBDII@Z 004fd4c0 f   OGLESTools:PVRTString.obj
 0002:00083520       ?find_first_of@string@PVRT@@QBEIDI@Z 004fd520 f   OGLESTools:PVRTString.obj
 0002:00083550       ?find_first_of@string@PVRT@@QBEIPBDI@Z 004fd550 f   OGLESTools:PVRTString.obj
 0002:000835b0       ?find_first_of@string@PVRT@@QBEIPBDII@Z 004fd5b0 f   OGLESTools:PVRTString.obj
 0002:00083600       ?find_last_not_of@string@PVRT@@QBEIDI@Z 004fd600 f   OGLESTools:PVRTString.obj
 0002:00083640       ?find_last_not_of@string@PVRT@@QBEIPBDI@Z 004fd640 f   OGLESTools:PVRTString.obj
 0002:000836c0       ?find_last_not_of@string@PVRT@@QBEIPBDII@Z 004fd6c0 f   OGLESTools:PVRTString.obj
 0002:00083730       ?find_last_of@string@PVRT@@QBEIDI@Z 004fd730 f   OGLESTools:PVRTString.obj
 0002:00083770       ?find_last_of@string@PVRT@@QBEIPBDI@Z 004fd770 f   OGLESTools:PVRTString.obj
 0002:000837e0       ?find_last_of@string@PVRT@@QBEIPBDII@Z 004fd7e0 f   OGLESTools:PVRTString.obj
 0002:00083840       ?length@string@PVRT@@QBEIXZ 004fd840 f   OGLESTools:PVRTString.obj
 0002:00083850       ?max_size@string@PVRT@@QBEIXZ 004fd850 f   OGLESTools:PVRTString.obj
 0002:00083860       ?push_back@string@PVRT@@QAEXD@Z 004fd860 f   OGLESTools:PVRTString.obj
 0002:00083880       ?reserve@string@PVRT@@QAEXI@Z 004fd880 f   OGLESTools:PVRTString.obj
 0002:000838c0       ?resize@string@PVRT@@QAEXID@Z 004fd8c0 f   OGLESTools:PVRTString.obj
 0002:00083900       ?size@string@PVRT@@QBEIXZ  004fd900 f   OGLESTools:PVRTString.obj
 0002:00083910       ?swap@string@PVRT@@QAEXAAV12@@Z 004fd910 f   OGLESTools:PVRTString.obj
 0002:00083950       ??Ystring@PVRT@@QAEAAV01@D@Z 004fd950 f   OGLESTools:PVRTString.obj
 0002:00083970       ??Ystring@PVRT@@QAEAAV01@ABV01@@Z 004fd970 f   OGLESTools:PVRTString.obj
 0002:00083990       ??4string@PVRT@@QAEAAV01@D@Z 004fd990 f   OGLESTools:PVRTString.obj
 0002:000839b0       ??4string@PVRT@@QAEAAV01@ABV01@@Z 004fd9b0 f   OGLESTools:PVRTString.obj
 0002:000839d0       ??Astring@PVRT@@QBEABDI@Z  004fd9d0 f   OGLESTools:PVRTString.obj
 0002:000839e0       ??Astring@PVRT@@QAEAADI@Z  004fd9e0 f   OGLESTools:PVRTString.obj
 0002:000839f0       ??_Estring@PVRT@@UAEPAXI@Z 004fd9f0 f i OGLESTools:PVRTString.obj
 0002:000839f0       ??_Gstring@PVRT@@UAEPAXI@Z 004fd9f0 f i OGLESTools:PVRTString.obj
 0002:00083a30       ??0string@PVRT@@QAE@ABV01@II@Z 004fda30 f   OGLESTools:PVRTString.obj
 0002:00083a80       ??0string@PVRT@@QAE@ID@Z   004fda80 f   OGLESTools:PVRTString.obj
 0002:00083ac0       ??0string@PVRT@@QAE@D@Z    004fdac0 f   OGLESTools:PVRTString.obj
 0002:00083af0       ?append@string@PVRT@@QAEAAV12@PBD@Z 004fdaf0 f   OGLESTools:PVRTString.obj
 0002:00083b20       ?assign@string@PVRT@@QAEAAV12@PBD@Z 004fdb20 f   OGLESTools:PVRTString.obj
 0002:00083b50       ?erase@string@PVRT@@QAEAAV12@II@Z 004fdb50 f   OGLESTools:PVRTString.obj
 0002:00083bd0       ?find_first_not_of@string@PVRT@@QBEIABV12@I@Z 004fdbd0 f   OGLESTools:PVRTString.obj
 0002:00083c40       ?find_first_of@string@PVRT@@QBEIABV12@I@Z 004fdc40 f   OGLESTools:PVRTString.obj
 0002:00083c90       ?find_last_not_of@string@PVRT@@QBEIABV12@I@Z 004fdc90 f   OGLESTools:PVRTString.obj
 0002:00083d10       ?find_last_of@string@PVRT@@QBEIABV12@I@Z 004fdd10 f   OGLESTools:PVRTString.obj
 0002:00083d70       ?substr@string@PVRT@@QBE?AV12@II@Z 004fdd70 f   OGLESTools:PVRTString.obj
 0002:00083e00       ??Ystring@PVRT@@QAEAAV01@PBD@Z 004fde00 f   OGLESTools:PVRTString.obj
 0002:00083e30       ??4string@PVRT@@QAEAAV01@PBD@Z 004fde30 f   OGLESTools:PVRTString.obj
 0002:00083e60       ??HPVRT@@YA?AVstring@0@ABV10@0@Z 004fde60 f   OGLESTools:PVRTString.obj
 0002:00083f10       ??HPVRT@@YA?AVstring@0@ABV10@PBD@Z 004fdf10 f   OGLESTools:PVRTString.obj
 0002:00083fd0       ??HPVRT@@YA?AVstring@0@ABV10@D@Z 004fdfd0 f   OGLESTools:PVRTString.obj
 0002:000840b0       ??HPVRT@@YA?AVstring@0@DABV10@@Z 004fe0b0 f   OGLESTools:PVRTString.obj
 0002:00084150       ?GetContainingDirectoryPath@PVRT@@YA?AVstring@1@ABV21@@Z 004fe150 f   OGLESTools:PVRTString.obj
 0002:00084250       ?GetFileName@PVRT@@YA?AVstring@1@ABV21@@Z 004fe250 f   OGLESTools:PVRTString.obj
 0002:00084350       ?StripWhiteSpaceFromStartOf@PVRT@@YA?AVstring@1@ABV21@@Z 004fe350 f   OGLESTools:PVRTString.obj
 0002:00084410       ??0string@PVRT@@QAE@PBDI@Z 004fe410 f   OGLESTools:PVRTString.obj
 0002:00084490       ??HPVRT@@YA?AVstring@0@PBDABV10@@Z 004fe490 f   OGLESTools:PVRTString.obj
 0002:00084540       ?getFileExtension@PVRT@@YA?AVstring@1@ABV21@@Z 004fe540 f   OGLESTools:PVRTString.obj
 0002:00084640       ?PVRTMiscCalculateIntersectionLinePlane@@YAXQAUPVRTVECTOR3f@@QBMQBU1@2@Z 004fe640 f   OGLESTools:PVRTMisc.obj
 0002:000846f0       ?PVRTMiscCalculateInfinitePlane@@YAHQAMHQBUPVRTVECTOR4f@@QBVPVRTMATRIXf@@QBUPVRTVECTOR3f@@M@Z 004fe6f0 f   OGLESTools:PVRTMisc.obj
 0002:00084970       ?SetVertex@@YAXPAPAMHMMM@Z 004fe970 f   OGLESTools:PVRTMisc.obj
 0002:000849b0       ?SetUV@@YAXPAPAMHMM@Z      004fe9b0 f   OGLESTools:PVRTMisc.obj
 0002:000849e0       ?PVRTCreateSkybox@@YAXM_NHPAPAM1@Z 004fe9e0 f   OGLESTools:PVRTMisc.obj
 0002:00084f20       ?PVRTDestroySkybox@@YAXPAM0@Z 004fef20 f   OGLESTools:PVRTMisc.obj
 0002:00084f40       ?PVRTMiscTwiddle@@YAXAAIII@Z 004fef40 f   OGLESTools:PVRTMisc.obj
 0002:00084fa0       ?PVRTMiscDeTwiddle@@YAXAAI0I@Z 004fefa0 f   OGLESTools:PVRTMisc.obj
 0002:0008501a       _OutputDebugStringA@4      004ff01a f   kernel32:KERNEL32.dll
 0002:00085020       _Sleep@4                   004ff020 f   kernel32:KERNEL32.dll
 0002:00085026       _GetTickCount@0            004ff026 f   kernel32:KERNEL32.dll
 0002:0008502c       _ResumeThread@4            004ff02c f   kernel32:KERNEL32.dll
 0002:00085032       _SetThreadPriority@8       004ff032 f   kernel32:KERNEL32.dll
 0002:00085038       _CloseHandle@4             004ff038 f   kernel32:KERNEL32.dll
 0002:0008503e       _CreateEventA@16           004ff03e f   kernel32:KERNEL32.dll
 0002:00085044       _CreateThread@24           004ff044 f   kernel32:KERNEL32.dll
 0002:0008504a       _InitializeCriticalSection@4 004ff04a f   kernel32:KERNEL32.dll
 0002:00085050       _DeleteCriticalSection@4   004ff050 f   kernel32:KERNEL32.dll
 0002:00085056       _WaitForSingleObject@8     004ff056 f   kernel32:KERNEL32.dll
 0002:0008505c       _SetEvent@4                004ff05c f   kernel32:KERNEL32.dll
 0002:00085062       _SuspendThread@4           004ff062 f   kernel32:KERNEL32.dll
 0002:00085068       _SetWindowPos@28           004ff068 f   user32:USER32.dll
 0002:0008506e       _GetClientRect@8           004ff06e f   user32:USER32.dll
 0002:00085074       _GetWindowRect@8           004ff074 f   user32:USER32.dll
 0002:0008507a       _InvalidateRect@12         004ff07a f   user32:USER32.dll
 0002:00085080       _ReleaseDC@8               004ff080 f   user32:USER32.dll
 0002:00085086       _DispatchMessageA@4        004ff086 f   user32:USER32.dll
 0002:0008508c       _TranslateMessage@4        004ff08c f   user32:USER32.dll
 0002:00085092       _PeekMessageA@20           004ff092 f   user32:USER32.dll
 0002:00085098       _ShowWindow@8              004ff098 f   user32:USER32.dll
 0002:0008509e       _DestroyWindow@4           004ff09e f   user32:USER32.dll
 0002:000850a4       _CreateWindowExA@48        004ff0a4 f   user32:USER32.dll
 0002:000850aa       _GetDesktopWindow@0        004ff0aa f   user32:USER32.dll
 0002:000850b0       _RegisterClassA@4          004ff0b0 f   user32:USER32.dll
 0002:000850b6       _LoadCursorA@8             004ff0b6 f   user32:USER32.dll
 0002:000850bc       _DefWindowProcA@16         004ff0bc f   user32:USER32.dll
 0002:000850c2       _GetDC@4                   004ff0c2 f   user32:USER32.dll
 0002:000850c8       _SwapBuffers@4             004ff0c8 f   gdi32:GDI32.dll
 0002:000850ce       _SetPixelFormat@12         004ff0ce f   gdi32:GDI32.dll
 0002:000850d4       _ChoosePixelFormat@8       004ff0d4 f   gdi32:GDI32.dll
 0002:000850e0       __vsprintf_l               004ff0e0 f   LIBCMTD:vsprintf.obj
 0002:000852b0       _vsprintf                  004ff2b0 f   LIBCMTD:vsprintf.obj
 0002:000852e0       __vscprintf_helper         004ff2e0 f   LIBCMTD:vsprintf.obj
 0002:000853d0       __vscprintf                004ff3d0 f   LIBCMTD:vsprintf.obj
 0002:00085400       __vscprintf_l              004ff400 f   LIBCMTD:vsprintf.obj
 0002:00085430       __vscprintf_p              004ff430 f   LIBCMTD:vsprintf.obj
 0002:00085460       __vscprintf_p_l            004ff460 f   LIBCMTD:vsprintf.obj
 0002:00085490       __RTC_CheckEsp             004ff490 f   LIBCMTD:_stack_.obj
 0002:000854c0       @_RTC_CheckStackVars@8     004ff4c0 f   LIBCMTD:_stack_.obj
 0002:00085540       @_RTC_AllocaHelper@12      004ff540 f   LIBCMTD:_stack_.obj
 0002:00085580       @_RTC_CheckStackVars2@12   004ff580 f   LIBCMTD:_stack_.obj
 0002:00085690       __RTC_InitBase             004ff690 f   LIBCMTD:_init_.obj
 0002:000856d0       __RTC_Shutdown             004ff6d0 f   LIBCMTD:_init_.obj
 0002:000856f0       _sprintf                   004ff6f0 f   LIBCMTD:sprintf.obj
 0002:000858d0       __sprintf_l                004ff8d0 f   LIBCMTD:sprintf.obj
 0002:00085910       _sprintf_s                 004ff910 f   LIBCMTD:sprintf.obj
 0002:00085950       __sprintf_s_l              004ff950 f   LIBCMTD:sprintf.obj
 0002:00085990       __snprintf_s               004ff990 f   LIBCMTD:sprintf.obj
 0002:000859d0       __snprintf_s_l             004ff9d0 f   LIBCMTD:sprintf.obj
 0002:00085a10       __sprintf_p                004ffa10 f   LIBCMTD:sprintf.obj
 0002:00085a50       __sprintf_p_l              004ffa50 f   LIBCMTD:sprintf.obj
 0002:00085a90       __scprintf                 004ffa90 f   LIBCMTD:sprintf.obj
 0002:00085ac0       __scprintf_p               004ffac0 f   LIBCMTD:sprintf.obj
 0002:00085af0       __scprintf_l               004ffaf0 f   LIBCMTD:sprintf.obj
 0002:00085b20       __scprintf_p_l             004ffb20 f   LIBCMTD:sprintf.obj
 0002:00085b50       @__security_check_cookie@4 004ffb50 f   LIBCMTD:secchk.obj
 0002:00085b70       ??3@YAXPAX@Z               004ffb70 f   LIBCMTD:dbgdel.obj
 0002:00085c90       ??2@YAPAXI@Z               004ffc90 f   LIBCMTD:new.obj
 0002:00085d30       ??0bad_alloc@std@@QAE@XZ   004ffd30 f i LIBCMTD:new.obj
 0002:00085d70       ?_JumpToContinuation@@YGXPAXPAUEHRegistrationNode@@@Z 004ffd70 f   LIBCMTD:_trnsctrl_.obj
 0002:00085dc0       ?_CallMemberFunction0@@YGXPAX0@Z 004ffdc0 f   LIBCMTD:_trnsctrl_.obj
 0002:00085dd0       ?_CallMemberFunction1@@YGXPAX00@Z 004ffdd0 f   LIBCMTD:_trnsctrl_.obj
 0002:00085de0       ?_CallMemberFunction2@@YGXPAX00H@Z 004ffde0 f   LIBCMTD:_trnsctrl_.obj
 0002:00085df0       ?_UnwindNestedFrames@@YGXPAUEHRegistrationNode@@PAUEHExceptionRecord@@@Z 004ffdf0 f   LIBCMTD:_trnsctrl_.obj
 0002:00085e60       ___CxxFrameHandler         004ffe60 f   LIBCMTD:_trnsctrl_.obj
 0002:00085eb0       ___CxxFrameHandler3        004ffeb0 f   LIBCMTD:_trnsctrl_.obj
 0002:00085f00       ___CxxFrameHandler2        004fff00 f   LIBCMTD:_trnsctrl_.obj
 0002:00085f50       ___CxxLongjmpUnwind@4      004fff50 f   LIBCMTD:_trnsctrl_.obj
 0002:00085f90       ?_CallCatchBlock2@@YAPAXPAUEHRegistrationNode@@PBU_s_FuncInfo@@PAXHK@Z 004fff90 f   LIBCMTD:_trnsctrl_.obj
 0002:00086080       ?_CallSETranslator@@YAHPAUEHExceptionRecord@@PAUEHRegistrationNode@@PAX2PBU_s_FuncInfo@@H1@Z 00500080 f   LIBCMTD:_trnsctrl_.obj
 0002:00086290       ?_GetRangeOfTrysToCheck@@YAPBU_s_TryBlockMapEntry@@PBU_s_FuncInfo@@HHPAI1@Z 00500290 f   LIBCMTD:_trnsctrl_.obj
 0002:00086330       __CreateFrameInfo          00500330 f   LIBCMTD:_trnsctrl_.obj
 0002:00086370       __IsExceptionObjectToBeDestroyed 00500370 f   LIBCMTD:_trnsctrl_.obj
 0002:000863b0       __FindAndUnlinkFrame       005003b0 f   LIBCMTD:_trnsctrl_.obj
 0002:00086420       _strcpy                    00500420 f   LIBCMTD:strcat.obj
 0002:00086430       _strcat                    00500430 f   LIBCMTD:strcat.obj
 0002:00086560       __wassert                  00500560 f   LIBCMTD:wassert.obj
 0002:000873d0       __invoke_watson_if_error   005013d0 f i LIBCMTD:wassert.obj
 0002:00087460       _strlen                    00501460 f   LIBCMTD:strlen.obj
 0002:00087510       __CxxThrowException@8      00501510 f   LIBCMTD:throw.obj
 0002:00087580       ?name@type_info@@QBEPBDPAU__type_info_node@@@Z 00501580 f   LIBCMTD:typinfo.obj
 0002:000875b0       ??1type_info@@UAE@XZ       005015b0 f   LIBCMTD:typinfo.obj
 0002:000875e0       ??_Gtype_info@@UAEPAXI@Z   005015e0 f i LIBCMTD:typinfo.obj
 0002:000875e0       ??_Etype_info@@UAEPAXI@Z   005015e0 f i LIBCMTD:typinfo.obj
 0002:00087620       ?_name_internal_method@type_info@@QBEPBDPAU__type_info_node@@@Z 00501620 f   LIBCMTD:typinfo.obj
 0002:00087650       ?_type_info_dtor_internal_method@type_info@@QAEXXZ 00501650 f   LIBCMTD:typinfo.obj
 0002:00087670       ??8type_info@@QBE_NABV0@@Z 00501670 f   LIBCMTD:typinfo.obj
 0002:000876b0       ??9type_info@@QBE_NABV0@@Z 005016b0 f   LIBCMTD:typinfo.obj
 0002:000876f0       ?before@type_info@@QBEHABV1@@Z 005016f0 f   LIBCMTD:typinfo.obj
 0002:00087730       ?raw_name@type_info@@QBEPBDXZ 00501730 f   LIBCMTD:typinfo.obj
 0002:00087750       ??0type_info@@AAE@ABV0@@Z  00501750 f   LIBCMTD:typinfo.obj
 0002:00087780       ??4type_info@@AAEAAV0@ABV0@@Z 00501780 f   LIBCMTD:typinfo.obj
 0002:000877a0       ??0exception@std@@QAE@XZ   005017a0 f   LIBCMTD:stdexcpt.obj
 0002:000877e0       ??_Eexception@std@@UAEPAXI@Z 005017e0 f i LIBCMTD:stdexcpt.obj
 0002:000877e0       ??_Gexception@std@@UAEPAXI@Z 005017e0 f i LIBCMTD:stdexcpt.obj
 0002:00087820       ??0exception@std@@QAE@ABQBD@Z 00501820 f   LIBCMTD:stdexcpt.obj
 0002:000878d0       ??0exception@std@@QAE@ABQBDH@Z 005018d0 f   LIBCMTD:stdexcpt.obj
 0002:00087910       ??0exception@std@@QAE@ABV01@@Z 00501910 f   LIBCMTD:stdexcpt.obj
 0002:000879e0       ??4exception@std@@QAEAAV01@ABV01@@Z 005019e0 f   LIBCMTD:stdexcpt.obj
 0002:00087ab0       ??1exception@std@@UAE@XZ   00501ab0 f   LIBCMTD:stdexcpt.obj
 0002:00087af0       ?what@exception@std@@UBEPBDXZ 00501af0 f   LIBCMTD:stdexcpt.obj
 0002:00087b20       ??0bad_cast@std@@QAE@PBD@Z 00501b20 f   LIBCMTD:stdexcpt.obj
 0002:00087b50       ??_Ebad_cast@std@@UAEPAXI@Z 00501b50 f i LIBCMTD:stdexcpt.obj
 0002:00087b50       ??_Gbad_cast@std@@UAEPAXI@Z 00501b50 f i LIBCMTD:stdexcpt.obj
 0002:00087b90       ??0bad_cast@std@@QAE@ABV01@@Z 00501b90 f   LIBCMTD:stdexcpt.obj
 0002:00087bc0       ??1bad_cast@std@@UAE@XZ    00501bc0 f   LIBCMTD:stdexcpt.obj
 0002:00087bf0       ??0bad_typeid@std@@QAE@PBD@Z 00501bf0 f   LIBCMTD:stdexcpt.obj
 0002:00087c20       ??_Ebad_typeid@std@@UAEPAXI@Z 00501c20 f i LIBCMTD:stdexcpt.obj
 0002:00087c20       ??_Gbad_typeid@std@@UAEPAXI@Z 00501c20 f i LIBCMTD:stdexcpt.obj
 0002:00087c60       ??0bad_typeid@std@@QAE@ABV01@@Z 00501c60 f   LIBCMTD:stdexcpt.obj
 0002:00087c90       ??1bad_typeid@std@@UAE@XZ  00501c90 f   LIBCMTD:stdexcpt.obj
 0002:00087cc0       ??0__non_rtti_object@std@@QAE@PBD@Z 00501cc0 f   LIBCMTD:stdexcpt.obj
 0002:00087cf0       ??_G__non_rtti_object@std@@UAEPAXI@Z 00501cf0 f i LIBCMTD:stdexcpt.obj
 0002:00087cf0       ??_E__non_rtti_object@std@@UAEPAXI@Z 00501cf0 f i LIBCMTD:stdexcpt.obj
 0002:00087d30       ??0__non_rtti_object@std@@QAE@ABV01@@Z 00501d30 f   LIBCMTD:stdexcpt.obj
 0002:00087d60       ??1__non_rtti_object@std@@UAE@XZ 00501d60 f   LIBCMTD:stdexcpt.obj
 0002:00087d90       _free                      00501d90 f   LIBCMTD:dbgfree.obj
 0002:00087db0       _DebuggerKnownHandle       00501db0 f   LIBCMTD:_error_.obj
 0002:00087e90       ?_RTC_Failure@@YAXPAXH@Z   00501e90 f   LIBCMTD:_error_.obj
 0002:00088260       ?_RTC_StackFailure@@YAXPAXPBD@Z 00502260 f   LIBCMTD:_error_.obj
 0002:000883a0       ?_RTC_AllocaFailure@@YAXPAXPAU_RTC_ALLOCA_NODE@@H@Z 005023a0 f   LIBCMTD:_error_.obj
 0002:000885b0       __RTC_UninitUse            005025b0 f   LIBCMTD:_error_.obj
 0002:000886e0       __toupper                  005026e0 f   LIBCMTD:toupper.obj
 0002:000886f0       __toupper_l                005026f0 f   LIBCMTD:toupper.obj
 0002:00088940       ??0_LocaleUpdate@@QAE@PAUlocaleinfo_struct@@@Z 00502940 f i LIBCMTD:toupper.obj
 0002:00088a50       ??1_LocaleUpdate@@QAE@XZ   00502a50 f i LIBCMTD:toupper.obj
 0002:00088a90       ?GetLocaleT@_LocaleUpdate@@QAEPAUlocaleinfo_struct@@XZ 00502a90 f i LIBCMTD:toupper.obj
 0002:00088ab0       _toupper                   00502ab0 f   LIBCMTD:toupper.obj
 0002:00088b10       __tolower                  00502b10 f   LIBCMTD:tolower.obj
 0002:00088b20       __tolower_l                00502b20 f   LIBCMTD:tolower.obj
 0002:00088d70       _tolower                   00502d70 f   LIBCMTD:tolower.obj
 0002:00088dd0       _memcpy                    00502dd0 f   LIBCMTD:memcpy.obj
 0002:00089210       __fpmath                   00503210 f   LIBCMTD:_fpinit_.obj
 0002:00089240       __fpclear                  00503240 f   LIBCMTD:_fpinit_.obj
 0002:00089250       __cfltcvt_init             00503250 f   LIBCMTD:_fpinit_.obj
 0002:000892e0       ___setfflag                005032e0 f   LIBCMTD:_fpinit_.obj
 0002:00089310       _memcmp                    00503310 f   LIBCMTD:memcmp.obj
 0002:0008a030       _memchr                    00504030 f   LIBCMTD:memchr.obj
 0002:0008a110       __initp_misc_invarg        00504110 f   LIBCMTD:invarg.obj
 0002:0008a130       __invalid_parameter        00504130 f   LIBCMTD:invarg.obj
 0002:0008a1c0       __invoke_watson            005041c0 f   LIBCMTD:invarg.obj
 0002:0008a360       __set_invalid_parameter_handler 00504360 f   LIBCMTD:invarg.obj
 0002:0008a3c0       __get_invalid_parameter_handler 005043c0 f   LIBCMTD:invarg.obj
 0002:0008a400       ?_invalid_parameter@@YAXPBG00II@Z 00504400 f   LIBCMTD:invarg.obj
 0002:0008a430       ?_invoke_watson@@YAXPBG00II@Z 00504430 f   LIBCMTD:invarg.obj
 0002:0008a460       __CrtSetReportHookW2       00504460 f   LIBCMTD:dbgrptw.obj
 0002:0008a850       __CrtDbgReportW            00504850 f   LIBCMTD:dbgrptw.obj
 0002:0008a8a0       __CrtDbgReportWV           005048a0 f i LIBCMTD:dbgrptw.obj
 0002:0008a8d0       ___crtMessageWindowW       005048d0 f   LIBCMTD:dbgrptw.obj
 0002:0008add0       __invoke_watson_if_oneof   00504dd0 f i LIBCMTD:dbgrptw.obj
 0002:0008ae30       ?_CrtDbgReportW@@YAHHPBGH00ZZ 00504e30 f   LIBCMTD:dbgrptw.obj
 0002:0008ae80       _memcpy_s                  00504e80 f   LIBCMTD:memcpy_s.obj
 0002:0008b070       _memmove_s                 00505070 f   LIBCMTD:memmove_s.obj
 0002:0008b220       __ftol2_sse                00505220 f   LIBCMTD:ftol2.obj
 0002:0008b229       __ftol2_pentium4           00505229 f   LIBCMTD:ftol2.obj
 0002:0008b23c       __ftol2_sse_excpt          0050523c f   LIBCMTD:ftol2.obj
 0002:0008b256       __ftol2                    00505256 f   LIBCMTD:ftol2.obj
 0002:0008b300       ??_V@YAXPAX@Z              00505300 f   LIBCMTD:delete2.obj
 0002:0008b320       _sscanf                    00505320 f   LIBCMTD:sscanf.obj
 0002:0008b4f0       __sscanf_l                 005054f0 f   LIBCMTD:sscanf.obj
 0002:0008b530       _sscanf_s                  00505530 f   LIBCMTD:sscanf.obj
 0002:0008b570       __sscanf_s_l               00505570 f   LIBCMTD:sscanf.obj
 0002:0008b5b0       _fclose                    005055b0 f   LIBCMTD:fclose.obj
 0002:0008b700       __fclose_nolock            00505700 f   LIBCMTD:fclose.obj
 0002:0008b840       _fflush                    00505840 f   LIBCMTD:fflush.obj
 0002:0008b900       __fflush_nolock            00505900 f   LIBCMTD:fflush.obj
 0002:0008b970       __flush                    00505970 f   LIBCMTD:fflush.obj
 0002:0008ba60       __flushall                 00505a60 f   LIBCMTD:fflush.obj
 0002:0008bc90       _fprintf                   00505c90 f   LIBCMTD:fprintf.obj
 0002:0008bfe0       __fprintf_l                00505fe0 f   LIBCMTD:fprintf.obj
 0002:0008c020       __fprintf_s_l              00506020 f   LIBCMTD:fprintf.obj
 0002:0008c060       _fprintf_s                 00506060 f   LIBCMTD:fprintf.obj
 0002:0008c090       __fprintf_p_l              00506090 f   LIBCMTD:fprintf.obj
 0002:0008c0d0       __fprintf_p                005060d0 f   LIBCMTD:fprintf.obj
 0002:0008c100       _vfprintf_helper           00506100 f   LIBCMTD:vfprintf.obj
 0002:0008c440       __vfprintf_l               00506440 f   LIBCMTD:vfprintf.obj
 0002:0008c470       __vfprintf_s_l             00506470 f   LIBCMTD:vfprintf.obj
 0002:0008c4a0       __vfprintf_p_l             005064a0 f   LIBCMTD:vfprintf.obj
 0002:0008c4d0       _vfprintf                  005064d0 f   LIBCMTD:vfprintf.obj
 0002:0008c500       _vfprintf_s                00506500 f   LIBCMTD:vfprintf.obj
 0002:0008c530       __vfprintf_p               00506530 f   LIBCMTD:vfprintf.obj
 0002:0008c560       __fsopen                   00506560 f   LIBCMTD:fopen.obj
 0002:0008c7f0       _fopen                     005067f0 f   LIBCMTD:fopen.obj
 0002:0008c810       _fopen_s                   00506810 f   LIBCMTD:fopen.obj
 0002:0008c8e0       __onexit                   005068e0 f   LIBCMTD:onexit.obj
 0002:0008cb30       _atexit                    00506b30 f   LIBCMTD:onexit.obj
 0002:0008cb60       ___onexitinit              00506b60 f   LIBCMTD:onexit.obj
 0002:0008cbd0       _qsort                     00506bd0 f   LIBCMTD:qsort.obj
 0002:0008d2f0       ??_U@YAPAXI@Z              005072f0 f   LIBCMTD:new2.obj
 0002:0008d320       __purecall                 00507320 f   LIBCMTD:purevirt.obj
 0002:0008d370       __set_purecall_handler     00507370 f   LIBCMTD:purevirt.obj
 0002:0008d3c0       __get_purecall_handler     005073c0 f   LIBCMTD:purevirt.obj
 0002:0008d3e0       _fabs                      005073e0 f   LIBCMTD:_fabs_.obj
 0002:0008d520       __CIsqrt                   00507520 f   LIBCMTD:_sqrt_.obj
 0002:0008d534       _sqrt                      00507534     LIBCMTD:_sqrt_.obj
 0002:0008d610       ??_M@YGXPAXIHP6EX0@Z@Z     00507610 f   LIBCMTD:ehvecdtr.obj
 0002:0008d6f0       ?__ArrayUnwind@@YGXPAXIHP6EX0@Z@Z 005076f0 f   LIBCMTD:ehvecdtr.obj
 0002:0008d7e0       ??_L@YGXPAXIHP6EX0@Z1@Z    005077e0 f   LIBCMTD:ehvecctr.obj
 0002:0008d8c0       _memset                    005078c0 f   LIBCMTD:memset.obj
 0002:0008d960       _malloc                    00507960 f   LIBCMTD:dbgmalloc.obj
 0002:0008d9a0       _realloc                   005079a0 f   LIBCMTD:dbgrealloc.obj
 0002:0008d9d0       _atan2                     005079d0 f   LIBCMTD:_87ctriga_.obj
 0002:0008d9da       __CIatan2                  005079da f   LIBCMTD:_87ctriga_.obj
 0002:0008d9f0       _cos                       005079f0 f   LIBCMTD:_cos_.obj
 0002:0008da30       __CIcos                    00507a30 f   LIBCMTD:_cos_.obj
 0002:0008da6b       __CIcos_default            00507a6b f   LIBCMTD:_cos_.obj
 0002:0008da7f       __cos_default              00507a7f     LIBCMTD:_cos_.obj
 0002:0008db70       _sin                       00507b70 f   LIBCMTD:_sin_.obj
 0002:0008dbb0       __CIsin                    00507bb0 f   LIBCMTD:_sin_.obj
 0002:0008dbeb       __CIsin_default            00507beb f   LIBCMTD:_sin_.obj
 0002:0008dbff       __sin_default              00507bff     LIBCMTD:_sin_.obj
 0002:0008dcf0       _fwrite                    00507cf0 f   LIBCMTD:fwrite.obj
 0002:0008de40       __fwrite_nolock            00507e40 f   LIBCMTD:fwrite.obj
 0002:0008e300       _strcmp                    00508300 f   LIBCMTD:strcmp.obj
 0002:0008e3b0       _strstr                    005083b0 f   LIBCMTD:strstr.obj
 0002:0008e460       _remove                    00508460 f   LIBCMTD:unlink.obj
 0002:0008e4c0       __unlink                   005084c0 f   LIBCMTD:unlink.obj
 0002:0008e4e0       _fread_s                   005084e0 f   LIBCMTD:fread.obj
 0002:0008e660       __fread_nolock_s           00508660 f   LIBCMTD:fread.obj
 0002:0008edb0       _fread                     00508db0 f   LIBCMTD:fread.obj
 0002:0008ede0       __fread_nolock             00508de0 f   LIBCMTD:fread.obj
 0002:0008ee10       _ftell                     00508e10 f   LIBCMTD:ftell.obj
 0002:0008ef30       __ftell_nolock             00508f30 f   LIBCMTD:ftell.obj
 0002:0008f2b0       _fseek                     005092b0 f   LIBCMTD:fseek.obj
 0002:0008f480       __fseek_nolock             00509480 f   LIBCMTD:fseek.obj
 0002:0008f5a0       _atol                      005095a0 f   LIBCMTD:atox.obj
 0002:0008f5c0       __atol_l                   005095c0 f   LIBCMTD:atox.obj
 0002:0008f5f0       _atoi                      005095f0 f   LIBCMTD:atox.obj
 0002:0008f610       __atoi_l                   00509610 f   LIBCMTD:atox.obj
 0002:0008f630       __atoi64                   00509630 f   LIBCMTD:atox.obj
 0002:0008f650       __atoi64_l                 00509650 f   LIBCMTD:atox.obj
 0002:0008f680       _WinMainCRTStartup         00509680 f   LIBCMTD:wincrt0.obj
 0002:0008f9c4       __global_unwind2           005099c4 f   LIBCMTD:exsup.obj
 0002:0008fa29       __local_unwind2            00509a29 f   LIBCMTD:exsup.obj
 0002:0008faad       __abnormal_termination     00509aad f   LIBCMTD:exsup.obj
 0002:0008fad0       __NLG_Notify1              00509ad0 f   LIBCMTD:exsup.obj
 0002:0008fad9       __NLG_Notify               00509ad9 f   LIBCMTD:exsup.obj
 0002:0008faf0       __NLG_Dispatch2            00509af0     LIBCMTD:exsup.obj
 0002:0008faf0       __NLG_Dispatch             00509af0     LIBCMTD:exsup.obj
 0002:0008faf8       __NLG_Call                 00509af8 f   LIBCMTD:exsup.obj
 0002:0008fafa       __NLG_Return2              00509afa     LIBCMTD:exsup.obj
 0002:0008fb50       __assert                   00509b50 f   LIBCMTD:assert.obj
 0002:000908f0       _strchr                    0050a8f0 f   LIBCMTD:strchr.obj
 0002:000908f6       ___from_strstr_to_strchr   0050a8f6     LIBCMTD:strchr.obj
 0002:000909f0       _calloc                    0050a9f0 f   LIBCMTD:dbgcalloc.obj
 0002:00090a20       _memmove                   0050aa20 f   LIBCMTD:memmove.obj
 0002:00090e60       __flsbuf                   0050ae60 f   LIBCMTD:_flsbuf.obj
 0002:000911d0       __output_l                 0050b1d0 f   LIBCMTD:output.obj
 0002:00092b10       _get_int_arg               0050cb10 f i LIBCMTD:output.obj
 0002:00092b40       _get_int64_arg             0050cb40 f i LIBCMTD:output.obj
 0002:00092b70       _get_short_arg             0050cb70 f i LIBCMTD:output.obj
 0002:00092ba0       __dosmaperr                0050cba0 f   LIBCMTD:dosmap.obj
 0002:00092be0       __get_errno_from_oserr     0050cbe0 f   LIBCMTD:dosmap.obj
 0002:00092c80       __set_errno                0050cc80 f   LIBCMTD:dosmap.obj
 0002:00092cc0       __get_errno                0050ccc0 f   LIBCMTD:dosmap.obj
 0002:00092d60       __set_doserrno             0050cd60 f   LIBCMTD:dosmap.obj
 0002:00092da0       __get_doserrno             0050cda0 f   LIBCMTD:dosmap.obj
 0002:00092e40       __errno                    0050ce40 f   LIBCMTD:dosmap.obj
 0002:00092e70       ___doserrno                0050ce70 f   LIBCMTD:dosmap.obj
 0002:00092ea0       __validate_param_reuseA    0050cea0 f   LIBCMTD:outputp.obj
 0002:000931b0       __output_p_l               0050d1b0 f   LIBCMTD:outputp.obj
 0002:00097c70       _get_crtdouble_arg         00511c70 f i LIBCMTD:outputp.obj
 0002:00097ca0       __RTC_NumErrors            00511ca0 f   LIBCMTD:_userapi_.obj
 0002:00097cb0       __RTC_GetErrDesc           00511cb0 f   LIBCMTD:_userapi_.obj
 0002:00097cd0       __RTC_SetErrorType         00511cd0 f   LIBCMTD:_userapi_.obj
 0002:00097d00       __RTC_SetErrorFunc         00511d00 f   LIBCMTD:_userapi_.obj
 0002:00097d30       __RTC_SetErrorFuncW        00511d30 f   LIBCMTD:_userapi_.obj
 0002:00097d60       ?_RTC_GetErrorFunc@@YAP6AHHPBDH00ZZPBX@Z 00511d60 f   LIBCMTD:_userapi_.obj
 0002:00097d70       ?_RTC_GetErrorFuncW@@YAP6AHHPB_WH00ZZPBX@Z 00511d70 f   LIBCMTD:_userapi_.obj
 0002:00097d80       __chkesp                   00511d80 f   LIBCMTD:chkesp.obj
 0002:00097dd0       __CRT_RTC_INIT             00511dd0 f   LIBCMTD:chkesp.obj
 0002:00097de0       __CRT_RTC_INITW            00511de0 f   LIBCMTD:chkesp.obj
 0002:00097df0       __vsnprintf_helper         00511df0 f   LIBCMTD:vsnprnc.obj
 0002:00098030       __vsnprintf_c              00512030 f   LIBCMTD:vsnprnc.obj
 0002:00098090       __vsnprintf_c_l            00512090 f   LIBCMTD:vsnprnc.obj
 0002:000980f0       __vsprintf_s_l             005120f0 f   LIBCMTD:vsnprnc.obj
 0002:000983f0       _vsprintf_s                005123f0 f   LIBCMTD:vsnprnc.obj
 0002:00098420       __vsnprintf_s_l            00512420 f   LIBCMTD:vsnprnc.obj
 0002:000988a0       __vsnprintf_s              005128a0 f   LIBCMTD:vsnprnc.obj
 0002:000988d0       __vsprintf_p               005128d0 f   LIBCMTD:vsnprnc.obj
 0002:00098930       __vsprintf_p_l             00512930 f   LIBCMTD:vsnprnc.obj
 0002:00098990       ___report_gsfailure        00512990 f   LIBCMTD:gs_report.obj
 0002:00098af0       __mtinitlocks              00512af0 f   LIBCMTD:mlock.obj
 0002:00098ba0       __mtdeletelocks            00512ba0 f   LIBCMTD:mlock.obj
 0002:00098c90       __mtinitlocknum            00512c90 f   LIBCMTD:mlock.obj
 0002:00098e30       __lock                     00512e30 f   LIBCMTD:mlock.obj
 0002:00098e80       __unlock                   00512e80 f   LIBCMTD:mlock.obj
 0002:00098ea0       __lockerr_exit             00512ea0 f   LIBCMTD:mlock.obj
 0002:00098ed0       __malloc_dbg               00512ed0 f   LIBCMTD:dbgheap.obj
 0002:00098f10       __nh_malloc                00512f10 f   LIBCMTD:dbgheap.obj
 0002:00098f40       __nh_malloc_dbg            00512f40 f   LIBCMTD:dbgheap.obj
 0002:00099030       __heap_alloc               00513030 f   LIBCMTD:dbgheap.obj
 0002:000994f0       __heap_alloc_dbg           005134f0 f   LIBCMTD:dbgheap.obj
 0002:00099560       __calloc_dbg_impl          00513560 f   LIBCMTD:dbgheap.obj
 0002:00099660       __calloc_dbg               00513660 f   LIBCMTD:dbgheap.obj
 0002:000996d0       __recalloc                 005136d0 f   LIBCMTD:dbgheap.obj
 0002:00099710       __realloc_dbg              00513710 f   LIBCMTD:dbgheap.obj
 0002:00099f50       __recalloc_dbg             00513f50 f   LIBCMTD:dbgheap.obj
 0002:0009a090       __expand                   00514090 f   LIBCMTD:dbgheap.obj
 0002:0009a0c0       __expand_dbg               005140c0 f   LIBCMTD:dbgheap.obj
 0002:0009a210       __free_nolock              00514210 f   LIBCMTD:dbgheap.obj
 0002:0009a230       __free_dbg                 00514230 f   LIBCMTD:dbgheap.obj
 0002:0009a2d0       __free_dbg_nolock          005142d0 f   LIBCMTD:dbgheap.obj
 0002:0009a8f0       __msize                    005148f0 f   LIBCMTD:dbgheap.obj
 0002:0009a910       __msize_dbg                00514910 f   LIBCMTD:dbgheap.obj
 0002:0009ab70       __CrtSetBreakAlloc         00514b70 f   LIBCMTD:dbgheap.obj
 0002:0009aba0       __CrtSetDbgBlockType       00514ba0 f   LIBCMTD:dbgheap.obj
 0002:0009acc0       __CrtSetAllocHook          00514cc0 f   LIBCMTD:dbgheap.obj
 0002:0009acf0       __CrtGetAllocHook          00514cf0 f   LIBCMTD:dbgheap.obj
 0002:0009ad60       __CrtCheckMemory           00514d60 f   LIBCMTD:dbgheap.obj
 0002:0009b2d0       __CrtSetDbgFlag            005152d0 f   LIBCMTD:dbgheap.obj
 0002:0009b470       __CrtDoForAllClientObjects 00515470 f   LIBCMTD:dbgheap.obj
 0002:0009b5e0       __CrtIsValidPointer        005155e0 f   LIBCMTD:dbgheap.obj
 0002:0009b600       __CrtIsValidHeapPointer    00515600 f   LIBCMTD:dbgheap.obj
 0002:0009b6c0       __CrtIsMemoryBlock         005156c0 f   LIBCMTD:dbgheap.obj
 0002:0009b890       __CrtReportBlockType       00515890 f   LIBCMTD:dbgheap.obj
 0002:0009b8d0       __CrtSetDumpClient         005158d0 f   LIBCMTD:dbgheap.obj
 0002:0009b900       __CrtGetDumpClient         00515900 f   LIBCMTD:dbgheap.obj
 0002:0009b910       __CrtMemCheckpoint         00515910 f   LIBCMTD:dbgheap.obj
 0002:0009bbb0       __CrtMemDifference         00515bb0 f   LIBCMTD:dbgheap.obj
 0002:0009be50       __CrtMemDumpAllObjectsSince 00515e50 f   LIBCMTD:dbgheap.obj
 0002:0009c480       __CrtDumpMemoryLeaks       00516480 f   LIBCMTD:dbgheap.obj
 0002:0009c510       __CrtMemDumpStatistics     00516510 f   LIBCMTD:dbgheap.obj
 0002:0009c660       __aligned_malloc           00516660 f   LIBCMTD:dbgheap.obj
 0002:0009c690       __aligned_malloc_dbg       00516690 f   LIBCMTD:dbgheap.obj
 0002:0009c6c0       __aligned_realloc          005166c0 f   LIBCMTD:dbgheap.obj
 0002:0009c6f0       __aligned_recalloc         005166f0 f   LIBCMTD:dbgheap.obj
 0002:0009c720       __aligned_realloc_dbg      00516720 f   LIBCMTD:dbgheap.obj
 0002:0009c750       __aligned_recalloc_dbg     00516750 f   LIBCMTD:dbgheap.obj
 0002:0009c790       __aligned_offset_malloc    00516790 f   LIBCMTD:dbgheap.obj
 0002:0009c7c0       __aligned_offset_malloc_dbg 005167c0 f   LIBCMTD:dbgheap.obj
 0002:0009c9d0       __aligned_offset_realloc   005169d0 f   LIBCMTD:dbgheap.obj
 0002:0009ca00       __aligned_offset_recalloc  00516a00 f   LIBCMTD:dbgheap.obj
 0002:0009ca30       __aligned_offset_realloc_dbg 00516a30 f   LIBCMTD:dbgheap.obj
 0002:0009cdb0       __aligned_offset_recalloc_dbg 00516db0 f   LIBCMTD:dbgheap.obj
 0002:0009cf00       __aligned_free             00516f00 f   LIBCMTD:dbgheap.obj
 0002:0009cf20       __aligned_free_dbg         00516f20 f   LIBCMTD:dbgheap.obj
 0002:0009d000       __CrtSetDebugFillThreshold 00517000 f   LIBCMTD:dbgheap.obj
 0002:0009d030       __CrtSetCheckCount         00517030 f   LIBCMTD:dbgheap.obj
 0002:0009d050       __CrtGetCheckCount         00517050 f   LIBCMTD:dbgheap.obj
 0002:0009d060       __aligned_msize            00517060 f   LIBCMTD:dbgheap.obj
 0002:0009d090       __aligned_msize_dbg        00517090 f   LIBCMTD:dbgheap.obj
 0002:0009d1e0       __except_handler4          005171e0 f   LIBCMTD:chandler4.obj
 0002:0009d490       __initp_heap_handler       00517490 f   LIBCMTD:handler.obj
 0002:0009d4b0       ?_set_new_handler@@YAP6AHI@ZP6AHI@Z@Z 005174b0 f   LIBCMTD:handler.obj
 0002:0009d510       ?_set_new_handler@@YAP6AHI@ZH@Z 00517510 f   LIBCMTD:handler.obj
 0002:0009d560       ?_query_new_handler@@YAP6AHI@ZXZ 00517560 f   LIBCMTD:handler.obj
 0002:0009d580       __callnewh                 00517580 f   LIBCMTD:handler.obj
 0002:0009d5d0       ___InternalCxxFrameHandler 005175d0 f   LIBCMTD:frame.obj
 0002:0009dd40       ??0bad_exception@std@@QAE@PBD@Z 00517d40 f i LIBCMTD:frame.obj
 0002:0009dd70       ??1bad_exception@std@@UAE@XZ 00517d70 f i LIBCMTD:frame.obj
 0002:0009dda0       ??_Gbad_exception@std@@UAEPAXI@Z 00517da0 f i LIBCMTD:frame.obj
 0002:0009dda0       ??_Ebad_exception@std@@UAEPAXI@Z 00517da0 f i LIBCMTD:frame.obj
 0002:0009dde0       ??0bad_exception@std@@QAE@ABV01@@Z 00517de0 f i LIBCMTD:frame.obj
 0002:0009dff0       ___TypeMatch               00517ff0 f   LIBCMTD:frame.obj
 0002:0009e0d0       ___FrameUnwindFilter       005180d0 f   LIBCMTD:frame.obj
 0002:0009e160       ___FrameUnwindToState      00518160 f   LIBCMTD:frame.obj
 0002:0009e7f0       ___BuildCatchObjectHelper  005187f0 f   LIBCMTD:frame.obj
 0002:0009eb00       ___BuildCatchObject        00518b00 f   LIBCMTD:frame.obj
 0002:0009ec50       ___DestructExceptionObject 00518c50 f   LIBCMTD:frame.obj
 0002:0009ed30       ___AdjustPointer           00518d30 f   LIBCMTD:frame.obj
 0002:0009ed90       ?__uncaught_exception@@YA_NXZ 00518d90 f   LIBCMTD:frame.obj
 0002:0009edb0       ___CxxExceptionFilter      00518db0 f   LIBCMTD:frame.obj
 0002:0009f010       ___CxxRegisterExceptionObject 00519010 f   LIBCMTD:frame.obj
 0002:0009f190       ___CxxDetectRethrow        00519190 f   LIBCMTD:frame.obj
 0002:0009f240       ___CxxUnregisterExceptionObject 00519240 f   LIBCMTD:frame.obj
 0002:0009f420       ___CxxQueryExceptionSize   00519420 f   LIBCMTD:frame.obj
 0002:0009f430       ___CxxCallUnwindDtor       00519430 f   LIBCMTD:frame.obj
 0002:0009f4d0       ___CxxCallUnwindDelDtor    005194d0 f   LIBCMTD:frame.obj
 0002:0009f570       ___CxxCallUnwindStdDelDtor 00519570 f   LIBCMTD:frame.obj
 0002:0009f610       ___CxxCallUnwindVecDtor    00519610 f   LIBCMTD:frame.obj
 0002:0009f8e0       ?_is_exception_typeof@@YAHABVtype_info@@PAU_EXCEPTION_POINTERS@@@Z 005198e0 f   LIBCMTD:frame.obj
 0002:0009f9f0       __CallSettingFrame@12      005199f0 f   LIBCMTD:lowhelpr.obj
 0002:0009fa17       __NLG_Return               00519a17     LIBCMTD:lowhelpr.obj
 0002:0009fa50       __encode_pointer           00519a50 f   LIBCMTD:tidtable.obj
 0002:0009fb10       __crt_wait_module_handle   00519b10 f i LIBCMTD:tidtable.obj
 0002:0009fb50       __encoded_null             00519b50 f   LIBCMTD:tidtable.obj
 0002:0009fb70       __decode_pointer           00519b70 f   LIBCMTD:tidtable.obj
 0002:0009fc30       ___crtTlsAlloc@4           00519c30 f   LIBCMTD:tidtable.obj
 0002:0009fc50       ___fls_getvalue@4          00519c50 f   LIBCMTD:tidtable.obj
 0002:0009fc80       ___get_flsindex            00519c80 f   LIBCMTD:tidtable.obj
 0002:0009fc90       ___set_flsgetvalue         00519c90 f   LIBCMTD:tidtable.obj
 0002:0009fcf0       ___fls_setvalue@8          00519cf0 f   LIBCMTD:tidtable.obj
 0002:0009fd20       __mtinit                   00519d20 f   LIBCMTD:tidtable.obj
 0002:0009ffb0       __mtterm                   00519fb0 f   LIBCMTD:tidtable.obj
 0002:000a0020       __initptd                  0051a020 f   LIBCMTD:tidtable.obj
 0002:000a01d0       __getptd_noexit            0051a1d0 f   LIBCMTD:tidtable.obj
 0002:000a02c0       __getptd                   0051a2c0 f   LIBCMTD:tidtable.obj
 0002:000a02f0       __freefls@4                0051a2f0 f   LIBCMTD:tidtable.obj
 0002:000a0580       __freeptd                  0051a580 f   LIBCMTD:tidtable.obj
 0002:000a0620       ___threadid                0051a620 f   LIBCMTD:tidtable.obj
 0002:000a0630       ___threadhandle            0051a630 f   LIBCMTD:tidtable.obj
 0002:000a0640       __initp_eh_hooks           0051a640 f   LIBCMTD:hooks.obj
 0002:000a0660       ?terminate@@YAXXZ          0051a660 f   LIBCMTD:hooks.obj
 0002:000a0700       ?unexpected@@YAXXZ         0051a700 f   LIBCMTD:hooks.obj
 0002:000a0730       ?_inconsistency@@YAXXZ     0051a730 f   LIBCMTD:hooks.obj
 0002:000a07e0       __crt_waiting_on_module_handle 0051a7e0 f   LIBCMTD:crt0dat.obj
 0002:000a0850       __cinit                    0051a850 f   LIBCMTD:crt0dat.obj
 0002:000a0920       _exit                      0051a920 f   LIBCMTD:crt0dat.obj
 0002:000a0940       __exit                     0051a940 f   LIBCMTD:crt0dat.obj
 0002:000a0960       __cexit                    0051a960 f   LIBCMTD:crt0dat.obj
 0002:000a0980       __c_exit                   0051a980 f   LIBCMTD:crt0dat.obj
 0002:000a09a0       __amsg_exit                0051a9a0 f   LIBCMTD:crt0dat.obj
 0002:000a09f0       ___freeCrtMemory           0051a9f0 f   LIBCMTD:crt0dat.obj
 0002:000a0e10       ___crtCorExitProcess       0051ae10 f   LIBCMTD:crt0dat.obj
 0002:000a0e60       ___crtExitProcess          0051ae60 f   LIBCMTD:crt0dat.obj
 0002:000a0e90       __lockexit                 0051ae90 f   LIBCMTD:crt0dat.obj
 0002:000a0eb0       __unlockexit               0051aeb0 f   LIBCMTD:crt0dat.obj
 0002:000a0ed0       __init_pointers            0051aed0 f   LIBCMTD:crt0dat.obj
 0002:000a0fc0       __initterm_e               0051afc0 f   LIBCMTD:crt0dat.obj
 0002:000a1010       __get_wpgmptr              0051b010 f   LIBCMTD:crt0dat.obj
 0002:000a1140       __get_pgmptr               0051b140 f   LIBCMTD:crt0dat.obj
 0002:000a1270       __initp_misc_winsig        0051b270 f   LIBCMTD:winsig.obj
 0002:000a12b0       _signal                    0051b2b0 f   LIBCMTD:winsig.obj
 0002:000a1880       _raise                     0051b880 f   LIBCMTD:winsig.obj
 0002:000a1cd0       ___get_sigabrt             0051bcd0 f   LIBCMTD:winsig.obj
 0002:000a1cf0       ___fpecode                 0051bcf0 f   LIBCMTD:winsig.obj
 0002:000a1d10       ___pxcptinfoptrs           0051bd10 f   LIBCMTD:winsig.obj
 0002:000a1d30       ___crtMessageBoxW          0051bd30 f   LIBCMTD:crtmboxw.obj
 0002:000a1fe0       __itow_s                   0051bfe0 f   LIBCMTD:xtows.obj
 0002:000a24b0       __ltow_s                   0051c4b0 f   LIBCMTD:xtows.obj
 0002:000a2500       __ultow_s                  0051c500 f   LIBCMTD:xtows.obj
 0002:000a2530       __i64tow_s                 0051c530 f   LIBCMTD:xtows.obj
 0002:000a2a50       __ui64tow_s                0051ca50 f   LIBCMTD:xtows.obj
 0002:000a2a80       _wcsncat_s                 0051ca80 f   LIBCMTD:wcsncat_s.obj
 0002:000a3060       _wcsncpy_s                 0051d060 f   LIBCMTD:wcsncpy_s.obj
 0002:000a3570       _wcscat_s                  0051d570 f   LIBCMTD:wcscat_s.obj
 0002:000a3a50       _wcscpy_s                  0051da50 f   LIBCMTD:wcscpy_s.obj
 0002:000a3df0       _fwprintf                  0051ddf0 f   LIBCMTD:fwprintf.obj
 0002:000a3fd0       __fwprintf_l               0051dfd0 f   LIBCMTD:fwprintf.obj
 0002:000a4010       __fwprintf_s_l             0051e010 f   LIBCMTD:fwprintf.obj
 0002:000a4050       _fwprintf_s                0051e050 f   LIBCMTD:fwprintf.obj
 0002:000a4080       __fwprintf_p_l             0051e080 f   LIBCMTD:fwprintf.obj
 0002:000a40c0       __fwprintf_p               0051e0c0 f   LIBCMTD:fwprintf.obj
 0002:000a40f0       _setvbuf                   0051e0f0 f   LIBCMTD:setvbuf.obj
 0002:000a4480       ___iob_func                0051e480 f   LIBCMTD:_file.obj
 0002:000a4490       ___initstdio               0051e490 f   LIBCMTD:_file.obj
 0002:000a4630       ___endstdio                0051e630 f   LIBCMTD:_file.obj
 0002:000a4670       __lock_file                0051e670 f   LIBCMTD:_file.obj
 0002:000a46e0       __lock_file2               0051e6e0 f   LIBCMTD:_file.obj
 0002:000a4730       __unlock_file              0051e730 f   LIBCMTD:_file.obj
 0002:000a47a0       __unlock_file2             0051e7a0 f   LIBCMTD:_file.obj
 0002:000a47f0       _abort                     0051e7f0 f   LIBCMTD:abort.obj
 0002:000a4970       __set_abort_behavior       0051e970 f   LIBCMTD:abort.obj
 0002:000a49b0       _wcslen                    0051e9b0 f   LIBCMTD:wcslen.obj
 0002:000a49f0       __set_error_mode           0051e9f0 f   LIBCMTD:errmode.obj
 0002:000a4ae0       ___set_app_type            0051eae0 f   LIBCMTD:errmode.obj
 0002:000a4b00       ___get_app_type            0051eb00 f   LIBCMTD:errmode.obj
 0002:000a4b10       __vswprintf_helper         0051eb10 f   LIBCMTD:vswprnc.obj
 0002:000a4dd0       __vswprintf_c              0051edd0 f   LIBCMTD:vswprnc.obj
 0002:000a4e30       __vswprintf_c_l            0051ee30 f   LIBCMTD:vswprnc.obj
 0002:000a4e90       __vswprintf_s_l            0051ee90 f   LIBCMTD:vswprnc.obj
 0002:000a5190       _vswprintf_s               0051f190 f   LIBCMTD:vswprnc.obj
 0002:000a51c0       __vsnwprintf_s_l           0051f1c0 f   LIBCMTD:vswprnc.obj
 0002:000a5660       __vsnwprintf_s             0051f660 f   LIBCMTD:vswprnc.obj
 0002:000a5690       __vswprintf_p              0051f690 f   LIBCMTD:vswprnc.obj
 0002:000a56f0       __vswprintf_p_l            0051f6f0 f   LIBCMTD:vswprnc.obj
 0002:000a5750       ?_Type_info_dtor@type_info@@CAXPAV1@@Z 0051f750 f   LIBCMTD:typname.obj
 0002:000a58a0       ?_Name_base@type_info@@CAPBDPBV1@PAU__type_info_node@@@Z 0051f8a0 f   LIBCMTD:typname.obj
 0002:000a5ab0       ?_Type_info_dtor_internal@type_info@@CAXPAV1@@Z 0051fab0 f   LIBCMTD:typname.obj
 0002:000a5c00       ___unDNameHelper           0051fc00 f   LIBCMTD:typname.obj
 0002:000a5c50       ?_Name_base_internal@type_info@@CAPBDPBV1@PAU__type_info_node@@@Z 0051fc50 f   LIBCMTD:typname.obj
 0002:000a5e80       ___clean_type_info_names_internal 0051fe80 f   LIBCMTD:typname.obj
 0002:000a5f60       _strcpy_s                  0051ff60 f   LIBCMTD:strcpy_s.obj
 0002:000a62f0       ?_RTC_GetSrcLine@@YAHPAEPA_WKPAH1K@Z 005202f0 f   LIBCMTD:_pdblkup_.obj
 0002:000a68b0       ___crtLCMapStringA         005208b0 f   LIBCMTD:a_map.obj
 0002:000a6f60       __MarkAllocaS              00520f60 f i LIBCMTD:a_map.obj
 0002:000a6f90       __freea                    00520f90 f i LIBCMTD:a_map.obj
 0002:000a7070       __isleadbyte_l             00521070 f i LIBCMTD:_wctype.obj
 0002:000a70d0       _isleadbyte                005210d0 f i LIBCMTD:_wctype.obj
 0002:000a70f0       __iswalpha_l               005210f0 f i LIBCMTD:_wctype.obj
 0002:000a7120       _iswalpha                  00521120 f i LIBCMTD:_wctype.obj
 0002:000a7140       __iswupper_l               00521140 f i LIBCMTD:_wctype.obj
 0002:000a7160       _iswupper                  00521160 f i LIBCMTD:_wctype.obj
 0002:000a7180       __iswlower_l               00521180 f i LIBCMTD:_wctype.obj
 0002:000a71a0       _iswlower                  005211a0 f i LIBCMTD:_wctype.obj
 0002:000a71c0       __iswdigit_l               005211c0 f i LIBCMTD:_wctype.obj
 0002:000a71e0       _iswdigit                  005211e0 f i LIBCMTD:_wctype.obj
 0002:000a7200       __iswxdigit_l              00521200 f i LIBCMTD:_wctype.obj
 0002:000a7230       _iswxdigit                 00521230 f i LIBCMTD:_wctype.obj
 0002:000a7250       __iswspace_l               00521250 f i LIBCMTD:_wctype.obj
 0002:000a7270       _iswspace                  00521270 f i LIBCMTD:_wctype.obj
 0002:000a7290       __iswpunct_l               00521290 f i LIBCMTD:_wctype.obj
 0002:000a72b0       _iswpunct                  005212b0 f i LIBCMTD:_wctype.obj
 0002:000a72d0       __iswalnum_l               005212d0 f i LIBCMTD:_wctype.obj
 0002:000a7300       _iswalnum                  00521300 f i LIBCMTD:_wctype.obj
 0002:000a7320       __iswprint_l               00521320 f i LIBCMTD:_wctype.obj
 0002:000a7350       _iswprint                  00521350 f i LIBCMTD:_wctype.obj
 0002:000a7370       __iswgraph_l               00521370 f i LIBCMTD:_wctype.obj
 0002:000a73a0       _iswgraph                  005213a0 f i LIBCMTD:_wctype.obj
 0002:000a73c0       __iswcntrl_l               005213c0 f i LIBCMTD:_wctype.obj
 0002:000a73e0       _iswcntrl                  005213e0 f i LIBCMTD:_wctype.obj
 0002:000a7400       _iswascii                  00521400 f i LIBCMTD:_wctype.obj
 0002:000a7420       __iswcsym_l                00521420 f i LIBCMTD:_wctype.obj
 0002:000a7470       ___iswcsym                 00521470 f i LIBCMTD:_wctype.obj
 0002:000a74c0       __iswcsymf_l               005214c0 f i LIBCMTD:_wctype.obj
 0002:000a7510       ___iswcsymf                00521510 f i LIBCMTD:_wctype.obj
 0002:000a7560       __chvalidator              00521560 f   LIBCMTD:isctype.obj
 0002:000a75c0       __chvalidator_l            005215c0 f   LIBCMTD:isctype.obj
 0002:000a76a0       __isctype_l                005216a0 f   LIBCMTD:isctype.obj
 0002:000a7800       __isctype                  00521800 f   LIBCMTD:isctype.obj
 0002:000a7850       ___updatetmbcinfo          00521850 f   LIBCMTD:mbctype.obj
 0002:000a79a0       __setmbcp                  005219a0 f   LIBCMTD:mbctype.obj
 0002:000a7e30       __setmbcp_nolock           00521e30 f   LIBCMTD:mbctype.obj
 0002:000a8810       __getmbcp                  00522810 f   LIBCMTD:mbctype.obj
 0002:000a88a0       ___initmbctable            005228a0 f   LIBCMTD:mbctype.obj
 0002:000a88d0       ____setlc_active_func      005228d0 f   LIBCMTD:setlocal.obj
 0002:000a88e0       ____unguarded_readlc_active_add_func 005228e0 f   LIBCMTD:setlocal.obj
 0002:000a88f0       ___freetlocinfo            005228f0 f   LIBCMTD:setlocal.obj
 0002:000a8c90       ___addlocaleref            00522c90 f   LIBCMTD:setlocal.obj
 0002:000a8e00       ___removelocaleref         00522e00 f   LIBCMTD:setlocal.obj
 0002:000a8f80       ___updatetlocinfo          00522f80 f   LIBCMTD:setlocal.obj
 0002:000a9120       __configthreadlocale       00523120 f   LIBCMTD:setlocal.obj
 0002:000a9270       __locterm                  00523270 f   LIBCMTD:setlocal.obj
 0002:000a9330       __free_locale              00523330 f   LIBCMTD:setlocal.obj
 0002:000a94c0       ___free_locale             005234c0 f   LIBCMTD:setlocal.obj
 0002:000a94e0       __create_locale            005234e0 f   LIBCMTD:setlocal.obj
 0002:000a9790       ___create_locale           00523790 f   LIBCMTD:setlocal.obj
 0002:000a97b0       __get_current_locale       005237b0 f   LIBCMTD:setlocal.obj
 0002:000a9910       ___get_current_locale      00523910 f   LIBCMTD:setlocal.obj
 0002:000a9920       _setlocale                 00523920 f   LIBCMTD:setlocal.obj
 0002:000aabf0       __expandlocale             00524bf0 f   LIBCMTD:setlocal.obj
 0002:000aaf40       ___init_dummy              00524f40 f   LIBCMTD:setlocal.obj
 0002:000aaf50       __strcats                  00524f50 f   LIBCMTD:setlocal.obj
 0002:000aaff0       ___lc_strtolc              00524ff0 f   LIBCMTD:setlocal.obj
 0002:000ab270       ___lc_lctostr              00525270 f   LIBCMTD:setlocal.obj
 0002:000ab330       __VEC_memcpy               00525330 f   LIBCMTD:p4_memcpy.obj
 0002:000ab500       __get_sse2_info            00525500 f   LIBCMTD:cpu_disp.obj
 0002:000ab670       ___sse2_available_init     00525670 f   LIBCMTD:cpu_disp.obj
 0002:000ab690       __setdefaultprecision      00525690 f   LIBCMTD:fp8.obj
 0002:000ab6e0       __ms_p5_test_fdiv          005256e0 f   LIBCMTD:_testfdiv_.obj
 0002:000ab740       __ms_p5_mp_test_fdiv       00525740 f   LIBCMTD:_testfdiv_.obj
 0002:000ab7a0       __forcdecpt                005257a0 f   LIBCMTD:cvt.obj
 0002:000ab7c0       __forcdecpt_l              005257c0 f   LIBCMTD:cvt.obj
 0002:000ab8b0       __cropzeros                005258b0 f   LIBCMTD:cvt.obj
 0002:000ab8d0       __cropzeros_l              005258d0 f   LIBCMTD:cvt.obj
 0002:000aba20       __positive                 00525a20 f   LIBCMTD:cvt.obj
 0002:000aba60       __fassign_l                00525a60 f   LIBCMTD:cvt.obj
 0002:000abad0       __fassign                  00525ad0 f   LIBCMTD:cvt.obj
 0002:000abb00       __cftoe_l                  00525b00 f   LIBCMTD:cvt.obj
 0002:000ac1a0       __cftoe                    005261a0 f   LIBCMTD:cvt.obj
 0002:000ac1d0       __cftoa_l                  005261d0 f   LIBCMTD:cvt.obj
 0002:000acba0       ?strrchr@@YAPADPADH@Z      00526ba0 f i LIBCMTD:cvt.obj
 0002:000acbc0       __cftoa                    00526bc0 f   LIBCMTD:cvt.obj
 0002:000acbf0       __cftof_l                  00526bf0 f   LIBCMTD:cvt.obj
 0002:000ad0f0       __cftof                    005270f0 f   LIBCMTD:cvt.obj
 0002:000ad120       __cftog_l                  00527120 f   LIBCMTD:cvt.obj
 0002:000ad3e0       __cftog                    005273e0 f   LIBCMTD:cvt.obj
 0002:000ad410       __cfltcvt_l                00527410 f   LIBCMTD:cvt.obj
 0002:000ad500       __cfltcvt                  00527500 f   LIBCMTD:cvt.obj
 0002:000ad580       __initp_misc_cfltcvt_tab   00527580 f   LIBCMTD:cmiscdat.obj
 0002:000ad5e0       __CrtDefaultAllocHook      005275e0 f   LIBCMTD:dbghook.obj
 0002:000ad5f0       __crt_debugger_hook        005275f0 f   LIBCMTD:dbghook.obj
 0002:000ad610       __CrtDbgBreak              00527610 f   LIBCMTD:dbgrptt.obj
 0002:000ad620       __CrtSetReportMode         00527620 f   LIBCMTD:dbgrptt.obj
 0002:000ad7b0       __CrtSetReportFile         005277b0 f   LIBCMTD:dbgrptt.obj
 0002:000ad8e0       __CrtSetReportHook         005278e0 f   LIBCMTD:dbgrptt.obj
 0002:000ad910       __CrtGetReportHook         00527910 f   LIBCMTD:dbgrptt.obj
 0002:000ad920       __VCrtDbgReportA           00527920 f   LIBCMTD:dbgrptt.obj
 0002:000ae350       __VCrtDbgReportW           00528350 f   LIBCMTD:dbgrptt.obj
 0002:000aeed0       __swprintf                 00528ed0 f   LIBCMTD:swprintf.obj
 0002:000af120       ___swprintf_l              00529120 f   LIBCMTD:swprintf.obj
 0002:000af160       _swprintf_s                00529160 f   LIBCMTD:swprintf.obj
 0002:000af1a0       __snwprintf_s              005291a0 f   LIBCMTD:swprintf.obj
 0002:000af1e0       __swprintf_p               005291e0 f   LIBCMTD:swprintf.obj
 0002:000af220       __swprintf_s_l             00529220 f   LIBCMTD:swprintf.obj
 0002:000af260       __snwprintf_s_l            00529260 f   LIBCMTD:swprintf.obj
 0002:000af2a0       __swprintf_p_l             005292a0 f   LIBCMTD:swprintf.obj
 0002:000af2e0       __scwprintf                005292e0 f   LIBCMTD:swprintf.obj
 0002:000af310       __scwprintf_p              00529310 f   LIBCMTD:swprintf.obj
 0002:000af340       __scwprintf_l              00529340 f   LIBCMTD:swprintf.obj
 0002:000af370       __scwprintf_p_l            00529370 f   LIBCMTD:swprintf.obj
 0002:000af3a0       __alloca_probe             005293a0     LIBCMTD:chkstk.obj
 0002:000af3a0       __chkstk                   005293a0 f   LIBCMTD:chkstk.obj
 0002:000af3e0       __input_l                  005293e0 f   LIBCMTD:input.obj
 0002:000b1230       __INTRN_LOCALE_CONV        0052b230 f i LIBCMTD:input.obj
 0002:000b13a0       __input_s_l                0052b3a0 f   LIBCMTD:inputs.obj
 0002:000b37e0       __close                    0052d7e0 f   LIBCMTD:close.obj
 0002:000b3a80       __close_nolock             0052da80 f   LIBCMTD:close.obj
 0002:000b3b80       __fileno                   0052db80 f   LIBCMTD:fileno.obj
 0002:000b3c10       __freebuf                  0052dc10 f   LIBCMTD:_freebuf.obj
 0002:000b3cc0       __commit                   0052dcc0 f   LIBCMTD:commit.obj
 0002:000b3f60       __write                    0052df60 f   LIBCMTD:write.obj
 0002:000b4210       __write_nolock             0052e210 f   LIBCMTD:write.obj
 0002:000b5020       __stbuf                    0052f020 f   LIBCMTD:_sftbuf.obj
 0002:000b51d0       __ftbuf                    0052f1d0 f   LIBCMTD:_sftbuf.obj
 0002:000b5280       __ioinit                   0052f280 f   LIBCMTD:ioinit.obj
 0002:000b5850       __ioterm                   0052f850 f   LIBCMTD:ioinit.obj
 0002:000b5920       __output_s_l               0052f920 f   LIBCMTD:outputs.obj
 0002:000b7410       __openfile                 00531410 f   LIBCMTD:_open.obj
 0002:000b7dc0       __getstream                00531dc0 f   LIBCMTD:stream.obj
 0002:000b80b4       __local_unwind4            005320b4 f   LIBCMTD:exsup4.obj
 0002:000b818a       __seh_longjmp_unwind4@4    0053218a f   LIBCMTD:exsup4.obj
 0002:000b81a6       @_EH4_CallFilterFunc@8     005321a6 f   LIBCMTD:exsup4.obj
 0002:000b81bd       @_EH4_TransferToHandler@8  005321bd f   LIBCMTD:exsup4.obj
 0002:000b81d6       @_EH4_GlobalUnwind@4       005321d6 f   LIBCMTD:exsup4.obj
 0002:000b81f0       @_EH4_LocalUnwind@16       005321f0 f   LIBCMTD:exsup4.obj
 0002:000b8260       __FF_MSGBANNER             00532260 f   LIBCMTD:crt0msg.obj
 0002:000b82c0       __NMSG_WRITE               005322c0 f   LIBCMTD:crt0msg.obj
 0002:000b8600       __GET_RTERRMSG             00532600 f   LIBCMTD:crt0msg.obj
 0002:000b8660       ___getlocaleinfo           00532660 f   LIBCMTD:inithelp.obj
 0002:000b89b0       __initp_misc_purevirt      005329b0 f   LIBCMTD:inithelp.obj
 0002:000b89d0       __handle_qnan1             005329d0 f   LIBCMTD:_fpexcept_.obj
 0002:000b8a50       __handle_qnan2             00532a50 f   LIBCMTD:_fpexcept_.obj
 0002:000b8ae0       __except1                  00532ae0 f   LIBCMTD:_fpexcept_.obj
 0002:000b8c20       __except2                  00532c20 f   LIBCMTD:_fpexcept_.obj
 0002:000b8d70       __raise_exc_ex             00532d70 f   LIBCMTD:_fpexcept_.obj
 0002:000b93f0       __raise_exc                005333f0 f   LIBCMTD:_fpexcept_.obj
 0002:000b9430       __raise_excf               00533430 f   LIBCMTD:_fpexcept_.obj
 0002:000b9470       __handle_exc               00533470 f   LIBCMTD:_fpexcept_.obj
 0002:000b9840       __umatherr                 00533840 f   LIBCMTD:_fpexcept_.obj
 0002:000b9910       __set_errno_from_matherr   00533910 f   LIBCMTD:_fpexcept_.obj
 0002:000b99c0       __errcode                  005339c0 f   LIBCMTD:_fpexcept_.obj
 0002:000b9a50       __set_exp                  00533a50 f   LIBCMTD:_util_.obj
 0002:000b9aa0       __get_exp                  00533aa0 f   LIBCMTD:_util_.obj
 0002:000b9ae0       __add_exp                  00533ae0 f   LIBCMTD:_util_.obj
 0002:000b9b20       __set_bexp                 00533b20 f   LIBCMTD:_util_.obj
 0002:000b9b60       __sptype                   00533b60 f   LIBCMTD:_util_.obj
 0002:000b9c00       __decomp                   00533c00 f   LIBCMTD:_util_.obj
 0002:000b9d70       __statfp                   00533d70 f   LIBCMTD:_fpctrl_.obj
 0002:000b9d90       __clrfp                    00533d90 f   LIBCMTD:_fpctrl_.obj
 0002:000b9db0       __ctrlfp                   00533db0 f   LIBCMTD:_fpctrl_.obj
 0002:000b9df0       __set_statfp               00533df0 f   LIBCMTD:_fpctrl_.obj
 0002:000b9e70       ___get_fpsr_sse2           00533e70 f   LIBCMTD:_fpctrl_.obj
 0002:000b9ea0       ___set_fpsr_sse2           00533ea0 f   LIBCMTD:_fpctrl_.obj
 0002:000b9fb0       ___fclrf_sse2              00533fb0 f   LIBCMTD:_fpctrl_.obj
 0002:000b9fe0       ___statfp_sse2             00533fe0 f   LIBCMTD:_fpctrl_.obj
 0002:000ba020       ___clrfp_sse2              00534020 f   LIBCMTD:_fpctrl_.obj
 0002:000ba070       ___ctrlfp_sse2             00534070 f   LIBCMTD:_fpctrl_.obj
 0002:000ba0e0       ___set_statfp_sse2         005340e0 f   LIBCMTD:_fpctrl_.obj
 0002:000ba120       __trandisp1                00534120 f   LIBCMTD:_87disp_.obj
 0002:000ba187       __trandisp2                00534187 f   LIBCMTD:_87disp_.obj
 0002:000ba213       __rttospopde               00534213     LIBCMTD:_87disp_.obj
 0002:000ba218       __rttospop                 00534218     LIBCMTD:_87disp_.obj
 0002:000ba21a       __rtnospop                 0053421a     LIBCMTD:_87disp_.obj
 0002:000ba21c       __rttosnpop                0053421c     LIBCMTD:_87disp_.obj
 0002:000ba21d       __rtnospopde               0053421d     LIBCMTD:_87disp_.obj
 0002:000ba224       __rtzeropop                00534224     LIBCMTD:_87disp_.obj
 0002:000ba226       __rtzeronpop               00534226     LIBCMTD:_87disp_.obj
 0002:000ba22b       __rtonepop                 0053422b     LIBCMTD:_87disp_.obj
 0002:000ba22d       __rtonenpop                0053422d     LIBCMTD:_87disp_.obj
 0002:000ba232       __tosnan1                  00534232     LIBCMTD:_87disp_.obj
 0002:000ba25d       __nosnan2                  0053425d     LIBCMTD:_87disp_.obj
 0002:000ba25f       __tosnan2                  0053425f     LIBCMTD:_87disp_.obj
 0002:000ba287       __nan2                     00534287     LIBCMTD:_87disp_.obj
 0002:000ba2c6       __rtindfpop                005342c6     LIBCMTD:_87disp_.obj
 0002:000ba2c8       __rtindfnpop               005342c8     LIBCMTD:_87disp_.obj
 0002:000ba2d9       __rttosnpopde              005342d9     LIBCMTD:_87disp_.obj
 0002:000ba2e3       __rtchsifneg               005342e3     LIBCMTD:_87disp_.obj
 0002:000ba360       __startTwoArgErrorHandling 00534360 f   LIBCMTD:_genexcep_.obj
 0002:000ba377       __startOneArgErrorHandling 00534377 f   LIBCMTD:_genexcep_.obj
 0002:000ba3d0       __twoToTOS                 005343d0 f   LIBCMTD:_common_.obj
 0002:000ba3e5       __load_CW                  005343e5 f   LIBCMTD:_common_.obj
 0002:000ba3fc       __convertTOStoQNaN         005343fc f   LIBCMTD:_common_.obj
 0002:000ba415       __fload_withFB             00534415 f   LIBCMTD:_common_.obj
 0002:000ba458       __checkTOS_withFB          00534458 f   LIBCMTD:_common_.obj
 0002:000ba46e       __fast_exit                0053446e f   LIBCMTD:_common_.obj
 0002:000ba47b       __math_exit                0053447b f   LIBCMTD:_common_.obj
 0002:000ba4a5       __check_overflow_exit      005344a5 f   LIBCMTD:_common_.obj
 0002:000ba4b9       __check_range_exit         005344b9 f   LIBCMTD:_common_.obj
 0002:000ba5c0       __VEC_memzero              005345c0 f   LIBCMTD:p4_memset.obj
 0002:000ba70c       __fFATN2                   0053470c     LIBCMTD:_87triga_.obj
 0002:000ba75c       __rtpiby2                  0053475c     LIBCMTD:_87triga_.obj
 0002:000ba7d0       __cintrindisp2             005347d0 f   LIBCMTD:_87cdisp_.obj
 0002:000ba80e       __cintrindisp1             0053480e f   LIBCMTD:_87cdisp_.obj
 0002:000ba84b       __ctrandisp2               0053484b f   LIBCMTD:_87cdisp_.obj
 0002:000ba9e1       __ctrandisp1               005349e1 f   LIBCMTD:_87cdisp_.obj
 0002:000baa14       __fload                    00534a14 f   LIBCMTD:_87cdisp_.obj
 0002:000baaf0       __sse2_mathfcns_init       00534af0 f   LIBCMTD:_mathfcns_.obj
 0002:000bab20       __set_SSE2_enable          00534b20 f   LIBCMTD:_mathfcns_.obj
 0002:000bab50       __CIcos_pentium4           00534b50 f   LIBCMTD:_cos_pentium4_.obj
 0002:000bab68       __cos_pentium4             00534b68     LIBCMTD:_cos_pentium4_.obj
 0002:000bad70       __CIsin_pentium4           00534d70 f   LIBCMTD:_sin_pentium4_.obj
 0002:000bad88       __sin_pentium4             00534d88     LIBCMTD:_sin_pentium4_.obj
 0002:000bafb0       __filbuf                   00534fb0 f   LIBCMTD:_filbuf.obj
 0002:000bb290       __read                     00535290 f   LIBCMTD:read.obj
 0002:000bb5d0       __read_nolock              005355d0 f   LIBCMTD:read.obj
 0002:000bc8f0       __lseek                    005368f0 f   LIBCMTD:lseek.obj
 0002:000bcba0       __lseek_nolock             00536ba0 f   LIBCMTD:lseek.obj
 0002:000bccb0       _strtol                    00536cb0 f   LIBCMTD:strtol.obj
 0002:000bd330       __strtol_l                 00537330 f   LIBCMTD:strtol.obj
 0002:000bd360       _strtoul                   00537360 f   LIBCMTD:strtol.obj
 0002:000bd3c0       __strtoul_l                005373c0 f   LIBCMTD:strtol.obj
 0002:000bd3f0       __strtoi64                 005373f0 f   LIBCMTD:strtoq.obj
 0002:000bdac0       __strtoi64_l               00537ac0 f   LIBCMTD:strtoq.obj
 0002:000bdaf0       __strtoui64                00537af0 f   LIBCMTD:strtoq.obj
 0002:000bdb50       __strtoui64_l              00537b50 f   LIBCMTD:strtoq.obj
 0002:000bdb80       ?__CxxUnhandledExceptionFilter@@YGJPAU_EXCEPTION_POINTERS@@@Z 00537b80 f   LIBCMTD:unhandld.obj
 0002:000bdc00       ___CxxSetUnhandledExceptionFilter 00537c00 f   LIBCMTD:unhandld.obj
 0002:000bdc20       ___security_init_cookie    00537c20 f   LIBCMTD:gs_support.obj
 0002:000bdd40       __initp_misc_winxfltr      00537d40 f   LIBCMTD:winxfltr.obj
 0002:000bdd50       ___CppXcptFilter           00537d50 f   LIBCMTD:winxfltr.obj
 0002:000bdd80       __XcptFilter               00537d80 f   LIBCMTD:winxfltr.obj
 0002:000be030       __wincmdln                 00538030 f   LIBCMTD:wincmdln.obj
 0002:000be130       __setenvp                  00538130 f   LIBCMTD:stdenvp.obj
 0002:000be340       __setargv                  00538340 f   LIBCMTD:stdargv.obj
 0002:000be4a0       __set_pgmptr               005384a0 f i LIBCMTD:stdargv.obj
 0002:000be900       ___crtGetEnvironmentStringsA 00538900 f   LIBCMTD:a_env.obj
 0002:000beba0       __RTC_Initialize           00538ba0 f   LIBCMTD:_initsect_.obj
 0002:000bebd0       __RTC_Terminate            00538bd0 f   LIBCMTD:_initsect_.obj
 0002:000bec00       ___heap_select             00538c00 f   LIBCMTD:heapinit.obj
 0002:000bec20       __heap_init                00538c20 f   LIBCMTD:heapinit.obj
 0002:000becc0       __heap_term                00538cc0 f   LIBCMTD:heapinit.obj
 0002:000bed90       __get_heap_handle          00538d90 f   LIBCMTD:heapinit.obj
 0002:000bede0       ___crtMessageBoxA          00538de0 f   LIBCMTD:crtmbox.obj
 0002:000bf090       __itoa_s                   00539090 f   LIBCMTD:xtoas.obj
 0002:000bf540       __ltoa_s                   00539540 f   LIBCMTD:xtoas.obj
 0002:000bf590       __ultoa_s                  00539590 f   LIBCMTD:xtoas.obj
 0002:000bf5c0       __i64toa_s                 005395c0 f   LIBCMTD:xtoas.obj
 0002:000bfac0       __ui64toa_s                00539ac0 f   LIBCMTD:xtoas.obj
 0002:000bfaf0       __mbsnbcat_s               00539af0 f   LIBCMTD:mbsnbcat_s.obj
 0002:000bfb20       __mbsnbcpy_s               00539b20 f   LIBCMTD:mbsnbcpy_s.obj
 0002:000bfb50       _strcat_s                  00539b50 f   LIBCMTD:strcat_s.obj
 0002:000c0020       __lseeki64                 0053a020 f   LIBCMTD:lseeki64.obj
 0002:000c0300       __lseeki64_nolock          0053a300 f   LIBCMTD:lseeki64.obj
 0002:000c0430       __getbuf                   0053a430 f   LIBCMTD:_getbuf.obj
 0002:000c0520       __isatty                   0053a520 f   LIBCMTD:isatty.obj
 0002:000c0640       _printf                    0053a640 f   LIBCMTD:printf.obj
 0002:000c07d0       __printf_l                 0053a7d0 f   LIBCMTD:printf.obj
 0002:000c0800       __printf_s_l               0053a800 f   LIBCMTD:printf.obj
 0002:000c0830       _printf_s                  0053a830 f   LIBCMTD:printf.obj
 0002:000c0860       __printf_p_l               0053a860 f   LIBCMTD:printf.obj
 0002:000c0890       __printf_p                 0053a890 f   LIBCMTD:printf.obj
 0002:000c08c0       __set_printf_count_output  0053a8c0 f   LIBCMTD:printf.obj
 0002:000c0920       __get_printf_count_output  0053a920 f   LIBCMTD:printf.obj
 0002:000c0950       __wctomb_s_l               0053a950 f   LIBCMTD:wctomb.obj
 0002:000c0d10       _wctomb_s                  0053ad10 f   LIBCMTD:wctomb.obj
 0002:000c0d40       __wctomb_l                 0053ad40 f   LIBCMTD:wctomb.obj
 0002:000c0de0       _wctomb                    0053ade0 f   LIBCMTD:wctomb.obj
 0002:000c0e40       __aulldiv                  0053ae40 f   LIBCMTD:ulldiv.obj
 0002:000c0ed0       __aullrem                  0053aed0 f   LIBCMTD:ullrem.obj
 0002:000c0f70       __CrtSetReportHook2        0053af70 f   LIBCMTD:dbgrpt.obj
 0002:000c1360       __CrtDbgReport             0053b360 f   LIBCMTD:dbgrpt.obj
 0002:000c13b0       __CrtDbgReportV            0053b3b0 f i LIBCMTD:dbgrpt.obj
 0002:000c13e0       ___crtMessageWindowA       0053b3e0 f   LIBCMTD:dbgrpt.obj
 0002:000c18e0       __initp_misc_initcrit      0053b8e0 f   LIBCMTD:initcrit.obj
 0002:000c1900       ___crtInitCritSecAndSpinCount 0053b900 f   LIBCMTD:initcrit.obj
 0002:000c19d0       _V6_HeapAlloc              0053b9d0 f   LIBCMTD:malloc.obj
 0002:000c1a90       __malloc_base              0053ba90 f   LIBCMTD:malloc.obj
 0002:000c1b40       __heap_alloc_base          0053bb40 f i LIBCMTD:malloc.obj
 0002:000c1c30       __expand_base              0053bc30 f   LIBCMTD:expand.obj
 0002:000c1fb0       __realloc_base             0053bfb0 f   LIBCMTD:realloc.obj
 0002:000c2430       __free_base                0053c430 f   LIBCMTD:free.obj
 0002:000c25a0       __heapchk                  0053c5a0 f   LIBCMTD:heapchk.obj
 0002:000c26b0       __heapset                  0053c6b0 f   LIBCMTD:heapchk.obj
 0002:000c26c0       __get_sbh_threshold        0053c6c0 f   LIBCMTD:sbheap.obj
 0002:000c2720       __set_sbh_threshold        0053c720 f   LIBCMTD:sbheap.obj
 0002:000c2920       __set_amblksiz             0053c920 f   LIBCMTD:sbheap.obj
 0002:000c2a70       __get_amblksiz             0053ca70 f   LIBCMTD:sbheap.obj
 0002:000c2ba0       ___sbh_heap_init           0053cba0 f   LIBCMTD:sbheap.obj
 0002:000c2c20       ___sbh_find_block          0053cc20 f   LIBCMTD:sbheap.obj
 0002:000c2c90       ___sbh_verify_block        0053cc90 f   LIBCMTD:sbheap.obj
 0002:000c2d00       ___sbh_free_block          0053cd00 f   LIBCMTD:sbheap.obj
 0002:000c3430       ___sbh_alloc_block         0053d430 f   LIBCMTD:sbheap.obj
 0002:000c3aa0       ___sbh_alloc_new_region    0053daa0 f   LIBCMTD:sbheap.obj
 0002:000c3c00       ___sbh_alloc_new_group     0053dc00 f   LIBCMTD:sbheap.obj
 0002:000c3e70       ___sbh_resize_block        0053de70 f   LIBCMTD:sbheap.obj
 0002:000c45b0       ___sbh_heapmin             0053e5b0 f   LIBCMTD:sbheap.obj
 0002:000c4730       ___sbh_heap_check          0053e730 f   LIBCMTD:sbheap.obj
 0002:000c4d60       __ValidateImageBase        0053ed60 f   LIBCMTD:pesect.obj
 0002:000c4de0       __FindPESection            0053ede0 f   LIBCMTD:pesect.obj
 0002:000c4e80       __IsNonwritableInCurrentImage 0053ee80 f   LIBCMTD:pesect.obj
 0002:000c4fe0       ?_ValidateRead@@YAHPBXI@Z  0053efe0 f   LIBCMTD:validate.obj
 0002:000c5010       ?_ValidateWrite@@YAHPAXI@Z 0053f010 f   LIBCMTD:validate.obj
 0002:000c5040       ?_ValidateExecute@@YAHP6GHXZ@Z 0053f040 f   LIBCMTD:validate.obj
 0002:000c5070       __initp_misc_rand_s        0053f070 f   LIBCMTD:rand_s.obj
 0002:000c5090       _rand_s                    0053f090 f   LIBCMTD:rand_s.obj
 0002:000c5340       __woutput_l                0053f340 f   LIBCMTD:woutput.obj
 0002:000c69a0       _vfwprintf_helper          005409a0 f   LIBCMTD:vfwprint.obj
 0002:000c6b80       __vfwprintf_l              00540b80 f   LIBCMTD:vfwprint.obj
 0002:000c6bb0       __vfwprintf_s_l            00540bb0 f   LIBCMTD:vfwprint.obj
 0002:000c6be0       __vfwprintf_p_l            00540be0 f   LIBCMTD:vfwprint.obj
 0002:000c6c10       _vfwprintf                 00540c10 f   LIBCMTD:vfwprint.obj
 0002:000c6c40       _vfwprintf_s               00540c40 f   LIBCMTD:vfwprint.obj
 0002:000c6c70       __vfwprintf_p              00540c70 f   LIBCMTD:vfwprint.obj
 0002:000c6ca0       __fcloseall                00540ca0 f   LIBCMTD:closeall.obj
 0002:000c6e20       __woutput_s_l              00540e20 f   LIBCMTD:woutputs.obj
 0002:000c8630       __validate_param_reuseW    00542630 f   LIBCMTD:woutputp.obj
 0002:000c8940       __woutput_p_l              00542940 f   LIBCMTD:woutputp.obj
 0002:000cce90       ___unDName                 00546e90 f   LIBCMTD:undname.obj
 0002:000ccfa0       ?Constructor@HeapManager@@QAEXP6APAXI@ZP6AXPAX@Z@Z 00546fa0 f i LIBCMTD:undname.obj
 0002:000ccff0       ?Destructor@HeapManager@@QAEXXZ 00546ff0 f i LIBCMTD:undname.obj
 0002:000cd050       ___unDNameEx               00547050 f   LIBCMTD:undname.obj
 0002:000cd160       ??0UnDecorator@@QAE@PADPBDHP6APADJ@ZK@Z 00547160 f i LIBCMTD:undname.obj
 0002:000cd220       ??BUnDecorator@@QAEPADXZ   00547220 f i LIBCMTD:undname.obj
 0002:000cd4e0       ?dbGetString@DName@@QBEPADXZ 005474e0 f   LIBCMTD:undname.obj
 0002:000cd510       ?getDecoratedName@UnDecorator@@CA?AVDName@@XZ 00547510 f   LIBCMTD:undname.obj
 0002:000cd8f0       ?getSymbolName@UnDecorator@@CA?AVDName@@XZ 005478f0 f i LIBCMTD:undname.obj
 0002:000cd980       ?getZName@UnDecorator@@CA?AVDName@@_N0@Z 00547980 f   LIBCMTD:undname.obj
 0002:000cdcd0       ?getOperatorName@UnDecorator@@CA?AVDName@@_NPA_N@Z 00547cd0 f i LIBCMTD:undname.obj
 0002:000ce890       ?getStringEncoding@UnDecorator@@CA?AVDName@@PADH@Z 00548890 f   LIBCMTD:undname.obj
 0002:000ce9d0       ?getScope@UnDecorator@@CA?AVDName@@XZ 005489d0 f   LIBCMTD:undname.obj
 0002:000ceea0       ?getSignedDimension@UnDecorator@@CA?AVDName@@XZ 00548ea0 f   LIBCMTD:undname.obj
 0002:000cef40       ?getDimension@UnDecorator@@CA?AVDName@@_N@Z 00548f40 f   LIBCMTD:undname.obj
 0002:000cf2a0       ?getNumberOfDimensions@UnDecorator@@CAHXZ 005492a0 f   LIBCMTD:undname.obj
 0002:000cf3e0       ?getTemplateName@UnDecorator@@CA?AVDName@@_N@Z 005493e0 f   LIBCMTD:undname.obj
 0002:000cf610       ?getTemplateArgumentList@UnDecorator@@CA?AVDName@@XZ 00549610 f   LIBCMTD:undname.obj
 0002:000cf930       ?getTemplateConstant@UnDecorator@@CA?AVDName@@XZ 00549930 f   LIBCMTD:undname.obj
 0002:000cfee0       ?composeDeclaration@UnDecorator@@CA?AVDName@@ABV2@@Z 00549ee0 f i LIBCMTD:undname.obj
 0002:000d1a50       ?getTypeEncoding@UnDecorator@@CAHXZ 0054ba50 f i LIBCMTD:undname.obj
 0002:000d2720       ?getBasedType@UnDecorator@@CA?AVDName@@XZ 0054c720 f   LIBCMTD:undname.obj
 0002:000d2810       ?getScopedName@UnDecorator@@CA?AVDName@@XZ 0054c810 f   LIBCMTD:undname.obj
 0002:000d2970       ?getCallingConvention@UnDecorator@@CA?AVDName@@XZ 0054c970 f   LIBCMTD:undname.obj
 0002:000d2b20       ?getReturnType@UnDecorator@@CA?AVDName@@PAV2@@Z 0054cb20 f   LIBCMTD:undname.obj
 0002:000d2b80       ?getDataType@UnDecorator@@CA?AVDName@@PAV2@@Z 0054cb80 f   LIBCMTD:undname.obj
 0002:000d2ce0       ?getPrimaryDataType@UnDecorator@@CA?AVDName@@ABV2@@Z 0054cce0 f   LIBCMTD:undname.obj
 0002:000d3030       ?getArgumentTypes@UnDecorator@@CA?AVDName@@XZ 0054d030 f   LIBCMTD:undname.obj
 0002:000d31e0       ?getArgumentList@UnDecorator@@CA?AVDName@@XZ 0054d1e0 f   LIBCMTD:undname.obj
 0002:000d3380       ?getThrowTypes@UnDecorator@@CA?AVDName@@XZ 0054d380 f   LIBCMTD:undname.obj
 0002:000d3460       ?getBasicDataType@UnDecorator@@CA?AVDName@@ABV2@@Z 0054d460 f   LIBCMTD:undname.obj
 0002:000d3b70       ?getECSUDataType@UnDecorator@@CA?AVDName@@XZ 0054db70 f   LIBCMTD:undname.obj
 0002:000d3dc0       ?getECSUName@UnDecorator@@CA?AVDName@@XZ 0054ddc0 f i LIBCMTD:undname.obj
 0002:000d3de0       ?getEnumType@UnDecorator@@CA?AVDName@@XZ 0054dde0 f i LIBCMTD:undname.obj
 0002:000d3f80       ?getFunctionIndirectType@UnDecorator@@CA?AVDName@@ABV2@@Z 0054df80 f   LIBCMTD:undname.obj
 0002:000d44d0       ?getPtrRefType@UnDecorator@@CA?AVDName@@ABV2@0D@Z 0054e4d0 f   LIBCMTD:undname.obj
 0002:000d4690       ?getExtendedDataIndirectType@UnDecorator@@CA?AVDName@@AADAA_NH@Z 0054e690 f   LIBCMTD:undname.obj
 0002:000d4920       ?getDataIndirectType@UnDecorator@@CA?AVDName@@ABV2@D0H@Z 0054e920 f   LIBCMTD:undname.obj
 0002:000d51e0       ?getPtrRefDataType@UnDecorator@@CA?AVDName@@ABV2@H@Z 0054f1e0 f i LIBCMTD:undname.obj
 0002:000d5370       ?getArrayType@UnDecorator@@CA?AVDName@@ABV2@@Z 0054f370 f i LIBCMTD:undname.obj
 0002:000d5630       ?getLexicalFrame@UnDecorator@@CA?AVDName@@XZ 0054f630 f i LIBCMTD:undname.obj
 0002:000d5680       ?getThisType@UnDecorator@@CA?AVDName@@XZ 0054f680 f i LIBCMTD:undname.obj
 0002:000d56c0       ?getPointerType@UnDecorator@@CA?AVDName@@ABV2@0@Z 0054f6c0 f i LIBCMTD:undname.obj
 0002:000d56f0       ?getPointerTypeArray@UnDecorator@@CA?AVDName@@ABV2@0@Z 0054f6f0 f i LIBCMTD:undname.obj
 0002:000d5720       ?getReferenceType@UnDecorator@@CA?AVDName@@ABV2@0@Z 0054f720 f i LIBCMTD:undname.obj
 0002:000d5750       ?getDisplacement@UnDecorator@@CA?AVDName@@XZ 0054f750 f i LIBCMTD:undname.obj
 0002:000d5770       ?getCallIndex@UnDecorator@@CA?AVDName@@XZ 0054f770 f i LIBCMTD:undname.obj
 0002:000d5790       ?getGuardNumber@UnDecorator@@CA?AVDName@@XZ 0054f790 f i LIBCMTD:undname.obj
 0002:000d57b0       ?getVbTableType@UnDecorator@@CA?AVDName@@ABV2@@Z 0054f7b0 f i LIBCMTD:undname.obj
 0002:000d57d0       ?getVCallThunkType@UnDecorator@@CA?AVDName@@XZ 0054f7d0 f i LIBCMTD:undname.obj
 0002:000d5850       ?getVfTableType@UnDecorator@@CA?AVDName@@ABV2@@Z 0054f850 f i LIBCMTD:undname.obj
 0002:000d5a80       ?getStorageConvention@UnDecorator@@CA?AVDName@@XZ 0054fa80 f i LIBCMTD:undname.obj
 0002:000d5aa0       ?getDataIndirectType@UnDecorator@@CA?AVDName@@XZ 0054faa0 f i LIBCMTD:undname.obj
 0002:000d5ae0       ?getVdispMapType@UnDecorator@@CA?AVDName@@ABV2@@Z 0054fae0 f i LIBCMTD:undname.obj
 0002:000d5b70       ?getExternalDataType@UnDecorator@@CA?AVDName@@ABV2@@Z 0054fb70 f i LIBCMTD:undname.obj
 0002:000d5c30       ?doMSKeywords@UnDecorator@@SAHXZ 0054fc30 f i LIBCMTD:undname.obj
 0002:000d5c50       ?doPtr64@UnDecorator@@SAHXZ 0054fc50 f i LIBCMTD:undname.obj
 0002:000d5c70       ?doFunctionReturns@UnDecorator@@SAHXZ 0054fc70 f i LIBCMTD:undname.obj
 0002:000d5c90       ?doAllocationModel@UnDecorator@@SAHXZ 0054fc90 f i LIBCMTD:undname.obj
 0002:000d5cb0       ?doAllocationLanguage@UnDecorator@@SAHXZ 0054fcb0 f i LIBCMTD:undname.obj
 0002:000d5cd0       ?doThisTypes@UnDecorator@@SAHXZ 0054fcd0 f i LIBCMTD:undname.obj
 0002:000d5cf0       ?doAccessSpecifiers@UnDecorator@@SAHXZ 0054fcf0 f i LIBCMTD:undname.obj
 0002:000d5d10       ?doThrowTypes@UnDecorator@@SAHXZ 0054fd10 f i LIBCMTD:undname.obj
 0002:000d5d30       ?doMemberTypes@UnDecorator@@SAHXZ 0054fd30 f i LIBCMTD:undname.obj
 0002:000d5d50       ?doNameOnly@UnDecorator@@SAHXZ 0054fd50 f i LIBCMTD:undname.obj
 0002:000d5d70       ?doTypeOnly@UnDecorator@@SAHXZ 0054fd70 f i LIBCMTD:undname.obj
 0002:000d5d90       ?haveTemplateParameters@UnDecorator@@SAHXZ 0054fd90 f i LIBCMTD:undname.obj
 0002:000d5db0       ?doEcsu@UnDecorator@@SAHXZ 0054fdb0 f i LIBCMTD:undname.obj
 0002:000d5dd0       ?doEllipsis@UnDecorator@@SAHXZ 0054fdd0 f i LIBCMTD:undname.obj
 0002:000d5df0       ?UScore@UnDecorator@@SAPBDW4Tokens@@@Z 0054fdf0 f   LIBCMTD:undname.obj
 0002:000d5e30       ?doUnderScore@UnDecorator@@SAHXZ 0054fe30 f i LIBCMTD:undname.obj
 0002:000d5e50       ??2@YAPAXIAAVHeapManager@@H@Z 0054fe50 f i LIBCMTD:undname.obj
 0002:000d5e70       ?getMemory@HeapManager@@QAEPAXIH@Z 0054fe70 f   LIBCMTD:undname.obj
 0002:000d5fc0       ??0Block@HeapManager@@QAE@XZ 0054ffc0 f i LIBCMTD:undname.obj
 0002:000d5fe0       ??H@YA?AVDName@@DABV0@@Z   0054ffe0 f i LIBCMTD:undname.obj
 0002:000d6020       ??H@YA?AVDName@@W4DNameStatus@@ABV0@@Z 00550020 f i LIBCMTD:undname.obj
 0002:000d6060       ??H@YA?AVDName@@PBDABV0@@Z 00550060 f i LIBCMTD:undname.obj
 0002:000d60a0       ??0DName@@QAE@XZ           005500a0 f i LIBCMTD:undname.obj
 0002:000d6190       ??0DName@@QAE@D@Z          00550190 f   LIBCMTD:undname.obj
 0002:000d62a0       ??0DName@@QAE@ABV0@@Z      005502a0 f i LIBCMTD:undname.obj
 0002:000d62d0       ??0DName@@QAE@PAV0@@Z      005502d0 f   LIBCMTD:undname.obj
 0002:000d6450       ??0DName@@QAE@PBD@Z        00550450 f   LIBCMTD:undname.obj
 0002:000d6570       ??0DName@@QAE@AAPBDD@Z     00550570 f   LIBCMTD:undname.obj
 0002:000d68e0       ?doNoIdentCharCheck@UnDecorator@@SAHXZ 005508e0 f i LIBCMTD:undname.obj
 0002:000d6900       ??0DName@@QAE@_K@Z         00550900 f   LIBCMTD:undname.obj
 0002:000d6a90       ??0DName@@QAE@_J@Z         00550a90 f   LIBCMTD:undname.obj
 0002:000d6c70       ??0DName@@QAE@W4DNameStatus@@@Z 00550c70 f   LIBCMTD:undname.obj
 0002:000d6dd0       ?isValid@DName@@QBEHXZ     00550dd0 f i LIBCMTD:undname.obj
 0002:000d6e00       ?isEmpty@DName@@QBEHXZ     00550e00 f i LIBCMTD:undname.obj
 0002:000d6e20       ?status@DName@@QBE?AW4DNameStatus@@XZ 00550e20 f i LIBCMTD:undname.obj
 0002:000d6e40       ?setPtrRef@DName@@QAEAAV1@XZ 00550e40 f i LIBCMTD:undname.obj
 0002:000d6e70       ?isPtrRef@DName@@QBEHXZ    00550e70 f i LIBCMTD:undname.obj
 0002:000d6e90       ?isUDC@DName@@QBEHXZ       00550e90 f i LIBCMTD:undname.obj
 0002:000d6ee0       ?setIsUDC@DName@@QAEXXZ    00550ee0 f i LIBCMTD:undname.obj
 0002:000d6f20       ?isUDTThunk@DName@@QBEHXZ  00550f20 f i LIBCMTD:undname.obj
 0002:000d6f70       ?setIsArray@DName@@QAEXXZ  00550f70 f i LIBCMTD:undname.obj
 0002:000d6fa0       ?isArray@DName@@QBEHXZ     00550fa0 f i LIBCMTD:undname.obj
 0002:000d6fc0       ?isNoTE@DName@@QBEHXZ      00550fc0 f i LIBCMTD:undname.obj
 0002:000d6fe0       ?setIsNoTE@DName@@QAEXXZ   00550fe0 f i LIBCMTD:undname.obj
 0002:000d7010       ?isPinPtr@DName@@QBEHXZ    00551010 f i LIBCMTD:undname.obj
 0002:000d7030       ?setIsPinPtr@DName@@QAEXXZ 00551030 f i LIBCMTD:undname.obj
 0002:000d7060       ?isComArray@DName@@QBEHXZ  00551060 f i LIBCMTD:undname.obj
 0002:000d7080       ?setIsComArray@DName@@QAEXXZ 00551080 f i LIBCMTD:undname.obj
 0002:000d70b0       ?isVCallThunk@DName@@QBEHXZ 005510b0 f i LIBCMTD:undname.obj
 0002:000d70d0       ?setIsVCallThunk@DName@@QAEXXZ 005510d0 f i LIBCMTD:undname.obj
 0002:000d7100       ?length@DName@@QBEHXZ      00551100 f i LIBCMTD:undname.obj
 0002:000d7140       ?getLastChar@DName@@QBEDXZ 00551140 f i LIBCMTD:undname.obj
 0002:000d7180       ?getString@DName@@QBEPADPADH@Z 00551180 f i LIBCMTD:undname.obj
 0002:000d7230       ?getString@DName@@QBEPADPAD0@Z 00551230 f i LIBCMTD:undname.obj
 0002:000d7280       ??HDName@@QBE?AV0@D@Z      00551280 f   LIBCMTD:undname.obj
 0002:000d72d0       ??HDName@@QBE?AV0@PBD@Z    005512d0 f   LIBCMTD:undname.obj
 0002:000d7320       ??HDName@@QBE?AV0@ABV0@@Z  00551320 f   LIBCMTD:undname.obj
 0002:000d7370       ??HDName@@QBE?AV0@PAV0@@Z  00551370 f   LIBCMTD:undname.obj
 0002:000d73c0       ??HDName@@QBE?AV0@W4DNameStatus@@@Z 005513c0 f   LIBCMTD:undname.obj
 0002:000d7410       ?append@DName@@AAEXPAVDNameNode@@@Z 00551410 f   LIBCMTD:undname.obj
 0002:000d74c0       ??YDName@@QAEAAV0@D@Z      005514c0 f   LIBCMTD:undname.obj
 0002:000d7570       ??YDName@@QAEAAV0@PBD@Z    00551570 f   LIBCMTD:undname.obj
 0002:000d7630       ??YDName@@QAEAAV0@ABV0@@Z  00551630 f   LIBCMTD:undname.obj
 0002:000d76b0       ??YDName@@QAEAAV0@PAV0@@Z  005516b0 f   LIBCMTD:undname.obj
 0002:000d7790       ??YDName@@QAEAAV0@W4DNameStatus@@@Z 00551790 f   LIBCMTD:undname.obj
 0002:000d7810       ??_5DName@@QAEAAV0@ABV0@@Z 00551810 f   LIBCMTD:undname.obj
 0002:000d7880       ??4DName@@QAEAAV0@D@Z      00551880 f i LIBCMTD:undname.obj
 0002:000d7990       ??4DName@@QAEAAV0@PBD@Z    00551990 f   LIBCMTD:undname.obj
 0002:000d7aa0       ??4DName@@QAEAAV0@ABV0@@Z  00551aa0 f   LIBCMTD:undname.obj
 0002:000d7ad0       ??4DName@@QAEAAV0@PAV0@@Z  00551ad0 f   LIBCMTD:undname.obj
 0002:000d7c50       ??4DName@@QAEAAV0@W4DNameStatus@@@Z 00551c50 f   LIBCMTD:undname.obj
 0002:000d7d90       ?doPchar@DName@@AAEXPBDH@Z 00551d90 f   LIBCMTD:undname.obj
 0002:000d7f20       ?isFull@Replicator@@QBEHXZ 00551f20 f i LIBCMTD:undname.obj
 0002:000d7f40       ??0Replicator@@QAE@XZ      00551f40 f i LIBCMTD:undname.obj
 0002:000d7f60       ??YReplicator@@QAEAAV0@ABVDName@@@Z 00551f60 f   LIBCMTD:undname.obj
 0002:000d8010       ??AReplicator@@QBE?AVDName@@H@Z 00552010 f   LIBCMTD:undname.obj
 0002:000d8090       ??0DNameNode@@IAE@XZ       00552090 f   LIBCMTD:undname.obj
 0002:000d80b0       ??0charNode@@QAE@D@Z       005520b0 f   LIBCMTD:undname.obj
 0002:000d80f0       ?length@charNode@@UBEHXZ   005520f0 f i LIBCMTD:undname.obj
 0002:000d8110       ?getLastChar@charNode@@UBEDXZ 00552110 f i LIBCMTD:undname.obj
 0002:000d8130       ?getString@charNode@@UBEPADPAD0@Z 00552130 f i LIBCMTD:undname.obj
 0002:000d8170       ??0pcharNode@@QAE@PBDH@Z   00552170 f   LIBCMTD:undname.obj
 0002:000d8230       ?length@pcharNode@@UBEHXZ  00552230 f i LIBCMTD:undname.obj
 0002:000d8250       ?getLastChar@pcharNode@@UBEDXZ 00552250 f i LIBCMTD:undname.obj
 0002:000d82a0       ?getString@pcharNode@@UBEPADPAD0@Z 005522a0 f i LIBCMTD:undname.obj
 0002:000d82e0       ?getStringHelper@@YAPADPAD00H@Z 005522e0 f i LIBCMTD:undname.obj
 0002:000d8330       ??0pDNameNode@@QAE@PAVDName@@@Z 00552330 f   LIBCMTD:undname.obj
 0002:000d83b0       ?length@pDNameNode@@UBEHXZ 005523b0 f i LIBCMTD:undname.obj
 0002:000d83f0       ?getLastChar@pDNameNode@@UBEDXZ 005523f0 f i LIBCMTD:undname.obj
 0002:000d8430       ?getString@pDNameNode@@UBEPADPAD0@Z 00552430 f i LIBCMTD:undname.obj
 0002:000d8480       ??0DNameStatusNode@@AAE@W4DNameStatus@@@Z 00552480 f   LIBCMTD:undname.obj
 0002:000d84e0       ?length@DNameStatusNode@@UBEHXZ 005524e0 f i LIBCMTD:undname.obj
 0002:000d8500       ?getLastChar@DNameStatusNode@@UBEDXZ 00552500 f i LIBCMTD:undname.obj
 0002:000d8530       ?getString@DNameStatusNode@@UBEPADPAD0@Z 00552530 f i LIBCMTD:undname.obj
 0002:000d8580       ?make@DNameStatusNode@@SAPAV1@W4DNameStatus@@@Z 00552580 f i LIBCMTD:undname.obj
 0002:000d8660       ??0pairNode@@QAE@PAVDNameNode@@0@Z 00552660 f   LIBCMTD:undname.obj
 0002:000d86b0       ?length@pairNode@@UBEHXZ   005526b0 f i LIBCMTD:undname.obj
 0002:000d8710       ?getLastChar@pairNode@@UBEDXZ 00552710 f i LIBCMTD:undname.obj
 0002:000d8770       ?getString@pairNode@@UBEPADPAD0@Z 00552770 f i LIBCMTD:undname.obj
 0002:000d88f0       ___ansicp                  005528f0 f   LIBCMTD:convrtcp.obj
 0002:000d8960       ___convertcp               00552960 f   LIBCMTD:convrtcp.obj
 0002:000d8c40       __iswctype_l               00552c40 f   LIBCMTD:iswctype.obj
 0002:000d8d10       _iswctype                  00552d10 f   LIBCMTD:iswctype.obj
 0002:000d8dc0       _is_wctype                 00552dc0 f   LIBCMTD:iswctype.obj
 0002:000d8de0       ___crtGetStringTypeA       00552de0 f   LIBCMTD:a_str.obj
 0002:000d9110       ___pwctype_func            00553110 f   LIBCMTD:ctype.obj
 0002:000d9120       ___pctype_func             00553120 f   LIBCMTD:ctype.obj
 0002:000d9180       ___init_time               00553180 f   LIBCMTD:inittime.obj
 0002:000d9a60       ___free_lc_time            00553a60 f   LIBCMTD:inittime.obj
 0002:000d9e30       ___init_numeric            00553e30 f   LIBCMTD:initnum.obj
 0002:000da260       ___free_lconv_num          00554260 f   LIBCMTD:initnum.obj
 0002:000da2f0       ___init_monetary           005542f0 f   LIBCMTD:initmon.obj
 0002:000da930       ___free_lconv_mon          00554930 f   LIBCMTD:initmon.obj
 0002:000daa60       ___init_ctype              00554a60 f   LIBCMTD:initctyp.obj
 0002:000db180       ____mb_cur_max_func        00555180 f   LIBCMTD:initctyp.obj
 0002:000db1e0       ____mb_cur_max_l_func      005551e0 f   LIBCMTD:initctyp.obj
 0002:000db220       ____lc_codepage_func       00555220 f   LIBCMTD:initctyp.obj
 0002:000db280       ____lc_collate_cp_func     00555280 f   LIBCMTD:initctyp.obj
 0002:000db2e0       ____lc_handle_func         005552e0 f   LIBCMTD:initctyp.obj
 0002:000db340       ___init_collate            00555340 f   LIBCMTD:initcoll.obj
 0002:000db350       __Getdays_l                00555350 f   LIBCMTD:strftime.obj
 0002:000db580       __Getdays                  00555580 f   LIBCMTD:strftime.obj
 0002:000db5a0       __Getmonths_l              005555a0 f   LIBCMTD:strftime.obj
 0002:000db7d0       __Getmonths                005557d0 f   LIBCMTD:strftime.obj
 0002:000db7f0       __Gettnames_l              005557f0 f   LIBCMTD:strftime.obj
 0002:000dbeb0       __Gettnames                00555eb0 f   LIBCMTD:strftime.obj
 0002:000dbed0       __strftime_l               00555ed0 f   LIBCMTD:strftime.obj
 0002:000dbf00       _strftime                  00555f00 f   LIBCMTD:strftime.obj
 0002:000dbf30       __Strftime                 00555f30 f   LIBCMTD:strftime.obj
 0002:000dbf60       __Strftime_l               00555f60 f   LIBCMTD:strftime.obj
 0002:000de4e0       _localeconv                005584e0 f   LIBCMTD:lconv.obj
 0002:000de540       _strncpy_s                 00558540 f   LIBCMTD:strncpy_s.obj
 0002:000dea30       _strcspn                   00558a30 f   LIBCMTD:strcspn.obj
 0002:000dea90       _strncmp                   00558a90 f   LIBCMTD:strncmp.obj
 0002:000dec60       _strpbrk                   00558c60 f   LIBCMTD:strpbrk.obj
 0002:000decb0       ___get_qualified_locale    00558cb0 f   LIBCMTD:getqloc.obj
 0002:000dfed0       __controlfp_s              00559ed0 f   LIBCMTD:_contrlfp_.obj
 0002:000dfff0       __isalpha_l                00559ff0 f i LIBCMTD:_ctype.obj
 0002:000e00a0       _isalpha                   0055a0a0 f i LIBCMTD:_ctype.obj
 0002:000e00e0       __isupper_l                0055a0e0 f i LIBCMTD:_ctype.obj
 0002:000e0180       _isupper                   0055a180 f i LIBCMTD:_ctype.obj
 0002:000e01c0       __islower_l                0055a1c0 f i LIBCMTD:_ctype.obj
 0002:000e0260       _islower                   0055a260 f i LIBCMTD:_ctype.obj
 0002:000e02a0       __isdigit_l                0055a2a0 f i LIBCMTD:_ctype.obj
 0002:000e0340       _isdigit                   0055a340 f i LIBCMTD:_ctype.obj
 0002:000e0380       __isxdigit_l               0055a380 f i LIBCMTD:_ctype.obj
 0002:000e0430       _isxdigit                  0055a430 f i LIBCMTD:_ctype.obj
 0002:000e0470       __isspace_l                0055a470 f i LIBCMTD:_ctype.obj
 0002:000e0510       _isspace                   0055a510 f i LIBCMTD:_ctype.obj
 0002:000e0550       __ispunct_l                0055a550 f i LIBCMTD:_ctype.obj
 0002:000e05f0       _ispunct                   0055a5f0 f i LIBCMTD:_ctype.obj
 0002:000e0630       __isalnum_l                0055a630 f i LIBCMTD:_ctype.obj
 0002:000e06e0       _isalnum                   0055a6e0 f i LIBCMTD:_ctype.obj
 0002:000e0720       __isprint_l                0055a720 f i LIBCMTD:_ctype.obj
 0002:000e07d0       _isprint                   0055a7d0 f i LIBCMTD:_ctype.obj
 0002:000e0810       __isgraph_l                0055a810 f i LIBCMTD:_ctype.obj
 0002:000e08c0       _isgraph                   0055a8c0 f i LIBCMTD:_ctype.obj
 0002:000e0900       __iscntrl_l                0055a900 f i LIBCMTD:_ctype.obj
 0002:000e09a0       _iscntrl                   0055a9a0 f i LIBCMTD:_ctype.obj
 0002:000e09e0       ___isascii                 0055a9e0 f i LIBCMTD:_ctype.obj
 0002:000e0a00       ___toascii                 0055aa00 f i LIBCMTD:_ctype.obj
 0002:000e0a10       __iscsymf_l                0055aa10 f i LIBCMTD:_ctype.obj
 0002:000e0a60       ___iscsymf                 0055aa60 f i LIBCMTD:_ctype.obj
 0002:000e0aa0       __iscsym_l                 0055aaa0 f i LIBCMTD:_ctype.obj
 0002:000e0af0       ___iscsym                  0055aaf0 f i LIBCMTD:_ctype.obj
 0002:000e0b40       __atodbl_l                 0055ab40 f   LIBCMTD:atodbl.obj
 0002:000e0c90       __atodbl                   0055ac90 f   LIBCMTD:atodbl.obj
 0002:000e0cb0       __atoldbl_l                0055acb0 f   LIBCMTD:atodbl.obj
 0002:000e0e00       __atoldbl                  0055ae00 f   LIBCMTD:atodbl.obj
 0002:000e0e20       __atoflt_l                 0055ae20 f   LIBCMTD:atodbl.obj
 0002:000e0f70       __atoflt                   0055af70 f   LIBCMTD:atodbl.obj
 0002:000e0f90       __fptostr                  0055af90 f   LIBCMTD:_fptostr.obj
 0002:000e12e0       __fltout2                  0055b2e0 f   LIBCMTD:_cfout_.obj
 0002:000e13c0       ___dtold                   0055b3c0 f   LIBCMTD:_cfout_.obj
 0002:000e1570       __set_output_format        0055b570 f   LIBCMTD:outputformat.obj
 0002:000e1610       __get_output_format        0055b610 f   LIBCMTD:outputformat.obj
 0002:000e1620       __allrem                   0055b620 f   LIBCMTD:llrem.obj
 0002:000e1700       __alldiv                   0055b700 f   LIBCMTD:lldiv.obj
 0002:000e17e0       __allshl                   0055b7e0 f   LIBCMTD:llshl.obj
 0002:000e1810       __aullshr                  0055b810 f   LIBCMTD:ullshr.obj
 0002:000e1840       _strrchr                   0055b840 f   LIBCMTD:strrchr.obj
 0002:000e1880       __fptrap                   0055b880 f   LIBCMTD:crt0fp.obj
 0002:000e18a0       __mbstowcs_l_helper        0055b8a0 f   LIBCMTD:mbstowcs.obj
 0002:000e1cd0       __mbstowcs_l               0055bcd0 f   LIBCMTD:mbstowcs.obj
 0002:000e1d00       _mbstowcs                  0055bd00 f   LIBCMTD:mbstowcs.obj
 0002:000e1d60       __mbstowcs_s_l             0055bd60 f   LIBCMTD:mbstowcs.obj
 0002:000e21c0       _mbstowcs_s                0055c1c0 f   LIBCMTD:mbstowcs.obj
 0002:000e21f0       __wcstombs_l_helper        0055c1f0 f   LIBCMTD:wcstombs.obj
 0002:000e2820       __wcstombs_l               0055c820 f   LIBCMTD:wcstombs.obj
 0002:000e2850       _wcstombs                  0055c850 f   LIBCMTD:wcstombs.obj
 0002:000e2880       __wcstombs_s_l             0055c880 f   LIBCMTD:wcstombs.obj
 0002:000e2c70       _wcstombs_s                0055cc70 f   LIBCMTD:wcstombs.obj
 0002:000e2ca0       __vswprintf_l              0055cca0 f   LIBCMTD:vswprint.obj
 0002:000e2ee0       __vswprintf                0055cee0 f   LIBCMTD:vswprint.obj
 0002:000e2f10       ___vswprintf_l             0055cf10 f   LIBCMTD:vswprint.obj
 0002:000e2f40       __vscwprintf_helper        0055cf40 f   LIBCMTD:vswprint.obj
 0002:000e3030       __vscwprintf               0055d030 f   LIBCMTD:vswprint.obj
 0002:000e3060       __vscwprintf_l             0055d060 f   LIBCMTD:vswprint.obj
 0002:000e3090       __vscwprintf_p             0055d090 f   LIBCMTD:vswprint.obj
 0002:000e30c0       __vscwprintf_p_l           0055d0c0 f   LIBCMTD:vswprint.obj
 0002:000e30f0       __mbtowc_l                 0055d0f0 f   LIBCMTD:mbtowc.obj
 0002:000e3390       _mbtowc                    0055d390 f   LIBCMTD:mbtowc.obj
 0002:000e33c0       _ungetc                    0055d3c0 f   LIBCMTD:ungetc.obj
 0002:000e34f0       __ungetc_nolock            0055d4f0 f   LIBCMTD:ungetc.obj
 0002:000e37a0       __alloc_osfhnd             0055d7a0 f   LIBCMTD:osfinfo.obj
 0002:000e3b00       __set_osfhnd               0055db00 f   LIBCMTD:osfinfo.obj
 0002:000e3c00       __free_osfhnd              0055dc00 f   LIBCMTD:osfinfo.obj
 0002:000e3d20       __get_osfhandle            0055dd20 f   LIBCMTD:osfinfo.obj
 0002:000e3ee0       __open_osfhandle           0055dee0 f   LIBCMTD:osfinfo.obj
 0002:000e41a0       ___lock_fhandle            0055e1a0 f   LIBCMTD:osfinfo.obj
 0002:000e42e0       __unlock_fhandle           0055e2e0 f   LIBCMTD:osfinfo.obj
 0002:000e4320       __putwch                   0055e320 f   LIBCMTD:putwch.obj
 0002:000e43d0       __putwch_nolock            0055e3d0 f   LIBCMTD:putwch.obj
 0002:000e4510       __cputws                   0055e510 f   LIBCMTD:putwch.obj
 0002:000e46b0       __open                     0055e6b0 f   LIBCMTD:open.obj
 0002:000e4890       __sopen_helper             0055e890 f   LIBCMTD:open.obj
 0002:000e5f80       __sopen                    0055ff80 f   LIBCMTD:open.obj
 0002:000e6010       __sopen_s                  00560010 f   LIBCMTD:open.obj
 0002:000e6040       __mbsnbicmp_l              00560040 f   LIBCMTD:mbsnbicm.obj
 0002:000e6610       __mbsnbicmp                00560610 f   LIBCMTD:mbsnbicm.obj
 0002:000e6640       __mbsnbcmp_l               00560640 f   LIBCMTD:mbsnbcmp.obj
 0002:000e69e0       __mbsnbcmp                 005609e0 f   LIBCMTD:mbsnbcmp.obj
 0002:000e6a10       ___crtGetLocaleInfoW       00560a10 f   LIBCMTD:w_loc.obj
 0002:000e6aa0       ___crtGetLocaleInfoA       00560aa0 f   LIBCMTD:a_loc.obj
 0002:000e6cf0       __matherr                  00560cf0 f   LIBCMTD:_matherr_.obj
 0002:000e6d00       __87except                 00560d00 f   LIBCMTD:_87except_.obj
 0002:000e6f20       __allmul                   00560f20 f   LIBCMTD:llmul.obj
 0002:000e6f70       __ismbbkalnum_l            00560f70 f   LIBCMTD:ismbbyte.obj
 0002:000e6fa0       __ismbbkalnum              00560fa0 f   LIBCMTD:ismbbyte.obj
 0002:000e6fc0       __ismbbkprint_l            00560fc0 f   LIBCMTD:ismbbyte.obj
 0002:000e6ff0       __ismbbkprint              00560ff0 f   LIBCMTD:ismbbyte.obj
 0002:000e7010       __ismbbkpunct_l            00561010 f   LIBCMTD:ismbbyte.obj
 0002:000e7040       __ismbbkpunct              00561040 f   LIBCMTD:ismbbyte.obj
 0002:000e7060       __ismbbalnum_l             00561060 f   LIBCMTD:ismbbyte.obj
 0002:000e7090       __ismbbalnum               00561090 f   LIBCMTD:ismbbyte.obj
 0002:000e70c0       __ismbbalpha_l             005610c0 f   LIBCMTD:ismbbyte.obj
 0002:000e70f0       __ismbbalpha               005610f0 f   LIBCMTD:ismbbyte.obj
 0002:000e7120       __ismbbgraph_l             00561120 f   LIBCMTD:ismbbyte.obj
 0002:000e7150       __ismbbgraph               00561150 f   LIBCMTD:ismbbyte.obj
 0002:000e7180       __ismbbprint_l             00561180 f   LIBCMTD:ismbbyte.obj
 0002:000e71b0       __ismbbprint               005611b0 f   LIBCMTD:ismbbyte.obj
 0002:000e71e0       __ismbbpunct_l             005611e0 f   LIBCMTD:ismbbyte.obj
 0002:000e7210       __ismbbpunct               00561210 f   LIBCMTD:ismbbyte.obj
 0002:000e7230       __ismbblead_l              00561230 f   LIBCMTD:ismbbyte.obj
 0002:000e7260       __ismbblead                00561260 f   LIBCMTD:ismbbyte.obj
 0002:000e7280       __ismbbtrail_l             00561280 f   LIBCMTD:ismbbyte.obj
 0002:000e72b0       __ismbbtrail               005612b0 f   LIBCMTD:ismbbyte.obj
 0002:000e72d0       __ismbbkana_l              005612d0 f   LIBCMTD:ismbbyte.obj
 0002:000e7360       __ismbbkana                00561360 f   LIBCMTD:ismbbyte.obj
 0002:000e7480       __mbsnbcat_s_l             00561480 f   LIBCMTD:mbsnbcat_s_l.obj
 0002:000e7e60       __mbsnbcpy_s_l             00561e60 f   LIBCMTD:mbsnbcpy_s_l.obj
 0002:000e8680       _vprintf_helper            00562680 f   LIBCMTD:vprintf.obj
 0002:000e87e0       __vprintf_l                005627e0 f   LIBCMTD:vprintf.obj
 0002:000e8810       __vprintf_s_l              00562810 f   LIBCMTD:vprintf.obj
 0002:000e8840       __vprintf_p_l              00562840 f   LIBCMTD:vprintf.obj
 0002:000e8870       _vprintf                   00562870 f   LIBCMTD:vprintf.obj
 0002:000e88a0       _vprintf_s                 005628a0 f   LIBCMTD:vprintf.obj
 0002:000e88d0       __vprintf_p                005628d0 f   LIBCMTD:vprintf.obj
 0002:000e8900       _fputwc                    00562900 f   LIBCMTD:fputwc.obj
 0002:000e8a40       __fputwc_nolock            00562a40 f   LIBCMTD:fputwc.obj
 0002:000e8de0       _putwc                     00562de0 f   LIBCMTD:fputwc.obj
 0002:000e8e00       _wcstol                    00562e00 f   LIBCMTD:wcstol.obj
 0002:000e93a0       __wcstol_l                 005633a0 f   LIBCMTD:wcstol.obj
 0002:000e93d0       _wcstoul                   005633d0 f   LIBCMTD:wcstol.obj
 0002:000e9430       __wcstoul_l                00563430 f   LIBCMTD:wcstol.obj
 0002:000e9460       ___crtGetStringTypeW       00563460 f   LIBCMTD:w_str.obj
 0002:000e9500       __get_daylight             00563500 f   LIBCMTD:timeset.obj
 0002:000e95a0       __get_dstbias              005635a0 f   LIBCMTD:timeset.obj
 0002:000e9640       __get_timezone             00563640 f   LIBCMTD:timeset.obj
 0002:000e96e0       __get_tzname               005636e0 f   LIBCMTD:timeset.obj
 0002:000e9930       ___daylight                00563930 f   LIBCMTD:timeset.obj
 0002:000e9940       ___dstbias                 00563940 f   LIBCMTD:timeset.obj
 0002:000e9950       ___timezone                00563950 f   LIBCMTD:timeset.obj
 0002:000e9960       ___tzname                  00563960 f   LIBCMTD:timeset.obj
 0002:000e9970       ___tzset                   00563970 f   LIBCMTD:tzset.obj
 0002:000e9a30       __tzset                    00563a30 f   LIBCMTD:tzset.obj
 0002:000ea140       __set_daylight             00564140 f i LIBCMTD:tzset.obj
 0002:000ea160       __set_dstbias              00564160 f i LIBCMTD:tzset.obj
 0002:000ea180       __set_timezone             00564180 f i LIBCMTD:tzset.obj
 0002:000ea1a0       __isindst                  005641a0 f   LIBCMTD:tzset.obj
 0002:000ea9f0       __stricmp_l                005649f0 f   LIBCMTD:stricmp.obj
 0002:000eac00       ___ascii_stricmp           00564c00 f   LIBCMTD:stricmp.obj
 0002:000eac90       _stricmp                   00564c90 f   LIBCMTD:stricmp.obj
 0002:000eac90       __stricmp                  00564c90 f   LIBCMTD:stricmp.obj
 0002:000eade0       __strnicmp_l               00564de0 f   LIBCMTD:strnicmp.obj
 0002:000eb0b0       __strnicmp                 005650b0 f   LIBCMTD:strnicmp.obj
 0002:000eb2a0       __statusfp2                005652a0 f   LIBCMTD:_ieee87_.obj
 0002:000eb2f0       __statusfp                 005652f0 f   LIBCMTD:_ieee87_.obj
 0002:000eb350       __clearfp                  00565350 f   LIBCMTD:_ieee87_.obj
 0002:000eb3b0       ___control87_2             005653b0 f   LIBCMTD:_ieee87_.obj
 0002:000eb480       __controlfp                00565480 f   LIBCMTD:_ieee87_.obj
 0002:000eb4b0       __control87                005654b0 f i LIBCMTD:_ieee87_.obj
 0002:000eb590       __set_controlfp            00565590 f   LIBCMTD:_ieee87_.obj
 0002:000eb640       __fpreset                  00565640 f   LIBCMTD:_ieee87_.obj
 0002:000ebfe0       __ld12tod                  00565fe0 f   LIBCMTD:_intrncvt_.obj
 0002:000ec010       __ld12cvt                  00566010 f i LIBCMTD:_intrncvt_.obj
 0002:000ec2f0       __RoundMan                 005662f0 f i LIBCMTD:_intrncvt_.obj
 0002:000ec400       __ZeroTail                 00566400 f i LIBCMTD:_intrncvt_.obj
 0002:000ec4b0       __IncMan                   005664b0 f i LIBCMTD:_intrncvt_.obj
 0002:000ec590       ___addl                    00566590 f i LIBCMTD:_intrncvt_.obj
 0002:000ec5e0       __CopyMan                  005665e0 f i LIBCMTD:_intrncvt_.obj
 0002:000ec650       __FillZeroMan              00566650 f i LIBCMTD:_intrncvt_.obj
 0002:000ec690       __IsZeroMan                00566690 f i LIBCMTD:_intrncvt_.obj
 0002:000ec6e0       __ShrMan                   005666e0 f i LIBCMTD:_intrncvt_.obj
 0002:000ec810       __ld12tof                  00566810 f   LIBCMTD:_intrncvt_.obj
 0002:000ec840       __ld12told                 00566840 f   LIBCMTD:_intrncvt_.obj
 0002:000ec920       ___strgtold12_l            00566920 f   LIBCMTD:_strgtold_.obj
 0002:000ed680       ___multtenpow12            00567680 f i LIBCMTD:_strgtold_.obj
 0002:000ed790       ___ld12mul                 00567790 f i LIBCMTD:_strgtold_.obj
 0002:000edc90       ___shl_12                  00567c90 f i LIBCMTD:_strgtold_.obj
 0002:000edd10       ___shr_12                  00567d10 f i LIBCMTD:_strgtold_.obj
 0002:000edd90       ___STRINGTOLD_L            00567d90 f   LIBCMTD:_strgtold_.obj
 0002:000ede20       _$I10_OUTPUT               00567e20 f   LIBCMTD:_x10fout_.obj
 0002:000ee530       ___add_12                  00568530 f i LIBCMTD:_x10fout_.obj
 0002:000ee610       ___initconin               00568610 f   LIBCMTD:initcon.obj
 0002:000ee640       ___initconout              00568640 f   LIBCMTD:initcon.obj
 0002:000ee670       ___termcon                 00568670 f   LIBCMTD:initcon.obj
 0002:000ee6d0       __chsize_s                 005686d0 f   LIBCMTD:chsize.obj
 0002:000eea10       __chsize_nolock            00568a10 f   LIBCMTD:chsize.obj
 0002:000eed50       __chsize                   00568d50 f   LIBCMTD:chsize.obj
 0002:000eed80       __setmode                  00568d80 f   LIBCMTD:setmode.obj
 0002:000ef0b0       __setmode_nolock           005690b0 f   LIBCMTD:setmode.obj
 0002:000ef3b0       __set_fmode                005693b0 f   LIBCMTD:setmode.obj
 0002:000ef490       __get_fmode                00569490 f   LIBCMTD:setmode.obj
 0002:000ef530       _strncat_s                 00569530 f   LIBCMTD:strncat_s.obj
 0002:000efaf0       __flswbuf                  00569af0 f   LIBCMTD:_flswbuf.obj
 0002:000efe80       __wchartodigit             00569e80 f   LIBCMTD:wchtodig.obj
 0002:000f0270       _getenv                    0056a270 f   LIBCMTD:getenv.obj
 0002:000f0420       __getenv_helper_nolock     0056a420 f   LIBCMTD:getenv.obj
 0002:000f0580       _getenv_s                  0056a580 f   LIBCMTD:getenv.obj
 0002:000f0830       __dupenv_s                 0056a830 f   LIBCMTD:getenv.obj
 0002:000f0860       __dupenv_s_dbg             0056a860 f   LIBCMTD:getenv.obj
 0002:000f0b40       ___ascii_strnicmp          0056ab40 f   LIBCMTD:_strnicm.obj
 0002:000f0bc0       ___mtold12                 0056abc0 f   LIBCMTD:_mantold_.obj
 0002:000f0d70       _strnlen                   0056ad70 f   LIBCMTD:strlen_s.obj
 0002:000f0dc0       __mbsnbicoll_l             0056adc0 f   LIBCMTD:mbsnbico.obj
 0002:000f1090       __mbsnbicoll               0056b090 f   LIBCMTD:mbsnbico.obj
 0002:000f10c0       ___wtomb_environ           0056b0c0 f   LIBCMTD:wtombenv.obj
 0002:000f11f0       ___crtCompareStringA       0056b1f0 f   LIBCMTD:a_cmp.obj
 0002:000f1910       __strnicoll_l              0056b910 f   LIBCMTD:strnicol.obj
 0002:000f1bf0       __strnicoll                0056bbf0 f   LIBCMTD:strnicol.obj
 0002:000f1c40       ___crtsetenv               0056bc40 f   LIBCMTD:setenv.obj
 0002:000f2460       __mbschr_l                 0056c460 f   LIBCMTD:mbschr.obj
 0002:000f2650       __mbschr                   0056c650 f   LIBCMTD:mbschr.obj
 0002:000f2670       ??2@YAPAXIABU_DebugHeapTag_t@std@@PADH@Z 0056c670 f   libcpmtd:xdebug.obj
 0002:000f2710       ??_U@YAPAXIABU_DebugHeapTag_t@std@@PADH@Z 0056c710 f   libcpmtd:xdebug.obj
 0002:000f2740       ??3@YAXPAXABU_DebugHeapTag_t@std@@PADH@Z 0056c740 f   libcpmtd:xdebug.obj
 0002:000f2760       ??_V@YAXPAXABU_DebugHeapTag_t@std@@PADH@Z 0056c760 f   libcpmtd:xdebug.obj
 0002:000f2790       ?_DebugHeapTag_func@std@@YAABU_DebugHeapTag_t@1@XZ 0056c790 f   libcpmtd:xdebug.obj
 0002:000f27a0       ??0_Init_locks@std@@QAE@XZ 0056c7a0 f   libcpmtd:xlock.obj
 0002:000f2810       ??1_Init_locks@std@@QAE@XZ 0056c810 f   libcpmtd:xlock.obj
 0002:000f2870       ?_Init_locks_ctor@_Init_locks@std@@CAXPAV12@@Z 0056c870 f   libcpmtd:xlock.obj
 0002:000f28d0       ?_Init_locks_dtor@_Init_locks@std@@CAXPAV12@@Z 0056c8d0 f   libcpmtd:xlock.obj
 0002:000f2930       ??0_Lockit@std@@QAE@XZ     0056c930 f   libcpmtd:xlock.obj
 0002:000f2960       ??0_Lockit@std@@QAE@H@Z    0056c960 f   libcpmtd:xlock.obj
 0002:000f29b0       ??1_Lockit@std@@QAE@XZ     0056c9b0 f   libcpmtd:xlock.obj
 0002:000f29f0       ?_Lockit_ctor@_Lockit@std@@CAXPAV12@@Z 0056c9f0 f   libcpmtd:xlock.obj
 0002:000f2a10       ?_Lockit_ctor@_Lockit@std@@CAXPAV12@H@Z 0056ca10 f   libcpmtd:xlock.obj
 0002:000f2a50       ?_Lockit_dtor@_Lockit@std@@CAXPAV12@@Z 0056ca50 f   libcpmtd:xlock.obj
 0002:000f2a80       ?_Lockit_ctor@_Lockit@std@@SAXH@Z 0056ca80 f   libcpmtd:xlock.obj
 0002:000f2ab0       ?_Lockit_dtor@_Lockit@std@@SAXH@Z 0056cab0 f   libcpmtd:xlock.obj
 0002:000f2ae0       ?_Debug_message@std@@YAXPBD0@Z 0056cae0 f   libcpmtd:stdthrow.obj
 0002:000f2b70       ?_Debug_message@std@@YAXPB_W0I@Z 0056cb70 f   libcpmtd:stdthrow.obj
 0002:000f2ba0       ?_Debug_message@std@@YAXPBG0I@Z 0056cba0 f   libcpmtd:stdthrow.obj
 0002:000f2bd0       ?_Throw@std@@YAXABVexception@stdext@@@Z 0056cbd0 f   libcpmtd:stdthrow.obj
 0002:000f2c00       ?_Xlen@_String_base@std@@SAXXZ 0056cc00 f   libcpmtd:string.obj
 0002:000f2c90       ?_Xran@_String_base@std@@SAXXZ 0056cc90 f   libcpmtd:string.obj
 0002:000f2d20       ??0out_of_range@std@@QAE@ABV?$basic_string@DU?$char_traits@D@std@@V?$allocator@D@2@@1@@Z 0056cd20 f i libcpmtd:string.obj
 0002:000f2d50       ??1out_of_range@std@@UAE@XZ 0056cd50 f i libcpmtd:string.obj
 0002:000f2d80       ??_Eout_of_range@std@@UAEPAXI@Z 0056cd80 f i libcpmtd:string.obj
 0002:000f2d80       ??_Gout_of_range@std@@UAEPAXI@Z 0056cd80 f i libcpmtd:string.obj
 0002:000f2dc0       ??0out_of_range@std@@QAE@ABV01@@Z 0056cdc0 f i libcpmtd:string.obj
 0002:000f2df0       ?_Xinvarg@_String_base@std@@SAXXZ 0056cdf0 f   libcpmtd:string.obj
 0002:000f2e80       ??0invalid_argument@std@@QAE@ABV?$basic_string@DU?$char_traits@D@std@@V?$allocator@D@2@@1@@Z 0056ce80 f i libcpmtd:string.obj
 0002:000f2eb0       ??1invalid_argument@std@@UAE@XZ 0056ceb0 f i libcpmtd:string.obj
 0002:000f2ee0       ??_Einvalid_argument@std@@UAEPAXI@Z 0056cee0 f i libcpmtd:string.obj
 0002:000f2ee0       ??_Ginvalid_argument@std@@UAEPAXI@Z 0056cee0 f i libcpmtd:string.obj
 0002:000f2f20       ??0invalid_argument@std@@QAE@ABV01@@Z 0056cf20 f i libcpmtd:string.obj
 0002:000f2f50       __Once                     0056cf50 f   libcpmtd:xmtx.obj
 0002:000f2fc0       __Mtxinit                  0056cfc0 f   libcpmtd:xmtx.obj
 0002:000f2fe0       __Mtxdst                   0056cfe0 f   libcpmtd:xmtx.obj
 0002:000f3000       __Mtxlock                  0056d000 f   libcpmtd:xmtx.obj
 0002:000f3020       __Mtxunlock                0056d020 f   libcpmtd:xmtx.obj
 0002:000f3040       ??_H@YGXPAXIHP6EX0@Z@Z     0056d040 f i vldmt:vld.obj
 0002:000f30f0       ??0VisualLeakDetector@@QAE@XZ 0056d0f0 f   vldmt:vld.obj
 0002:000f3330       ??1VisualLeakDetector@@QAE@XZ 0056d330 f   vldmt:vld.obj
 0002:000f36a0       ?allochook@VisualLeakDetector@@CAHHPAXIHJPBEH@Z 0056d6a0 f   vldmt:vld.obj
 0002:000f3af0       ?buildsymbolsearchpath@VisualLeakDetector@@AAEPADXZ 0056daf0 f   vldmt:vld.obj
 0002:000f3d20       ?dumpuserdatablock@VisualLeakDetector@@AAEXPBU_CrtMemBlockHeader@@@Z 0056dd20 f   vldmt:vld.obj
 0002:000f3fd0       ?enabled@VisualLeakDetector@@AAE_NXZ 0056dfd0 f   vldmt:vld.obj
 0002:000f4050       ?eraseduplicates@VisualLeakDetector@@AAEKPBU_CrtMemBlockHeader@@IPBVCallStack@@@Z 0056e050 f   vldmt:vld.obj
 0002:000f4130       ?getprogramcounterx86x64@VisualLeakDetector@@AAEKXZ 0056e130 f   vldmt:vld.obj
 0002:000f4160       ?linkdebughelplibrary@VisualLeakDetector@@AAE_NXZ 0056e160 f   vldmt:vld.obj
 0002:000f4390       ?report@VisualLeakDetector@@AAAXPBDZZ 0056e390 f   vldmt:vld.obj
 0002:000f43f0       ?reportconfig@VisualLeakDetector@@AAEXXZ 0056e3f0 f   vldmt:vld.obj
 0002:000f4510       ?reportleaks@VisualLeakDetector@@AAEXXZ 0056e510 f   vldmt:vld.obj
 0002:000f4b70       ?strapp@@YAXPAPADPAD@Z     0056eb70 f   vldmt:vldutil.obj
 0002:000f4c60       ??0BlockMap@@QAE@XZ        0056ec60 f   vldmt:vldutil.obj
 0002:000f4e40       ??0StackLink@BlockMap@@QAE@XZ 0056ee40 f i vldmt:vldutil.obj
 0002:000f4e60       ??1StackLink@BlockMap@@QAE@XZ 0056ee60 f i vldmt:vldutil.obj
 0002:000f4e80       ??0BlockMap@@QAE@ABV0@@Z   0056ee80 f   vldmt:vldutil.obj
 0002:000f4f10       ??1BlockMap@@QAE@XZ        0056ef10 f   vldmt:vldutil.obj
 0002:000f5030       ??1Chunk@BlockMap@@QAE@XZ  0056f030 f i vldmt:vldutil.obj
 0002:000f5060       ?erase@BlockMap@@QAEXK@Z   0056f060 f   vldmt:vldutil.obj
 0002:000f5970       ?find@BlockMap@@QAEPAVCallStack@@K@Z 0056f970 f   vldmt:vldutil.obj
 0002:000f59f0       ?insert@BlockMap@@QAEPAVCallStack@@K@Z 0056f9f0 f   vldmt:vldutil.obj
 0002:000f6250       ??0CallStack@@QAE@XZ       00570250 f   vldmt:vldutil.obj
 0002:000f62b0       ??0CallStack@@QAE@ABV0@@Z  005702b0 f   vldmt:vldutil.obj
 0002:000f62d0       ??1CallStack@@QAE@XZ       005702d0 f   vldmt:vldutil.obj
 0002:000f6340       ??8CallStack@@QAE_NABV0@@Z 00570340 f   vldmt:vldutil.obj
 0002:000f6430       ??ACallStack@@QAEKK@Z      00570430 f   vldmt:vldutil.obj
 0002:000f64a0       ?clear@CallStack@@QAEXXZ   005704a0 f   vldmt:vldutil.obj
 0002:000f64e0       ?push_back@CallStack@@QAEXK@Z 005704e0 f   vldmt:vldutil.obj
 0002:000f6640       ?size@CallStack@@QAEKXZ    00570640 f   vldmt:vldutil.obj
 0002:000f6655       _strdup                    00570655 f   LIBCMT:strdup.obj
 0002:000f6655       __strdup                   00570655 f   LIBCMT:strdup.obj
 0002:000f66bf       _fputs                     005706bf f   LIBCMT:fputs.obj
 0002:000f6820       _strncpy                   00570820 f   LIBCMT:strncpy.obj
 0002:000f698d       __vsnprintf_l              0057098d f   LIBCMT:vsnprint.obj
 0002:000f6a6c       __vsnprintf                00570a6c f   LIBCMT:vsnprint.obj
 0002:000f6a90       _strncat                   00570a90 f   LIBCMT:strncat.obj
 0002:000f6c14       __SEH_prolog4              00570c14 f   LIBCMT:sehprolg4.obj
 0002:000f6c59       __SEH_epilog4              00570c59 f   LIBCMT:sehprolg4.obj
 0002:000f6c84       _PathRemoveFileSpecA@4     00570c84 f   shlwapi:SHLWAPI.dll
 0002:000f6c8a       _glTexImage2D              00570c8a f   libgles_cm:libGLES_CM.dll
 0002:000f6c90       _glCompressedTexImage2D    00570c90 f   libgles_cm:libGLES_CM.dll
 0002:000f6c96       _glGetError                00570c96 f   libgles_cm:libGLES_CM.dll
 0002:000f6c9c       _glBindTexture             00570c9c f   libgles_cm:libGLES_CM.dll
 0002:000f6ca2       _glGenTextures             00570ca2 f   libgles_cm:libGLES_CM.dll
 0002:000f6ca8       _glPixelStorei             00570ca8 f   libgles_cm:libGLES_CM.dll
 0002:000f6cae       _glDeleteTextures          00570cae f   libgles_cm:libGLES_CM.dll
 0002:000f6cb4       _eglGetProcAddress@4       00570cb4 f   libgles_cm:libGLES_CM.dll
 0002:000f6cba       _glGetString               00570cba f   libgles_cm:libGLES_CM.dll
 0002:000f6cc0       _RtlUnwind@16              00570cc0 f   kernel32:KERNEL32.dll
 0002:000f6cc6       _GetModuleFileNameW@12     00570cc6 f   kernel32:KERNEL32.dll
 0002:000f6ccc       _WriteConsoleW@20          00570ccc f   kernel32:KERNEL32.dll
 0002:000f6cd2       _GetFileType@4             00570cd2 f   kernel32:KERNEL32.dll
 0002:000f6cd8       _GetStdHandle@4            00570cd8 f   kernel32:KERNEL32.dll
 0002:000f6cde       _RaiseException@16         00570cde f   kernel32:KERNEL32.dll
 0002:000f6ce4       _IsDebuggerPresent@0       00570ce4 f   kernel32:KERNEL32.dll
 0002:000f6cea       _DebugBreak@0              00570cea f   kernel32:KERNEL32.dll
 0002:000f6cf0       _WideCharToMultiByte@32    00570cf0 f   kernel32:KERNEL32.dll
 0002:000f6cf6       _MultiByteToWideChar@24    00570cf6 f   kernel32:KERNEL32.dll
 0002:000f6cfc       _lstrlenA@4                00570cfc f   kernel32:KERNEL32.dll
 0002:000f6d02       _GetProcAddress@8          00570d02 f   kernel32:KERNEL32.dll
 0002:000f6d08       _LoadLibraryA@4            00570d08 f   kernel32:KERNEL32.dll
 0002:000f6d0e       _TerminateProcess@8        00570d0e f   kernel32:KERNEL32.dll
 0002:000f6d14       _GetCurrentProcess@0       00570d14 f   kernel32:KERNEL32.dll
 0002:000f6d1a       _UnhandledExceptionFilter@4 00570d1a f   kernel32:KERNEL32.dll
 0002:000f6d20       _SetUnhandledExceptionFilter@4 00570d20 f   kernel32:KERNEL32.dll
 0002:000f6d26       _GetLastError@0            00570d26 f   kernel32:KERNEL32.dll
 0002:000f6d2c       _DeleteFileA@4             00570d2c f   kernel32:KERNEL32.dll
 0002:000f6d32       _GetCommandLineA@0         00570d32 f   kernel32:KERNEL32.dll
 0002:000f6d38       _GetStartupInfoA@4         00570d38 f   kernel32:KERNEL32.dll
 0002:000f6d3e       _GetModuleFileNameA@12     00570d3e f   kernel32:KERNEL32.dll
 0002:000f6d44       _EnterCriticalSection@4    00570d44 f   kernel32:KERNEL32.dll
 0002:000f6d4a       _LeaveCriticalSection@4    00570d4a f   kernel32:KERNEL32.dll
 0002:000f6d50       _FatalAppExitA@8           00570d50 f   kernel32:KERNEL32.dll
 0002:000f6d56       _HeapValidate@12           00570d56 f   kernel32:KERNEL32.dll
 0002:000f6d5c       _IsBadReadPtr@8            00570d5c f   kernel32:KERNEL32.dll
 0002:000f6d62       _TlsGetValue@4             00570d62 f   kernel32:KERNEL32.dll
 0002:000f6d68       _GetModuleHandleW@4        00570d68 f   kernel32:KERNEL32.dll
 0002:000f6d6e       _TlsAlloc@0                00570d6e f   kernel32:KERNEL32.dll
 0002:000f6d74       _TlsSetValue@8             00570d74 f   kernel32:KERNEL32.dll
 0002:000f6d7a       _GetCurrentThreadId@0      00570d7a f   kernel32:KERNEL32.dll
 0002:000f6d80       _TlsFree@4                 00570d80 f   kernel32:KERNEL32.dll
 0002:000f6d86       _InterlockedIncrement@4    00570d86 f   kernel32:KERNEL32.dll
 0002:000f6d8c       _SetLastError@4            00570d8c f   kernel32:KERNEL32.dll
 0002:000f6d92       _InterlockedDecrement@4    00570d92 f   kernel32:KERNEL32.dll
 0002:000f6d98       _GetCurrentThread@0        00570d98 f   kernel32:KERNEL32.dll
 0002:000f6d9e       _ExitProcess@4             00570d9e f   kernel32:KERNEL32.dll
 0002:000f6da4       _SetConsoleCtrlHandler@8   00570da4 f   kernel32:KERNEL32.dll
 0002:000f6daa       _LoadLibraryW@4            00570daa f   kernel32:KERNEL32.dll
 0002:000f6db0       _HeapFree@12               00570db0 f   kernel32:KERNEL32.dll
 0002:000f6db6       _HeapAlloc@12              00570db6 f   kernel32:KERNEL32.dll
 0002:000f6dbc       _GetProcessHeap@0          00570dbc f   kernel32:KERNEL32.dll
 0002:000f6dc2       _VirtualQuery@12           00570dc2 f   kernel32:KERNEL32.dll
 0002:000f6dc8       _FreeLibrary@4             00570dc8 f   kernel32:KERNEL32.dll
 0002:000f6dce       _LCMapStringA@24           00570dce f   kernel32:KERNEL32.dll
 0002:000f6dd4       _LCMapStringW@24           00570dd4 f   kernel32:KERNEL32.dll
 0002:000f6dda       _GetACP@0                  00570dda f   kernel32:KERNEL32.dll
 0002:000f6de0       _GetOEMCP@0                00570de0 f   kernel32:KERNEL32.dll
 0002:000f6de6       _GetCPInfo@8               00570de6 f   kernel32:KERNEL32.dll
 0002:000f6dec       _IsValidCodePage@4         00570dec f   kernel32:KERNEL32.dll
 0002:000f6df2       _GetModuleHandleA@4        00570df2 f   kernel32:KERNEL32.dll
 0002:000f6df8       _WriteFile@20              00570df8 f   kernel32:KERNEL32.dll
 0002:000f6dfe       _OutputDebugStringW@4      00570dfe f   kernel32:KERNEL32.dll
 0002:000f6e04       _FlushFileBuffers@4        00570e04 f   kernel32:KERNEL32.dll
 0002:000f6e0a       _GetConsoleCP@0            00570e0a f   kernel32:KERNEL32.dll
 0002:000f6e10       _GetConsoleMode@8          00570e10 f   kernel32:KERNEL32.dll
 0002:000f6e16       _SetHandleCount@4          00570e16 f   kernel32:KERNEL32.dll
 0002:000f6e1c       _ReadFile@20               00570e1c f   kernel32:KERNEL32.dll
 0002:000f6e22       _SetFilePointer@16         00570e22 f   kernel32:KERNEL32.dll
 0002:000f6e28       _QueryPerformanceCounter@4 00570e28 f   kernel32:KERNEL32.dll
 0002:000f6e2e       _GetCurrentProcessId@0     00570e2e f   kernel32:KERNEL32.dll
 0002:000f6e34       _GetSystemTimeAsFileTime@4 00570e34 f   kernel32:KERNEL32.dll
 0002:000f6e3a       _FreeEnvironmentStringsA@4 00570e3a f   kernel32:KERNEL32.dll
 0002:000f6e40       _GetEnvironmentStrings@0   00570e40 f   kernel32:KERNEL32.dll
 0002:000f6e46       _FreeEnvironmentStringsW@4 00570e46 f   kernel32:KERNEL32.dll
 0002:000f6e4c       _GetEnvironmentStringsW@0  00570e4c f   kernel32:KERNEL32.dll
 0002:000f6e52       _HeapDestroy@4             00570e52 f   kernel32:KERNEL32.dll
 0002:000f6e58       _HeapCreate@12             00570e58 f   kernel32:KERNEL32.dll
 0002:000f6e5e       _VirtualFree@12            00570e5e f   kernel32:KERNEL32.dll
 0002:000f6e64       _InitializeCriticalSectionAndSpinCount@8 00570e64 f   kernel32:KERNEL32.dll
 0002:000f6e6a       _HeapSize@12               00570e6a f   kernel32:KERNEL32.dll
 0002:000f6e70       _HeapReAlloc@16            00570e70 f   kernel32:KERNEL32.dll
 0002:000f6e76       _VirtualAlloc@16           00570e76 f   kernel32:KERNEL32.dll
 0002:000f6e7c       _InterlockedExchange@8     00570e7c f   kernel32:KERNEL32.dll
 0002:000f6e82       _GetLocaleInfoA@16         00570e82 f   kernel32:KERNEL32.dll
 0002:000f6e88       _GetStringTypeA@20         00570e88 f   kernel32:KERNEL32.dll
 0002:000f6e8e       _GetStringTypeW@16         00570e8e f   kernel32:KERNEL32.dll
 0002:000f6e94       _GetTimeFormatA@24         00570e94 f   kernel32:KERNEL32.dll
 0002:000f6e9a       _GetDateFormatA@24         00570e9a f   kernel32:KERNEL32.dll
 0002:000f6ea0       _IsValidLocale@8           00570ea0 f   kernel32:KERNEL32.dll
 0002:000f6ea6       _EnumSystemLocalesA@8      00570ea6 f   kernel32:KERNEL32.dll
 0002:000f6eac       _GetUserDefaultLCID@0      00570eac f   kernel32:KERNEL32.dll
 0002:000f6eb2       _SetStdHandle@8            00570eb2 f   kernel32:KERNEL32.dll
 0002:000f6eb8       _WriteConsoleA@20          00570eb8 f   kernel32:KERNEL32.dll
 0002:000f6ebe       _GetConsoleOutputCP@0      00570ebe f   kernel32:KERNEL32.dll
 0002:000f6ec4       _CreateFileA@28            00570ec4 f   kernel32:KERNEL32.dll
 0002:000f6eca       _GetLocaleInfoW@16         00570eca f   kernel32:KERNEL32.dll
 0002:000f6ed0       _GetTimeZoneInformation@4  00570ed0 f   kernel32:KERNEL32.dll
 0002:000f6ed6       _SetEndOfFile@4            00570ed6 f   kernel32:KERNEL32.dll
 0002:000f6edc       _CompareStringA@24         00570edc f   kernel32:KERNEL32.dll
 0002:000f6ee2       _CompareStringW@24         00570ee2 f   kernel32:KERNEL32.dll
 0002:000f6ee8       _SetEnvironmentVariableA@8 00570ee8 f   kernel32:KERNEL32.dll
 0002:000fb810       ??__F_var@?4??InverseTable@CBoard3D@Lib3D@@ABEHH@Z@YAXXZ 00575810 f i Board3D.obj
 0003:00000000       ___xc_a                    00577000     LIBCMTD:crt0init.obj
 0003:0000032c       ___xc_z                    0057732c     LIBCMTD:crt0init.obj
 0003:00000430       ___xi_a                    00577430     LIBCMTD:crt0init.obj
 0003:00000750       ___xi_z                    00577750     LIBCMTD:crt0init.obj
 0003:00000854       ___xp_a                    00577854     LIBCMTD:crt0init.obj
 0003:00000b68       ___xp_z                    00577b68     LIBCMTD:crt0init.obj
 0003:00000c6c       ___xt_a                    00577c6c     LIBCMTD:crt0init.obj
 0003:00000d70       ___xt_z                    00577d70     LIBCMTD:crt0init.obj
 0003:00000e9c       ??_C@_03OFAPEBGM@?$CFs?6?$AA@ 00577e9c     DevUtil.obj
 0003:00000ea0       ??_C@_0P@GHFPNOJB@bad?5allocation?$AA@ 00577ea0     GapiMain.obj
 0003:00000eb4       ?ORIENTATION_CHANGE_TIME@CGapi@@2HB 00577eb4     GapiMain.obj
 0003:00000eb8       ?_Value@?$_Is_swap_move@U_Swap_move_tag@std@@@std@@2_NB 00577eb8     GapiMain.obj
 0003:00000eb9       ?value@?$integral_constant@_N$0A@@tr1@std@@2_NB 00577eb9     GapiMain.obj
 0003:00000eba       ?value@?$integral_constant@_N$00@tr1@std@@2_NB 00577eba     GapiMain.obj
 0003:00000ebc       ?collate@?$_Locbase@H@std@@2HB 00577ebc     GapiMain.obj
 0003:00000ec0       ?ctype@?$_Locbase@H@std@@2HB 00577ec0     GapiMain.obj
 0003:00000ec4       ?monetary@?$_Locbase@H@std@@2HB 00577ec4     GapiMain.obj
 0003:00000ec8       ?numeric@?$_Locbase@H@std@@2HB 00577ec8     GapiMain.obj
 0003:00000ecc       ?time@?$_Locbase@H@std@@2HB 00577ecc     GapiMain.obj
 0003:00000ed0       ?messages@?$_Locbase@H@std@@2HB 00577ed0     GapiMain.obj
 0003:00000ed4       ?all@?$_Locbase@H@std@@2HB 00577ed4     GapiMain.obj
 0003:00000ed8       ?none@?$_Locbase@H@std@@2HB 00577ed8     GapiMain.obj
 0003:00000edc       ?table_size@?$ctype@D@std@@2IB 00577edc     GapiMain.obj
 0003:00000ee0       ?skipws@?$_Iosb@H@std@@2W4_Fmtflags@12@B 00577ee0     GapiMain.obj
 0003:00000ee4       ?unitbuf@?$_Iosb@H@std@@2W4_Fmtflags@12@B 00577ee4     GapiMain.obj
 0003:00000ee8       ?uppercase@?$_Iosb@H@std@@2W4_Fmtflags@12@B 00577ee8     GapiMain.obj
 0003:00000eec       ?showbase@?$_Iosb@H@std@@2W4_Fmtflags@12@B 00577eec     GapiMain.obj
 0003:00000ef0       ?showpoint@?$_Iosb@H@std@@2W4_Fmtflags@12@B 00577ef0     GapiMain.obj
 0003:00000ef4       ?showpos@?$_Iosb@H@std@@2W4_Fmtflags@12@B 00577ef4     GapiMain.obj
 0003:00000ef8       ?left@?$_Iosb@H@std@@2W4_Fmtflags@12@B 00577ef8     GapiMain.obj
 0003:00000efc       ?right@?$_Iosb@H@std@@2W4_Fmtflags@12@B 00577efc     GapiMain.obj
 0003:00000f00       ?internal@?$_Iosb@H@std@@2W4_Fmtflags@12@B 00577f00     GapiMain.obj
 0003:00000f04       ?dec@?$_Iosb@H@std@@2W4_Fmtflags@12@B 00577f04     GapiMain.obj
 0003:00000f08       ?oct@?$_Iosb@H@std@@2W4_Fmtflags@12@B 00577f08     GapiMain.obj
 0003:00000f0c       ?hex@?$_Iosb@H@std@@2W4_Fmtflags@12@B 00577f0c     GapiMain.obj
 0003:00000f10       ?scientific@?$_Iosb@H@std@@2W4_Fmtflags@12@B 00577f10     GapiMain.obj
 0003:00000f14       ?fixed@?$_Iosb@H@std@@2W4_Fmtflags@12@B 00577f14     GapiMain.obj
 0003:00000f18       ?hexfloat@?$_Iosb@H@std@@2W4_Fmtflags@12@B 00577f18     GapiMain.obj
 0003:00000f1c       ?boolalpha@?$_Iosb@H@std@@2W4_Fmtflags@12@B 00577f1c     GapiMain.obj
 0003:00000f20       ?_Stdio@?$_Iosb@H@std@@2W4_Fmtflags@12@B 00577f20     GapiMain.obj
 0003:00000f24       ?adjustfield@?$_Iosb@H@std@@2W4_Fmtflags@12@B 00577f24     GapiMain.obj
 0003:00000f28       ?basefield@?$_Iosb@H@std@@2W4_Fmtflags@12@B 00577f28     GapiMain.obj
 0003:00000f2c       ?floatfield@?$_Iosb@H@std@@2W4_Fmtflags@12@B 00577f2c     GapiMain.obj
 0003:00000f30       ?goodbit@?$_Iosb@H@std@@2W4_Iostate@12@B 00577f30     GapiMain.obj
 0003:00000f34       ?eofbit@?$_Iosb@H@std@@2W4_Iostate@12@B 00577f34     GapiMain.obj
 0003:00000f38       ?failbit@?$_Iosb@H@std@@2W4_Iostate@12@B 00577f38     GapiMain.obj
 0003:00000f3c       ?badbit@?$_Iosb@H@std@@2W4_Iostate@12@B 00577f3c     GapiMain.obj
 0003:00000f40       ?_Hardfail@?$_Iosb@H@std@@2W4_Iostate@12@B 00577f40     GapiMain.obj
 0003:00000f44       ?in@?$_Iosb@H@std@@2W4_Openmode@12@B 00577f44     GapiMain.obj
 0003:00000f48       ?out@?$_Iosb@H@std@@2W4_Openmode@12@B 00577f48     GapiMain.obj
 0003:00000f4c       ?ate@?$_Iosb@H@std@@2W4_Openmode@12@B 00577f4c     GapiMain.obj
 0003:00000f50       ?app@?$_Iosb@H@std@@2W4_Openmode@12@B 00577f50     GapiMain.obj
 0003:00000f54       ?trunc@?$_Iosb@H@std@@2W4_Openmode@12@B 00577f54     GapiMain.obj
 0003:00000f58       ?_Nocreate@?$_Iosb@H@std@@2W4_Openmode@12@B 00577f58     GapiMain.obj
 0003:00000f5c       ?_Noreplace@?$_Iosb@H@std@@2W4_Openmode@12@B 00577f5c     GapiMain.obj
 0003:00000f60       ?binary@?$_Iosb@H@std@@2W4_Openmode@12@B 00577f60     GapiMain.obj
 0003:00000f64       ?beg@?$_Iosb@H@std@@2W4_Seekdir@12@B 00577f64     GapiMain.obj
 0003:00000f68       ?cur@?$_Iosb@H@std@@2W4_Seekdir@12@B 00577f68     GapiMain.obj
 0003:00000f6c       ?end@?$_Iosb@H@std@@2W4_Seekdir@12@B 00577f6c     GapiMain.obj
 0003:00000f70       ?k_MAX_TEXTURES_LOADED@TTexture@Lib3D@@2HB 00577f70     GapiMain.obj
 0003:00000f74       ?_EEM_DS@?$deque@VARect@@V?$allocator@VARect@@@std@@@std@@2HB 00577f74     GapiMain.obj
 0003:00000f78       ?m_AssianFontMapSize@CSprite@@2HB 00577f78     GapiMain.obj
 0003:00000f7c       ?m_ArabicFontMapSize@CSprite@@2HB 00577f7c     GapiMain.obj
 0003:00000f80       ?kRenderModeShadowColor@CSprite@@2GB 00577f80     GapiMain.obj
 0003:00000f84       ?MAX_ZONES@CTouchZones@@0HB 00577f84     GapiMain.obj
 0003:00000f88       ?MAX_TOUCHES@CTouchZones@@0HB 00577f88     GapiMain.obj
 0003:00000f8c       ?MAX_EVENTS@CTouchZones@@0HB 00577f8c     GapiMain.obj
 0003:00000f90       ?k_CHEAT_NONE@CTouchZones@@2HB 00577f90     GapiMain.obj
 0003:00000f94       ?k_CHEAT_UNLOCK_ALL@CTouchZones@@2HB 00577f94     GapiMain.obj
 0003:00000f98       ?k_CHEAT_MONEY@CTouchZones@@2HB 00577f98     GapiMain.obj
 0003:00000f9c       ?k_CHEAT_WIN_RACE@CTouchZones@@2HB 00577f9c     GapiMain.obj
 0003:00000fa0       ?k_CHEAT_LOOSE_RACE@CTouchZones@@2HB 00577fa0     GapiMain.obj
 0003:00000fa4       ?k_CHEAT_GAME_COMPLETE@CTouchZones@@2HB 00577fa4     GapiMain.obj
 0003:00000fa8       ?k_CHEAT_VIEW_FRAMES@CTouchZones@@2HB 00577fa8     GapiMain.obj
 0003:00000fac       ?k_CHEAT_TIMEMS@CTouchZones@@2HB 00577fac     GapiMain.obj
 0003:00000fb0       ??_C@_1GM@NIFFAJC@?$AA?$CI?$AA?5?$AAP?$AAa?$AAt?$AAh?$AAL?$AAe?$AAn?$AA?5?$AA?$CL?$AA?5?$AAs?$AAt?$AAr?$AAl?$AAe?$AAn?$AA?$CI?$AAF?$AAi?$AAl?$AAe?$AAN?$AAa?$AAm?$AAe?$AA?$CJ?$AA?5?$AA?$CL?$AA?5?$AA1@ 00577fb0     GapiMain.obj
 0003:00001038       ??_C@_1GA@EJMGEELK@?$AAd?$AA?3?$AA?2?$AAw?$AAo?$AAr?$AAk?$AAs?$AAp?$AAa?$AAc?$AAe?$AA?2?$AAi?$AAp?$AAh?$AAo?$AAn?$AAe?$AA?2?$AAa?$AAh?$AAr?$AA?2?$AAs?$AAr?$AAc?$AA?2?$AAc?$AAo?$AAm?$AAm@ 00578038     GapiMain.obj
 0003:000010ac       ??_C@_1CA@PGGJEFIG@?$AAm?$AA_?$AAU?$AAp?$AAd?$AAa?$AAt?$AAe?$AAD?$AAi?$AAs?$AAp?$AAl?$AAa?$AAy?$AA?$AA@ 005780ac     GapiMain.obj
 0003:000010d8       ??_C@_0EF@GNOGEIAE@c?3?2program?5files?5?$CIx86?$CJ?2microsoft@ 005780d8     GapiMain.obj
 0003:00001130       ??_7bad_alloc@std@@6B@     00578130     GapiMain.obj
 0003:0000113c       ??_C@_1O@CEOJGPIN@?$AAl?$AA?5?$AA?$DM?$AA?5?$AA1?$AA0?$AA?$AA@ 0057813c     str_utils.obj
 0003:00001150       ??_C@_1FK@EPHJCENI@?$AAd?$AA?3?$AA?2?$AAw?$AAo?$AAr?$AAk?$AAs?$AAp?$AAa?$AAc?$AAe?$AA?2?$AAe?$AAn?$AAg?$AAi?$AAn?$AAe?$AA?2?$AAs?$AAr?$AAc?$AA?2?$AAc?$AAo?$AAm?$AAm?$AAo?$AAn?$AA?2?$AAs@ 00578150     str_utils.obj
 0003:000011bc       ??_C@_1M@HLGKFCJM@?$AAf?$AAa?$AAl?$AAs?$AAe?$AA?$AA@ 005781bc     str_utils.obj
 0003:000011ca       ??_C@_00CNPNBAHC@?$AA@     005781ca     Util.obj
 0003:000011cc       ?npos@?$basic_string@DU?$char_traits@D@std@@V?$allocator@D@2@@std@@2IB 005781cc     Util.obj
 0003:000011d0       ??_C@_04DNCNJDPH@?5?7?6?$AN?$AA@ 005781d0     Util.obj
 0003:000011d8       ??_C@_1DC@POOIKBAO@?$AAI?$AAT?$AAE?$AAR?$AAA?$AAT?$AAO?$AAR?$AA?5?$AAL?$AAI?$AAS?$AAT?$AA?5?$AAC?$AAO?$AAR?$AAR?$AAU?$AAP?$AAT?$AAE?$AAD?$AA?$CB?$AA?$AA@ 005781d8     Util.obj
 0003:00001218       ??_C@_1IO@PFHNEOGE@?$AAc?$AA?3?$AA?2?$AAp?$AAr?$AAo?$AAg?$AAr?$AAa?$AAm?$AA?5?$AAf?$AAi?$AAl?$AAe?$AAs?$AA?5?$AA?$CI?$AAx?$AA8?$AA6?$AA?$CJ?$AA?2?$AAm?$AAi?$AAc?$AAr?$AAo?$AAs?$AAo?$AAf?$AAt@ 00578218     Util.obj
 0003:000012c8       ??_C@_1IM@EDGMOHHN@?$AAc?$AA?3?$AA?2?$AAp?$AAr?$AAo?$AAg?$AAr?$AAa?$AAm?$AA?5?$AAf?$AAi?$AAl?$AAe?$AAs?$AA?5?$AA?$CI?$AAx?$AA8?$AA6?$AA?$CJ?$AA?2?$AAm?$AAi?$AAc?$AAr?$AAo?$AAs?$AAo?$AAf?$AAt@ 005782c8     Util.obj
 0003:00001370       ??_C@_1BO@MEPPHOO@?$AA?$CC?$AAo?$AAu?$AAt?$AA?5?$AAo?$AAf?$AA?5?$AAr?$AAa?$AAn?$AAg?$AAe?$AA?$CC?$AA?$AA@ 00578370     Util.obj
 0003:00001398       ??_C@_1NA@ICLOEHKI@?$AAs?$AAt?$AAd?$AA?3?$AA?3?$AA_?$AAS?$AAt?$AAr?$AAi?$AAn?$AAg?$AA_?$AAc?$AAo?$AAn?$AAs?$AAt?$AA_?$AAi?$AAt?$AAe?$AAr?$AAa?$AAt?$AAo?$AAr?$AA?$DM?$AAc?$AAh?$AAa?$AAr@ 00578398     Util.obj
 0003:00001498       ??_C@_1FG@CMLDHNON@?$AA?$CI?$AA?$CC?$AAS?$AAt?$AAa?$AAn?$AAd?$AAa?$AAr?$AAd?$AA?5?$AAC?$AA?$CL?$AA?$CL?$AA?5?$AAL?$AAi?$AAb?$AAr?$AAa?$AAr?$AAi?$AAe?$AAs?$AA?5?$AAO?$AAu?$AAt?$AA?5?$AAo?$AAf?$AA?5@ 00578498     Util.obj
 0003:00001500       ??_C@_1EG@CNCHLAOB@?$AAs?$AAt?$AAr?$AAi?$AAn?$AAg?$AA?5?$AAi?$AAt?$AAe?$AAr?$AAa?$AAt?$AAo?$AAr?$AA?5?$AAn?$AAo?$AAt?$AA?5?$AAd?$AAe?$AAr?$AAe?$AAf?$AAe?$AAr?$AAe?$AAn?$AAc?$AAa?$AAb@ 00578500     Util.obj
 0003:00001558       ??_C@_1MC@OAAJIFPD@?$AA?$CI?$AA?$CC?$AA_?$AAM?$AAy?$AAp?$AAt?$AAr?$AA?5?$AA?$DM?$AA?5?$AA?$CI?$AA?$CI?$AA?$CI?$AA_?$AAM?$AAy?$AAs?$AAt?$AAr?$AAi?$AAn?$AAg?$AA?5?$AA?$CK?$AA?$CJ?$AAt?$AAh?$AAi?$AAs?$AA?9?$AA?$DO@ 00578558     Util.obj
 0003:00001640       ??_C@_1CG@JNLFBNGN@?$AA?$CC?$AAi?$AAn?$AAv?$AAa?$AAl?$AAi?$AAd?$AA?5?$AAa?$AAr?$AAg?$AAu?$AAm?$AAe?$AAn?$AAt?$AA?$CC?$AA?$AA@ 00578640     Util.obj
 0003:00001670       ??_C@_1NC@DCAJJLPG@?$AAs?$AAt?$AAd?$AA?3?$AA?3?$AA_?$AAS?$AAt?$AAr?$AAi?$AAn?$AAg?$AA_?$AAc?$AAo?$AAn?$AAs?$AAt?$AA_?$AAi?$AAt?$AAe?$AAr?$AAa?$AAt?$AAo?$AAr?$AA?$DM?$AAc?$AAh?$AAa?$AAr@ 00578670     Util.obj
 0003:0000176c       ??_C@_1DM@LBMEEJPP@?$AA?$CI?$AA?$CC?$AAt?$AAh?$AAi?$AAs?$AA?9?$AA?$DO?$AA_?$AAH?$AAa?$AAs?$AA_?$AAc?$AAo?$AAn?$AAt?$AAa?$AAi?$AAn?$AAe?$AAr?$AA?$CI?$AA?$CJ?$AA?$CC?$AA?0?$AA?5?$AA0?$AA?$CJ?$AA?$AA@ 0057876c     Util.obj
 0003:000017b8       ??_C@_1OI@PNIDODDN@?$AAs?$AAt?$AAd?$AA?3?$AA?3?$AA_?$AAS?$AAt?$AAr?$AAi?$AAn?$AAg?$AA_?$AAc?$AAo?$AAn?$AAs?$AAt?$AA_?$AAi?$AAt?$AAe?$AAr?$AAa?$AAt?$AAo?$AAr?$AA?$DM?$AAc?$AAh?$AAa?$AAr@ 005787b8     Util.obj
 0003:000018d0       ??_C@_1BEO@GFHFALBP@?$AA?$CI?$AA?$CC?$AA_?$AAP?$AAs?$AAt?$AAr?$AAi?$AAn?$AAg?$AA?5?$AA?$DN?$AA?$DN?$AA?5?$AAN?$AAU?$AAL?$AAL?$AA?5?$AA?$HM?$AA?$HM?$AA?5?$AA_?$AAP?$AAt?$AAr?$AA?5?$AA?$CB?$AA?$DN?$AA?5?$AAN?$AAU@ 005788d0     Util.obj
 0003:00001a60       ??_C@_1MK@BODNBKIO@?$AAs?$AAt?$AAd?$AA?3?$AA?3?$AA_?$AAS?$AAt?$AAr?$AAi?$AAn?$AAg?$AA_?$AAc?$AAo?$AAn?$AAs?$AAt?$AA_?$AAi?$AAt?$AAe?$AAr?$AAa?$AAt?$AAo?$AAr?$AA?$DM?$AAc?$AAh?$AAa?$AAr@ 00578a60     Util.obj
 0003:00001b58       ??_C@_1FO@OCPOOAIA@?$AA?$CI?$AA?$CC?$AAS?$AAt?$AAa?$AAn?$AAd?$AAa?$AAr?$AAd?$AA?5?$AAC?$AA?$CL?$AA?$CL?$AA?5?$AAL?$AAi?$AAb?$AAr?$AAa?$AAr?$AAi?$AAe?$AAs?$AA?5?$AAI?$AAn?$AAv?$AAa?$AAl?$AAi?$AAd@ 00578b58     Util.obj
 0003:00001bc8       ??_C@_1DM@KDEKGMPF@?$AAs?$AAt?$AAr?$AAi?$AAn?$AAg?$AA?5?$AAi?$AAt?$AAe?$AAr?$AAa?$AAt?$AAo?$AAr?$AAs?$AA?5?$AAi?$AAn?$AAc?$AAo?$AAm?$AAp?$AAa?$AAt?$AAi?$AAb?$AAl?$AAe?$AA?$AA@ 00578bc8     Util.obj
 0003:00001c10       ??_C@_1CK@EOPGIILJ@?$AAi?$AAn?$AAv?$AAa?$AAl?$AAi?$AAd?$AA?5?$AAn?$AAu?$AAl?$AAl?$AA?5?$AAp?$AAo?$AAi?$AAn?$AAt?$AAe?$AAr?$AA?$AA@ 00578c10     Util.obj
 0003:00001c44       ?UPDATE_FRAME_RATE@@3HB    00578c44     WinMain.obj
 0003:00001c48       ?GAMEFPS_CONST@@3HB        00578c48     WinMain.obj
 0003:00001c4c       ?UPDATE_FRAME_MS@@3HB      00578c4c     WinMain.obj
 0003:00001c50       ?UPDATE_FRAME_MS_256@@3HB  00578c50     WinMain.obj
 0003:00001c58       ??_C@_02CEGDFPFP@?4?2?$AA@ 00578c58     WinMain.obj
 0003:00001c5c       ??_C@_03GEKNECPN@nbg?$AA@  00578c5c     WinMain.obj
 0003:00001c60       ??_C@_02PGMIBACJ@ni?$AA@   00578c60     WinMain.obj
 0003:00001c64       ??_C@_02DKCKIIND@?$CFs?$AA@ 00578c64     WinMain.obj
 0003:00001c68       ??_C@_01EEMJAFIK@?6?$AA@   00578c68     WinMain.obj
 0003:00001c6c       ??_C@_0M@KBGGBPG@asphalt?4txt?$AA@ 00578c6c     WinMain.obj
 0003:00001c7c       ??_C@_01MCMALHOG@a?$AA@    00578c7c     WinMain.obj
 0003:00001c80       __real@3ff0000000000000    00578c80     WinMain.obj
 0003:00001c8c       __real@00000000            00578c8c     WinMain.obj
 0003:00001c90       __real@3f800000            00578c90     WinMain.obj
 0003:00001c94       __real@48800000            00578c94     Board3D.obj
 0003:00001c98       ??_C@_1CK@ELPPCJKD@?$AAi?$AA?$DO?$AA?$DN?$AA0?$AA?5?$AA?$CG?$AA?$CG?$AA?5?$AAi?$AA?5?$AA?$DM?$AA?5?$AAD?$AAX?$AA_?$AAR?$AAA?$AAN?$AAG?$AAE?$AA?$AA@ 00578c98     Board3D.obj
 0003:00001cd0       ??_C@_1FC@DBAJBNBD@?$AAd?$AA?3?$AA?2?$AAw?$AAo?$AAr?$AAk?$AAs?$AAp?$AAa?$AAc?$AAe?$AA?2?$AAe?$AAn?$AAg?$AAi?$AAn?$AAe?$AA?2?$AAs?$AAr?$AAc?$AA?2?$AAl?$AAi?$AAb?$AA3?$AAd?$AA2?$AA?2?$AAb@ 00578cd0     Board3D.obj
 0003:00001d34       ??_C@_0N@PEIIFCPM@InverseTable?$AA@ 00578d34     Board3D.obj
 0003:00001d44       ??_C@_0BJ@LAPHNGED@?$CFs?5min?3?5?$CFd?0?5max?3?5?$CFd?5max?6?$AA@ 00578d44     Board3D.obj
 0003:00001d64       ??_C@_0O@JHDCOKBO@d?3?2minmax?4txt?$AA@ 00578d64     Board3D.obj
 0003:00001d74       ??_C@_02CPIDLAI@at?$AA@    00578d74     Board3D.obj
 0003:00001d78       ??_C@_1CG@KEICBEBK@?$AAm?$AA_?$AAb?$AAi?$AAn?$AAd?$AAT?$AAe?$AAx?$AAt?$AAu?$AAr?$AAe?$AA?5?$AA?$CB?$AA?$DN?$AA?5?$AA0?$AA?$AA@ 00578d78     Board3D.obj
 0003:00001da8       ??_C@_1FG@OLDJMCCK@?$AAd?$AA?3?$AA?2?$AAw?$AAo?$AAr?$AAk?$AAs?$AAp?$AAa?$AAc?$AAe?$AA?2?$AAe?$AAn?$AAg?$AAi?$AAn?$AAe?$AA?2?$AAs?$AAr?$AAc?$AA?2?$AAl?$AAi?$AAb?$AA3?$AAd?$AA2?$AA?2?$AAb@ 00578da8     Board3D.obj
 0003:00001e10       ??_C@_1GC@FAOFEGFB@?$AAi?$AAn?$AAd?$AAe?$AAx?$AA?5?$AA?$DO?$AA?$DN?$AA0?$AA?5?$AA?$CG?$AA?$CG?$AA?5?$AAi?$AAn?$AAd?$AAe?$AAx?$AA?5?$AA?$DM?$AA?5?$AA?$CI?$AAt?$AAe?$AAx?$AA?4?$AAS?$AAi?$AAz?$AAe?$AAX?$AA?$CI@ 00578e10     Board3D.obj
 0003:00001e88       ??_C@_1FM@JNABFDEE@?$AAd?$AA?3?$AA?2?$AAw?$AAo?$AAr?$AAk?$AAs?$AAp?$AAa?$AAc?$AAe?$AA?2?$AAe?$AAn?$AAg?$AAi?$AAn?$AAe?$AA?2?$AAs?$AAr?$AAc?$AA?2?$AAl?$AAi?$AAb?$AA3?$AAd?$AA2?$AA?2?$AAc@ 00578e88     ConvexHull.obj
 0003:00001ef8       ??_C@_1CC@LFEAGJCM@?$AAi?$AA?$DO?$AA?$DN?$AA0?$AA?5?$AA?$CG?$AA?$CG?$AA?5?$AAi?$AA?$DM?$AAS?$AAi?$AAz?$AAe?$AA?$CI?$AA?$CJ?$AA?$AA@ 00578ef8     ConvexHull.obj
 0003:00001f20       ??_C@_1FI@KNFMDLHP@?$AAm?$AA_?$AAV?$AAe?$AAr?$AAt?$AAi?$AAc?$AAe?$AAN?$AAu?$AAm?$AA?5?$AA?$DM?$AA?5?$AA5?$AA0?$AA0?$AA0?$AA?5?$AA?$CG?$AA?$CG?$AA?5?$AAm?$AA_?$AAV?$AAe?$AAr?$AAt?$AAi?$AAc?$AAe@ 00578f20     ConvexHull.obj
 0003:00001f8c       ??_C@_1CC@BFCHJLAA@?$AAi?$AA?$DO?$AA?$DN?$AA0?$AA?5?$AA?$CG?$AA?$CG?$AA?5?$AAi?$AA?$DM?$AAm?$AA_?$AAs?$AAi?$AAz?$AAe?$AA?$AA@ 00578f8c     ConvexHull.obj
 0003:00001fb8       ??_7TFace@Lib3D@@6B@       00578fb8     Face.obj
 0003:00001fd4       ??_7COTObject@Lib3D@@6B@   00578fd4     Face.obj
 0003:00006cc4       ??_C@_1M@BNPMOHIB@?$AAl?$AA2?$AA?$DO?$AA?$DN?$AA0?$AA?$AA@ 0057dcc4     FSqrt.obj
 0003:00006cd8       ??_C@_1FC@NMDNBFIM@?$AAd?$AA?3?$AA?2?$AAw?$AAo?$AAr?$AAk?$AAs?$AAp?$AAa?$AAc?$AAe?$AA?2?$AAe?$AAn?$AAg?$AAi?$AAn?$AAe?$AA?2?$AAs?$AAr?$AAc?$AA?2?$AAl?$AAi?$AAb?$AA3?$AAd?$AA2?$AA?2?$AAf@ 0057dcd8     FSqrt.obj
 0003:00006d40       ?TSIN@Lib3D@@3QBHB         0057dd40     IMath.obj
 0003:00009610       ??_C@_1FC@CFKJNGMP@?$AA0?$AA?5?$AA?$DM?$AA?5?$AAi?$AAn?$AA_?$AAn?$AAX?$AAA?$AAn?$AAg?$AAl?$AAe?$AA?5?$AA?$CG?$AA?$CG?$AA?5?$AAi?$AAn?$AA_?$AAn?$AAX?$AAA?$AAn?$AAg?$AAl?$AAe?$AA?5?$AA?$DM?$AA?5?$AA?$CI@ 00580610     IMath.obj
 0003:00009678       ??_C@_1FC@IANLPOGJ@?$AAd?$AA?3?$AA?2?$AAw?$AAo?$AAr?$AAk?$AAs?$AAp?$AAa?$AAc?$AAe?$AA?2?$AAe?$AAn?$AAg?$AAi?$AAn?$AAe?$AA?2?$AAs?$AAr?$AAc?$AA?2?$AAl?$AAi?$AAb?$AA3?$AAd?$AA2?$AA?2?$AAi@ 00580678     IMath.obj
 0003:000096e0       ??_C@_1FC@OBMIIGDC@?$AA0?$AA?5?$AA?$DM?$AA?5?$AAi?$AAn?$AA_?$AAn?$AAY?$AAA?$AAn?$AAg?$AAl?$AAe?$AA?5?$AA?$CG?$AA?$CG?$AA?5?$AAi?$AAn?$AA_?$AAn?$AAY?$AAA?$AAn?$AAg?$AAl?$AAe?$AA?5?$AA?$DM?$AA?5?$AA?$CI@ 005806e0     IMath.obj
 0003:00009748       ??_C@_1HE@DFDBAIA@?$AAx?$AA?5?$AA?$DM?$AA?$DN?$AA?5?$AAd?$AAo?$AAu?$AAb?$AAl?$AAe?$AA?$CI?$AA2?$AA1?$AA4?$AA7?$AA4?$AA8?$AA3?$AA6?$AA4?$AA7?$AA?$CJ?$AA?5?$AA?$CG?$AA?$CG?$AA?5?$AAx?$AA?5?$AA?$DO?$AA?$DN?$AA?5@ 00580748     IMath.obj
 0003:000097d8       __real@c1e0000000000000    005807d8     IMath.obj
 0003:000097e8       __real@41dfffffffc00000    005807e8     IMath.obj
 0003:000097f8       ??_C@_1FI@NDIACNNM@?$AAx?$AA?5?$AA?$DM?$AA?$DN?$AA?5?$AAd?$AAo?$AAu?$AAb?$AAl?$AAe?$AA?$CI?$AA3?$AA2?$AA7?$AA6?$AA7?$AA?$CJ?$AA?5?$AA?$CG?$AA?$CG?$AA?5?$AAx?$AA?5?$AA?$DO?$AA?$DN?$AA?5?$AAd?$AAo?$AAu?$AAb?$AAl@ 005807f8     IMath.obj
 0003:00009868       __real@c0e0000000000000    00580868     IMath.obj
 0003:00009878       __real@40dfffc000000000    00580878     IMath.obj
 0003:00009884       ??_C@_1DO@LGPBJHHE@?$AAi?$AAn?$AAt?$AA?$CI?$AAf?$AAE?$AAr?$AAr?$AAo?$AAr?$AA?$CJ?$AA?5?$AA?$DM?$AA?$DN?$AA?5?$AAi?$AAn?$AAt?$AA?$CI?$AAf?$AAT?$AAo?$AAl?$AAe?$AAr?$AAa?$AAn?$AAc?$AAe?$AA?$CJ?$AA?$AA@ 00580884     IMath.obj
 0003:000098d0       __real@4059000000000000    005808d0     IMath.obj
 0003:000098e0       __real@0000000000000000    005808e0     IMath.obj
 0003:000098ec       ??_C@_1BK@HMFJMNNM@?$AAn?$AAb?$AAS?$AAu?$AAb?$AAM?$AAe?$AAs?$AAh?$AA?$DN?$AA?$DN?$AA1?$AA?$AA@ 005808ec     Keyframed.obj
 0003:0000990c       ??_C@_19NPDMHFCI@?$AAi?$AA?$DN?$AA?$DN?$AA1?$AA?$AA@ 0058090c     Keyframed.obj
 0003:00009918       ??_C@_1FK@BHDICFPC@?$AAd?$AA?3?$AA?2?$AAw?$AAo?$AAr?$AAk?$AAs?$AAp?$AAa?$AAc?$AAe?$AA?2?$AAe?$AAn?$AAg?$AAi?$AAn?$AAe?$AA?2?$AAs?$AAr?$AAc?$AA?2?$AAl?$AAi?$AAb?$AA3?$AAd?$AA2?$AA?2?$AAk@ 00580918     Keyframed.obj
 0003:00009988       ??_7SubMesh@TKeyFramed@@6B@ 00580988     Keyframed.obj
 0003:0000999c       ??_C@_09JMGGBPEM@KeyFramed?$AA@ 0058099c     Keyframed.obj
 0003:000099a8       ??_C@_17FFBLCHOA@?$AAr?$AAe?$AAs?$AA?$AA@ 005809a8     Keyframed.obj
 0003:000099b4       ??_C@_1BA@CEPIJHEF@?$AAr?$AAe?$AAs?$AA?$DM?$AA2?$AA5?$AA6?$AA?$AA@ 005809b4     Keyframed.obj
 0003:000099c8       ??_C@_1CK@POGJDOKA@?$AA?$CI?$AA?$CC?$AA_?$AAP?$AAo?$AAs?$AA?5?$AA?$DM?$AA?5?$AAs?$AAi?$AAz?$AAe?$AA?$CI?$AA?$CJ?$AA?$CC?$AA?0?$AA?5?$AA0?$AA?$CJ?$AA?$AA@ 005809c8     Keyframed.obj
 0003:00009a00       ??_C@_1JO@GGGPHBML@?$AAs?$AAt?$AAd?$AA?3?$AA?3?$AAv?$AAe?$AAc?$AAt?$AAo?$AAr?$AA?$DM?$AAc?$AAl?$AAa?$AAs?$AAs?$AA?5?$AAV?$AAe?$AAc?$AAt?$AAo?$AAr?$AA4?$AAs?$AA?0?$AAc?$AAl?$AAa?$AAs?$AAs@ 00580a00     Keyframed.obj
 0003:00009ac0       ??_C@_1DM@LHGCHCBA@?$AAv?$AAe?$AAc?$AAt?$AAo?$AAr?$AA?5?$AAs?$AAu?$AAb?$AAs?$AAc?$AAr?$AAi?$AAp?$AAt?$AA?5?$AAo?$AAu?$AAt?$AA?5?$AAo?$AAf?$AA?5?$AAr?$AAa?$AAn?$AAg?$AAe?$AA?$AA@ 00580ac0     Keyframed.obj
 0003:00009b08       ??_C@_1IK@MDMJADBH@?$AAc?$AA?3?$AA?2?$AAp?$AAr?$AAo?$AAg?$AAr?$AAa?$AAm?$AA?5?$AAf?$AAi?$AAl?$AAe?$AAs?$AA?5?$AA?$CI?$AAx?$AA8?$AA6?$AA?$CJ?$AA?2?$AAm?$AAi?$AAc?$AAr?$AAo?$AAs?$AAo?$AAf?$AAt@ 00580b08     Keyframed.obj
 0003:00009bb0       ??_C@_1EI@HGIDLLCM@?$AAv?$AAe?$AAc?$AAt?$AAo?$AAr?$AA?5?$AAe?$AAr?$AAa?$AAs?$AAe?$AA?5?$AAi?$AAt?$AAe?$AAr?$AAa?$AAt?$AAo?$AAr?$AA?5?$AAo?$AAu?$AAt?$AAs?$AAi?$AAd?$AAe?$AA?5?$AAr?$AAa@ 00580bb0     Keyframed.obj
 0003:00009c08       ??_C@_1EK@EEHFMKDC@?$AAv?$AAe?$AAc?$AAt?$AAo?$AAr?$AA?5?$AAi?$AAn?$AAs?$AAe?$AAr?$AAt?$AA?5?$AAi?$AAt?$AAe?$AAr?$AAa?$AAt?$AAo?$AAr?$AA?5?$AAo?$AAu?$AAt?$AAs?$AAi?$AAd?$AAe?$AA?5?$AAr@ 00580c08     Keyframed.obj
 0003:00009c60       ??_C@_0BD@OLBABOEK@vector?$DMT?$DO?5too?5long?$AA@ 00580c60     Keyframed.obj
 0003:00009c7c       ??_7length_error@std@@6B@  00580c7c     Keyframed.obj
 0003:00009c8c       ??_7logic_error@std@@6B@   00580c8c     Keyframed.obj
 0003:00009c98       ??_C@_1NE@LCALMIFO@?$AAs?$AAt?$AAd?$AA?3?$AA?3?$AA_?$AAV?$AAe?$AAc?$AAt?$AAo?$AAr?$AA_?$AAc?$AAo?$AAn?$AAs?$AAt?$AA_?$AAi?$AAt?$AAe?$AAr?$AAa?$AAt?$AAo?$AAr?$AA?$DM?$AAc?$AAl?$AAa?$AAs@ 00580c98     Keyframed.obj
 0003:00009d98       ??_C@_1NK@JLHOCNGO@?$AA?$CI?$AA?$CC?$AA_?$AAP?$AAv?$AAe?$AAc?$AAt?$AAo?$AAr?$AA?5?$AA?$DN?$AA?$DN?$AA?5?$AAN?$AAU?$AAL?$AAL?$AA?5?$AA?$HM?$AA?$HM?$AA?5?$AA?$CI?$AA?$CI?$AA?$CI?$AA_?$AAM?$AAy?$AAv?$AAe?$AAc?$AA?5@ 00580d98     Keyframed.obj
 0003:00009ea0       ??_C@_1BAC@KBDNDJPK@?$AA?$CI?$AA?$CC?$AA_?$AAM?$AAy?$AAp?$AAt?$AAr?$AA?5?$AA?$CL?$AA?5?$AA_?$AAO?$AAf?$AAf?$AA?5?$AA?$DM?$AA?$DN?$AA?5?$AA?$CI?$AA?$CI?$AA_?$AAM?$AAy?$AAv?$AAe?$AAc?$AA?5?$AA?$CK?$AA?$CJ?$AA?$CI?$AAt@ 00580ea0     Keyframed.obj
 0003:00009fd8       ??_C@_1LO@CPNBAOOF@?$AAs?$AAt?$AAd?$AA?3?$AA?3?$AA_?$AAV?$AAe?$AAc?$AAt?$AAo?$AAr?$AA_?$AAc?$AAo?$AAn?$AAs?$AAt?$AA_?$AAi?$AAt?$AAe?$AAr?$AAa?$AAt?$AAo?$AAr?$AA?$DM?$AAc?$AAl?$AAa?$AAs@ 00580fd8     Keyframed.obj
 0003:0000a0c0       ??_C@_1LG@KLIDJBDP@?$AAs?$AAt?$AAd?$AA?3?$AA?3?$AA_?$AAV?$AAe?$AAc?$AAt?$AAo?$AAr?$AA_?$AAc?$AAo?$AAn?$AAs?$AAt?$AA_?$AAi?$AAt?$AAe?$AAr?$AAa?$AAt?$AAo?$AAr?$AA?$DM?$AAc?$AAl?$AAa?$AAs@ 005810c0     Keyframed.obj
 0003:0000a19c       ??_C@_1DM@HINDPMBP@?$AAv?$AAe?$AAc?$AAt?$AAo?$AAr?$AA?5?$AAi?$AAt?$AAe?$AAr?$AAa?$AAt?$AAo?$AAr?$AAs?$AA?5?$AAi?$AAn?$AAc?$AAo?$AAm?$AAp?$AAa?$AAt?$AAi?$AAb?$AAl?$AAe?$AA?$AA@ 0058119c     Keyframed.obj
 0003:0000a1e4       ??_C@_1CO@DGLIKNHI@?$AAi?$AAn?$AAv?$AAa?$AAl?$AAi?$AAd?$AA?5?$AAi?$AAt?$AAe?$AAr?$AAa?$AAt?$AAo?$AAr?$AA?5?$AAr?$AAa?$AAn?$AAg?$AAe?$AA?$AA@ 005811e4     Keyframed.obj
 0003:0000a220       ??_C@_1IK@LNBCIPBM@?$AAc?$AA?3?$AA?2?$AAp?$AAr?$AAo?$AAg?$AAr?$AAa?$AAm?$AA?5?$AAf?$AAi?$AAl?$AAe?$AAs?$AA?5?$AA?$CI?$AAx?$AA8?$AA6?$AA?$CJ?$AA?2?$AAm?$AAi?$AAc?$AAr?$AAo?$AAs?$AAo?$AAf?$AAt@ 00581220     Keyframed.obj
 0003:0000a2c8       ??_C@_1BM@OCNJEJHK@?$AAm?$AA_?$AAc?$AAo?$AAl?$AAI?$AAn?$AAd?$AAe?$AAx?$AA?$DN?$AA?$DN?$AA0?$AA?$AA@ 005812c8     Lib3d.obj
 0003:0000a2f0       ??_C@_1FC@KIEPFNDC@?$AAd?$AA?3?$AA?2?$AAw?$AAo?$AAr?$AAk?$AAs?$AAp?$AAa?$AAc?$AAe?$AA?2?$AAe?$AAn?$AAg?$AAi?$AAn?$AAe?$AA?2?$AAs?$AAr?$AAc?$AA?2?$AAl?$AAi?$AAb?$AA3?$AAd?$AA2?$AA?2?$AAl@ 005812f0     Lib3d.obj
 0003:0000a358       ??_C@_1EM@FHGHKDAP@?$AAk?$AA_?$AAn?$AAF?$AAo?$AAv?$AAM?$AAi?$AAn?$AA?5?$AA?$DM?$AA?$DN?$AA?5?$AAn?$AAF?$AAO?$AAV?$AA?5?$AA?$CG?$AA?$CG?$AA?5?$AAn?$AAF?$AAO?$AAV?$AA?5?$AA?$DM?$AA?5?$AAk?$AA_?$AAn?$AAF@ 00581358     Lib3d.obj
 0003:0000a3b4       ??_C@_0BG@NFPAALBI@vertexBufferAllocated?$AA@ 005813b4     Lib3d.obj
 0003:0000a3d0       ??_C@_0BE@INKBBPJK@faceBufferAllocated?$AA@ 005813d0     Lib3d.obj
 0003:0000a3e8       ??_C@_1DG@MPDAMLJO@?$AAs?$AAc?$AAr?$AAe?$AAe?$AAn?$AAS?$AAp?$AAa?$AAc?$AAe?$AA?4?$AAz?$AA?5?$AA?$DO?$AA?5?$AA?9?$AAN?$AAE?$AAA?$AAR?$AA_?$AAC?$AAL?$AAI?$AAP?$AA?$AA@ 005813e8     Lib3d.obj
 0003:0000a428       __real@4150000000000000    00581428     Lib3d.obj
 0003:0000a434       ??_C@_13COJANIEC@?$AA0?$AA?$AA@ 00581434     Malloc.obj
 0003:0000a438       ??_C@_1CK@CDPFGODN@?$AAM?$AAe?$AAm?$AAB?$AAl?$AAo?$AAc?$AAk?$AAL?$AAi?$AAs?$AAt?$AA?$FL?$AAi?$AA?$FN?$AA?4?$AAA?$AAd?$AAd?$AAr?$AA?$AA@ 00581438     Malloc.obj
 0003:0000a470       ??_C@_1FE@DOHMEJGF@?$AAd?$AA?3?$AA?2?$AAw?$AAo?$AAr?$AAk?$AAs?$AAp?$AAa?$AAc?$AAe?$AA?2?$AAe?$AAn?$AAg?$AAi?$AAn?$AAe?$AA?2?$AAs?$AAr?$AAc?$AA?2?$AAl?$AAi?$AAb?$AA3?$AAd?$AA2?$AA?2?$AAm@ 00581470     Malloc.obj
 0003:0000a4d4       ??_C@_1CK@GFBMKBIA@?$AAM?$AAe?$AAm?$AAA?$AAl?$AAl?$AAo?$AAc?$AAC?$AAu?$AAr?$AAr?$AAe?$AAn?$AAt?$AA?5?$AA?$DO?$AA?$DN?$AA?5?$AA0?$AA?$AA@ 005814d4     Malloc.obj
 0003:0000a508       ??_C@_1DO@EFMDPNEB@?$AAM?$AAe?$AAm?$AAA?$AAl?$AAl?$AAo?$AAc?$AAC?$AAu?$AAr?$AAr?$AAe?$AAn?$AAt?$AA?5?$AA?$DN?$AA?$DN?$AA?5?$AAM?$AAe?$AAm?$AAA?$AAl?$AAl?$AAo?$AAc?$AAT?$AAa?$AAg?$AA?$AA@ 00581508     Malloc.obj
 0003:0000a558       ??_C@_1BI@JKIEAFAE@?$AA?$CK?$AAt?$AAh?$AAi?$AAs?$AA?5?$AA?$DN?$AA?$DN?$AA?5?$AAm?$AA1?$AA?$AA@ 00581558     Matrix.obj
 0003:0000a578       ??_C@_1FE@EEGDHBAA@?$AAd?$AA?3?$AA?2?$AAw?$AAo?$AAr?$AAk?$AAs?$AAp?$AAa?$AAc?$AAe?$AA?2?$AAe?$AAn?$AAg?$AAi?$AAn?$AAe?$AA?2?$AAs?$AAr?$AAc?$AA?2?$AAl?$AAi?$AAb?$AA3?$AAd?$AA2?$AA?2?$AAm@ 00581578     Matrix.obj
 0003:0000a5dc       ??_C@_1DG@FPPJFPHP@?$AAm?$AA_?$AAc?$AAu?$AAr?$AAr?$AAe?$AAn?$AAt?$AAM?$AAa?$AAt?$AAr?$AAi?$AAx?$AA?5?$AA?$DN?$AA?$DN?$AA?5?$AAm?$AA_?$AAs?$AAt?$AAa?$AAc?$AAk?$AA?$AA@ 005815dc     Matrix.obj
 0003:0000a620       ??_C@_1FG@BGLDMOPN@?$AAm?$AA_?$AAc?$AAu?$AAr?$AAr?$AAe?$AAn?$AAt?$AAM?$AAa?$AAt?$AAr?$AAi?$AAx?$AA?5?$AA?9?$AAm?$AA_?$AAs?$AAt?$AAa?$AAc?$AAk?$AA?5?$AA?$DM?$AA?$DN?$AA?5?$AAm?$AA_?$AAm?$AAa@ 00581620     Matrix.obj
 0003:0000a688       ??_C@_1DI@LBJJOBHO@?$AAm?$AA_?$AAc?$AAu?$AAr?$AAr?$AAe?$AAn?$AAt?$AAM?$AAa?$AAt?$AAr?$AAi?$AAx?$AA?9?$AAm?$AA_?$AAs?$AAt?$AAa?$AAc?$AAk?$AA?5?$AA?$DO?$AA?5?$AA0?$AA?$AA@ 00581688     Matrix.obj
 0003:0000a6e0       ??_7CMesh@Lib3D@@6B@       005816e0     Mesh.obj
 0003:0000a6e8       ??_C@_1CK@EOCKLLOK@?$AAm?$AA_?$AAv?$AAe?$AAr?$AAt?$AAe?$AAx?$AAK?$AAe?$AAy?$AAf?$AAr?$AAa?$AAm?$AAe?$AAs?$AA?$DN?$AA?$DN?$AA0?$AA?$AA@ 005816e8     Mesh.obj
 0003:0000a720       ??_C@_1FA@OPIGDMJP@?$AAd?$AA?3?$AA?2?$AAw?$AAo?$AAr?$AAk?$AAs?$AAp?$AAa?$AAc?$AAe?$AA?2?$AAe?$AAn?$AAg?$AAi?$AAn?$AAe?$AA?2?$AAs?$AAr?$AAc?$AA?2?$AAl?$AAi?$AAb?$AA3?$AAd?$AA2?$AA?2?$AAm@ 00581720     Mesh.obj
 0003:0000a780       ??_C@_1DM@NJBLBCDG@?$AAk?$AAe?$AAy?$AAf?$AAr?$AAa?$AAm?$AAe?$AAI?$AAn?$AAd?$AAe?$AAx?$AA?5?$AA?$DM?$AA?5?$AAm?$AA_?$AAn?$AAb?$AAK?$AAe?$AAy?$AAf?$AAr?$AAa?$AAm?$AAe?$AAs?$AA?$AA@ 00581780     Mesh.obj
 0003:0000a7c8       ??_C@_1CO@HKNDCFFN@?$AAf?$AAr?$AAa?$AAm?$AAe?$AA2?$AA?5?$AA?$DM?$AA?5?$AAm?$AA_?$AAn?$AAb?$AAK?$AAe?$AAy?$AAf?$AAr?$AAa?$AAm?$AAe?$AAs?$AA?$AA@ 005817c8     Mesh.obj
 0003:0000a800       ??_C@_1CO@BODDFOKD@?$AAf?$AAr?$AAa?$AAm?$AAe?$AA1?$AA?5?$AA?$DM?$AA?5?$AAm?$AA_?$AAn?$AAb?$AAK?$AAe?$AAy?$AAf?$AAr?$AAa?$AAm?$AAe?$AAs?$AA?$AA@ 00581800     Mesh.obj
 0003:0000a838       ??_C@_1CO@OPKDPBMI@?$AAf?$AAr?$AAa?$AAm?$AAe?$AA3?$AA?5?$AA?$DM?$AA?5?$AAm?$AA_?$AAn?$AAb?$AAK?$AAe?$AAy?$AAf?$AAr?$AAa?$AAm?$AAe?$AAs?$AA?$AA@ 00581838     Mesh.obj
 0003:0000a874       ??_7CGLMesh@Lib3D@@6B@     00581874     Mesh.obj
 0003:0000a880       __real@3fd0000000000000    00581880     Mesh.obj
 0003:0000a890       __real@3fe0000000000000    00581890     Mesh.obj
 0003:0000a8a0       __real@41b0000000000000    005818a0     Mesh.obj
 0003:0000a8b0       __real@40d0000000000000    005818b0     Mesh.obj
 0003:0000a8bc       ??_C@_1DG@BDBJPHKE@?$AAm?$AA_?$AAn?$AAb?$AAV?$AAe?$AAr?$AAt?$AAe?$AAx?$AA?5?$AA?$DM?$AA?$DN?$AA?5?$AAk?$AA_?$AAM?$AAA?$AAX?$AA_?$AAV?$AAT?$AAX?$AA_?$AAN?$AAB?$AA?$AA@ 005818bc     Mesh.obj
 0003:0000a8fc       __real@bf000000            005818fc     Mesh.obj
 0003:0000a900       __real@bf800000            00581900     Mesh.obj
 0003:0000a904       __real@3f000000            00581904     Mesh.obj
 0003:0000a908       ??_C@_1HM@CBEJJKHN@?$AAm?$AA_?$AAe?$AAn?$AAv?$AAR?$AAe?$AAf?$AAl?$AAe?$AAc?$AAt?$AAI?$AAn?$AAt?$AAe?$AAn?$AAs?$AAi?$AAt?$AAy?$AA?5?$AA?$DO?$AA?$DN?$AA?5?$AA0?$AA?4?$AA0?$AAf?$AA?5?$AA?$CG?$AA?$CG@ 00581908     Mesh.obj
 0003:0000a9a0       ??_C@_1EC@FIGKDCCA@?$AAi?$AAn?$AAd?$AAe?$AAx?$AA?5?$AA?$DO?$AA?$DN?$AA?5?$AA0?$AA?5?$AA?$CG?$AA?$CG?$AA?5?$AAi?$AAn?$AAd?$AAe?$AAx?$AA?5?$AA?$DM?$AA?5?$AAm?$AA_?$AAn?$AAb?$AAV?$AAe?$AAr?$AAt?$AAe?$AAx@ 005819a0     Mesh.obj
 0003:0000a9f0       __real@47c35000            005819f0     Mesh.obj
 0003:0000a9f4       ??_C@_1CO@HAPDBEEG@?$AAm?$AA_?$AAv?$AAe?$AAr?$AAt?$AAe?$AAx?$AAK?$AAe?$AAy?$AAf?$AAr?$AAa?$AAm?$AAe?$AAs?$AA?5?$AA?$DN?$AA?$DN?$AA?5?$AA0?$AA?$AA@ 005819f4     Mesh.obj
 0003:0000aa30       __real@40b0000000000000    00581a30     Mesh.obj
 0003:0000aa40       ??_7CBasicMesh@Lib3D@@6B@  00581a40     Mesh.obj
 0003:0000aa48       ??_C@_1CI@FAPLONOA@?$AAo?$AAf?$AAf?$AAp?$AA?5?$AA?$CB?$AA?$DN?$AA?5?$AAi?$AAn?$AAt?$AAe?$AAr?$AAv?$AAa?$AAl?$AAE?$AAn?$AAd?$AA?$AA@ 00581a48     rasterize.obj
 0003:0000aa78       ??_C@_1GE@GIBBEJCD@?$AAo?$AAf?$AAf?$AAp?$AAE?$AAn?$AAd?$AA?$DO?$AA?$DN?$AAo?$AAf?$AAf?$AAp?$AA?5?$AA?$CG?$AA?$CG?$AA?5?$AAo?$AAf?$AAf?$AAp?$AAE?$AAn?$AAd?$AA?$DM?$AA?$DN?$AA?5?$AA?$CI?$AAo?$AAf?$AAf?$AAp@ 00581a78     rasterize.obj
 0003:0000aaf0       ??_C@_1EI@OAIFCFPD@?$AAy?$AAD?$AAr?$AAa?$AAw?$AA?5?$AA?$DO?$AA?$DN?$AA0?$AA?5?$AA?$CG?$AA?$CG?$AA?5?$AAy?$AAD?$AAr?$AAa?$AAw?$AA?5?$AA?$DM?$AA?$DN?$AA?5?$AAb?$AAo?$AAa?$AAr?$AAd?$AA?4?$AAm?$AA_?$AAd?$AAi@ 00581af0     rasterize.obj
 0003:0000ab48       ??_C@_1FK@BMGNAAMH@?$AAd?$AA?3?$AA?2?$AAw?$AAo?$AAr?$AAk?$AAs?$AAp?$AAa?$AAc?$AAe?$AA?2?$AAe?$AAn?$AAg?$AAi?$AAn?$AAe?$AA?2?$AAs?$AAr?$AAc?$AA?2?$AAl?$AAi?$AAb?$AA3?$AAd?$AA2?$AA?2?$AAr@ 00581b48     rasterize.obj
 0003:0000abb8       ??_C@_1NK@CAJKDDFA@?$AAt?$AAe?$AAx?$AAt?$AAu?$AAr?$AAe?$AAD?$AAa?$AAt?$AAa?$AAS?$AAc?$AAr?$AAe?$AAe?$AAn?$AA?5?$AA?$CL?$AA?5?$AAt?$AAe?$AAx?$AAt?$AAu?$AAr?$AAe?$AAI?$AAd?$AAx?$AA?5?$AA?$DM@ 00581bb8     rasterize.obj
 0003:0000acc0       ??_C@_1GK@LAFJEFGG@?$AAo?$AAf?$AAf?$AAp?$AAE?$AAn?$AAd?$AA?5?$AA?$DO?$AA?$DN?$AA?5?$AAo?$AAf?$AAf?$AAp?$AA?5?$AA?$CG?$AA?$CG?$AA?5?$AAo?$AAf?$AAf?$AAp?$AAE?$AAn?$AAd?$AA?5?$AA?$DM?$AA?$DN?$AA?5?$AA?$CI?$AAo@ 00581cc0     rasterize.obj
 0003:0000ad40       ??_C@_1JG@LPKGLKOK@?$AAp?$AAa?$AAr?$AAa?$AAm?$AA?4?$AAo?$AAf?$AAf?$AAp?$AAE?$AAn?$AAd?$AA?$DO?$AA?$DN?$AAp?$AAa?$AAr?$AAa?$AAm?$AA?4?$AAo?$AAf?$AAf?$AAp?$AA?5?$AA?$CG?$AA?$CG?$AA?5?$AAp?$AAa?$AAr@ 00581d40     rasterize.obj
 0003:0000adf8       ??_C@_1GG@GHABLGBJ@?$AAo?$AAf?$AAf?$AAp?$AAE?$AAn?$AAd?$AA?$DO?$AA?$DN?$AAo?$AAf?$AAf?$AAp?$AA?5?$AA?$CG?$AA?$CG?$AA?5?$AAo?$AAf?$AAf?$AAp?$AAE?$AAn?$AAd?$AA?5?$AA?$DM?$AA?$DN?$AA?5?$AA?$CI?$AAo?$AAf?$AAf@ 00581df8     rasterize.obj
 0003:0000ae74       ??_C@_1BA@JNHAMECG@?$AAm?$AA_?$AAl?$AAi?$AAb?$AA2?$AAD?$AA?$AA@ 00581e74     rasterize.obj
 0003:0000ae88       ??_C@_1EM@PFKMOPGJ@?$AAd?$AA?3?$AA?2?$AAw?$AAo?$AAr?$AAk?$AAs?$AAp?$AAa?$AAc?$AAe?$AA?2?$AAe?$AAn?$AAg?$AAi?$AAn?$AAe?$AA?2?$AAs?$AAr?$AAc?$AA?2?$AAh?$AAg?$AA?2?$AAh?$AAi?$AAg?$AAh?$AAg@ 00581e88     rasterize.obj
 0003:0000af30       ??_7TBillboard@Lib3D@@6B@  00581f30     Render.obj
 0003:0000af48       __real@470ca000            00581f48     Render.obj
 0003:0000af50       __real@4030000000000000    00581f50     Render.obj
 0003:0000af60       __real@4020000000000000    00581f60     Render.obj
 0003:0000af6c       __real@47800000            00581f6c     Render.obj
 0003:0000af70       ??_C@_1GM@JNBOLDOO@?$AAm?$AA_?$AAs?$AAu?$AAb?$AAF?$AAa?$AAc?$AAe?$AAL?$AAi?$AAs?$AAt?$AAS?$AAi?$AAz?$AAe?$AA?$DO?$AA?$DN?$AA0?$AA?5?$AA?$CG?$AA?$CG?$AA?5?$AAm?$AA_?$AAs?$AAu?$AAb?$AAF?$AAa?$AAc@ 00581f70     Render.obj
 0003:0000aff8       ??_C@_1FE@DGLBHPPJ@?$AAd?$AA?3?$AA?2?$AAw?$AAo?$AAr?$AAk?$AAs?$AAp?$AAa?$AAc?$AAe?$AA?2?$AAe?$AAn?$AAg?$AAi?$AAn?$AAe?$AA?2?$AAs?$AAr?$AAc?$AA?2?$AAl?$AAi?$AAb?$AA3?$AAd?$AA2?$AA?2?$AAr@ 00581ff8     Render.obj
 0003:0000b060       __real@40f0000000000000    00582060     Render.obj
 0003:0000b06c       ??_C@_1BK@HOGOIDIG@?$AAi?$AA?$DM?$AAS?$AAU?$AAB?$AAD?$AAI?$AAV?$AA_?$AAM?$AAA?$AAX?$AA?$AA@ 0058206c     Render.obj
 0003:0000b090       ??_C@_1JA@KNPHCGAP@?$AA?$CI?$AAt?$AAv?$AA1?$AA?4?$AAV?$AAm?$AAa?$AAs?$AAk?$AA?$CI?$AA?$CJ?$AA?5?$AA?$CG?$AA?5?$AAk?$AAR?$AAe?$AAj?$AAe?$AAc?$AAt?$AAN?$AAe?$AAa?$AAr?$AA?$CJ?$AA?5?$AA?$CB?$AA?$DN?$AA0?$AAx@ 00582090     Render.obj
 0003:0000b13c       ??_C@_1DC@MJDLLCLE@?$AA?$CI?$AAn?$AAR?$AAo?$AAa?$AAd?$AAQ?$AAu?$AAa?$AAd?$AAs?$AA?5?$AA?$CK?$AA?5?$AA2?$AA?$CJ?$AA?5?$AA?$DM?$AA?$DN?$AA?5?$AA4?$AA0?$AA0?$AA0?$AA?$AA@ 0058213c     Render.obj
 0003:0000b178       ??_C@_1DE@JAPMBGHF@?$AA?$CI?$AAn?$AAF?$AAe?$AAn?$AAc?$AAe?$AAQ?$AAu?$AAa?$AAd?$AAs?$AA?5?$AA?$CK?$AA?5?$AA2?$AA?$CJ?$AA?5?$AA?$DM?$AA?$DN?$AA?5?$AA2?$AA0?$AA0?$AA0?$AA?$AA@ 00582178     Render.obj
 0003:0000b1b8       ??_C@_1EE@FKBLBAEH@?$AA?$CI?$AAn?$AAR?$AAo?$AAa?$AAd?$AAQ?$AAu?$AAa?$AAd?$AAs?$AA?5?$AA?$CK?$AA?5?$AA2?$AA?$CJ?$AA?5?$AA?$DM?$AA?$DN?$AA?5?$AA?$CI?$AA4?$AA0?$AA0?$AA0?$AA?5?$AA?9?$AA?5?$AA2?$AA0?$AA0?$AA0@ 005821b8     Render.obj
 0003:0000b20c       ??_C@_1DG@DEJMHFIK@?$AA?$CI?$AAF?$AA?9?$AA?$DO?$AAm?$AA_?$AAf?$AAl?$AAa?$AAg?$AA?5?$AA?$CG?$AA?5?$AA0?$AAx?$AA0?$AA0?$AA0?$AA0?$AA0?$AA1?$AA0?$AA?$CJ?$AA?$DN?$AA?$DN?$AA0?$AA?$AA@ 0058220c     Render.obj
 0003:0000b24c       ??_C@_1CM@OMLIBNCH@?$AAt?$AAy?$AAp?$AAe?$AA?5?$AA?$DO?$AA?$DN?$AA?5?$AA0?$AA?5?$AA?$CG?$AA?$CG?$AA?5?$AAt?$AAy?$AAp?$AAe?$AA?5?$AA?$DM?$AA?5?$AA7?$AA?$AA@ 0058224c     Render.obj
 0003:0000b280       ??_C@_1O@BJKMBCOA@?$AAm?$AA_?$AAf?$AAa?$AAc?$AAe?$AA?$AA@ 00582280     Render.obj
 0003:0000b290       ??_C@_1EM@GGDIACIE@?$AAd?$AA?3?$AA?2?$AAw?$AAo?$AAr?$AAk?$AAs?$AAp?$AAa?$AAc?$AAe?$AA?2?$AAe?$AAn?$AAg?$AAi?$AAn?$AAe?$AA?2?$AAs?$AAr?$AAc?$AA?2?$AAl?$AAi?$AAb?$AA3?$AAd?$AA2?$AA?2?$AAm@ 00582290     Render.obj
 0003:0000b2ec       ??_C@_1BC@EEHPKHOJ@?$AAm?$AA_?$AAv?$AAe?$AAr?$AAt?$AAe?$AAx?$AA?$AA@ 005822ec     Render.obj
 0003:0000b304       __real@c2c80000            00582304     Render.obj
 0003:0000b308       ??_C@_1DM@MEHGHCOJ@?$AAv?$AAt?$AAx?$AAI?$AAn?$AAd?$AAi?$AAc?$AAe?$AAs?$AAC?$AAo?$AAu?$AAn?$AAt?$AA?5?$AA?$DM?$AA?$DN?$AA?5?$AA?$CI?$AA4?$AA0?$AA0?$AA0?$AA?5?$AA?$CK?$AA?5?$AA3?$AA?$CJ?$AA?$AA@ 00582308     Render.obj
 0003:0000b350       ??_C@_1DK@FEOBMMHD@?$AAo?$AAb?$AAj?$AAe?$AAc?$AAt?$AA?9?$AA?$DO?$AAm?$AA_?$AAf?$AAl?$AAa?$AAg?$AA?5?$AA?$CB?$AA?$DN?$AA?5?$AA0?$AAx?$AAF?$AAF?$AAF?$AAF?$AAF?$AAF?$AAF?$AAF?$AA?$AA@ 00582350     Render.obj
 0003:0000b398       ??_C@_0BF@JNNDPEHE@?$CF4d?5?$CF4d?5?$CF4f?5?$CF4f?5?$CF4f?6?$AA@ 00582398     Render.obj
 0003:0000b3b4       ??_C@_0P@KHMEJCDK@d?3?2ottable?4txt?$AA@ 005823b4     Render.obj
 0003:0000b3c8       ??_C@_02BKFDOEMK@wt?$AA@   005823c8     Render.obj
 0003:0000b3d0       ??_C@_1GM@IDBACKLH@?$AA_?$AAp?$AAn?$AA?5?$AA?$DO?$AA?$DN?$AA0?$AA?5?$AA?$CG?$AA?$CG?$AA?5?$AA_?$AAp?$AAn?$AA?5?$AA?$DM?$AA?5?$AA?$CI?$AA_?$AAg?$AAL?$AAi?$AAb?$AA3?$AAd?$AA?9?$AA?$DO?$AAW?$AAi?$AAd?$AAt?$AAh@ 005823d0     SoftLine.obj
 0003:0000b458       ??_C@_1FI@PMIGNFJC@?$AAd?$AA?3?$AA?2?$AAw?$AAo?$AAr?$AAk?$AAs?$AAp?$AAa?$AAc?$AAe?$AA?2?$AAe?$AAn?$AAg?$AAi?$AAn?$AAe?$AA?2?$AAs?$AAr?$AAc?$AA?2?$AAl?$AAi?$AAb?$AA3?$AAd?$AA2?$AA?2?$AAs@ 00582458     SoftLine.obj
 0003:0000b4c4       ??_C@_1CA@PHAEGHHF@?$AAr?$AAl?$AAe?$AAh?$AA?4?$AAd?$AAa?$AAt?$AAa?$AAs?$AAi?$AAz?$AAe?$AA?$DO?$AA0?$AA?$AA@ 005824c4     texture.obj
 0003:0000b4ec       ??_C@_0O@DOLDFGHI@Cant?5open?5?$CFs?6?$AA@ 005824ec     texture.obj
 0003:0000b4fc       ??_C@_1BC@KHBAEOKB@?$AAf?$AAi?$AAl?$AAe?$AAN?$AAa?$AAm?$AAe?$AA?$AA@ 005824fc     texture.obj
 0003:0000b518       ??_C@_1FG@KKCGAPHE@?$AAd?$AA?3?$AA?2?$AAw?$AAo?$AAr?$AAk?$AAs?$AAp?$AAa?$AAc?$AAe?$AA?2?$AAe?$AAn?$AAg?$AAi?$AAn?$AAe?$AA?2?$AAs?$AAr?$AAc?$AA?2?$AAl?$AAi?$AAb?$AA3?$AAd?$AA2?$AA?2?$AAt@ 00582518     texture.obj
 0003:0000b580       ??_C@_1GA@KGACHOKN@?$AAs?$AA_?$AAm?$AAa?$AAp?$AAT?$AAe?$AAx?$AAU?$AAn?$AAi?$AAq?$AAu?$AAe?$AAI?$AAd?$AAT?$AAo?$AAG?$AAL?$AAT?$AAe?$AAx?$AAN?$AAa?$AAm?$AAe?$AA?$FL?$AAi?$AA?$FN?$AA?5?$AA?$CB@ 00582580     texture.obj
 0003:0000b5f4       ??_C@_1CG@BHAGMBNI@?$AAg?$AAl?$AAT?$AAe?$AAx?$AAt?$AAu?$AAr?$AAe?$AAN?$AAa?$AAm?$AAe?$AA?5?$AA?$CB?$AA?$DN?$AA?5?$AA0?$AA?$AA@ 005825f4     texture.obj
 0003:0000b628       ??_C@_1FC@KOJIFIAJ@?$AAd?$AA?3?$AA?2?$AAw?$AAo?$AAr?$AAk?$AAs?$AAp?$AAa?$AAc?$AAe?$AA?2?$AAe?$AAn?$AAg?$AAi?$AAn?$AAe?$AA?2?$AAs?$AAr?$AAc?$AA?2?$AAl?$AAi?$AAb?$AA3?$AAd?$AA2?$AA?2?$AAt@ 00582628     texture.obj
 0003:0000b68c       ??_C@_02GMLFBBN@wb?$AA@    0058268c     texture.obj
 0003:0000b690       ??_C@_1O@NOEPBBNL@?$AAb?$AAF?$AAo?$AAu?$AAn?$AAd?$AA?$AA@ 00582690     texture.obj
 0003:0000b6a0       ??_C@_1CG@FCEPKGHE@?$AAt?$AAe?$AAx?$AAt?$AAu?$AAr?$AAe?$AAs?$AA_?$AAn?$AAb?$AA?5?$AA?$DM?$AA?$DN?$AA?5?$AA1?$AA2?$AA8?$AA?$AA@ 005826a0     texture.obj
 0003:0000b700       ??_C@_1HM@IDGBBEML@?$AAv?$AAa?$AAl?$AA?5?$AA?$DM?$AA?$DN?$AA?5?$AAd?$AAo?$AAu?$AAb?$AAl?$AAe?$AA?$CI?$AA2?$AA1?$AA4?$AA7?$AA4?$AA8?$AA3?$AA6?$AA4?$AA7?$AA?$CJ?$AA?5?$AA?$CG?$AA?$CG?$AA?5?$AAv?$AAa?$AAl@ 00582700     Vector.obj
 0003:0000b798       ??_C@_1FE@KNKLMHBH@?$AAd?$AA?3?$AA?2?$AAw?$AAo?$AAr?$AAk?$AAs?$AAp?$AAa?$AAc?$AAe?$AA?2?$AAe?$AAn?$AAg?$AAi?$AAn?$AAe?$AA?2?$AAs?$AAr?$AAc?$AA?2?$AAl?$AAi?$AAb?$AA3?$AAd?$AA2?$AA?2?$AAv@ 00582798     Vector.obj
 0003:0000b7fc       ??_C@_1CI@PFKKNEJH@?$AAa?$AAx?$AAi?$AAs?$AA?$DO?$AA?$DN?$AA0?$AA?5?$AA?$CG?$AA?$CG?$AA?5?$AAa?$AAx?$AAi?$AAs?$AA?5?$AA?$DM?$AA?5?$AA3?$AA?$AA@ 005827fc     Vector.obj
 0003:0000b82c       ??_C@_1BI@MGACMLPC@?$AAi?$AA?$DO?$AA?$DN?$AA0?$AA?5?$AA?$CG?$AA?$CG?$AA?5?$AAi?$AA?$DM?$AA3?$AA?$AA@ 0058282c     Vector.obj
 0003:0000b848       ??_C@_1FA@DBBCMECE@?$AAd?$AA?3?$AA?2?$AAw?$AAo?$AAr?$AAk?$AAs?$AAp?$AAa?$AAc?$AAe?$AA?2?$AAe?$AAn?$AAg?$AAi?$AAn?$AAe?$AA?2?$AAs?$AAr?$AAc?$AA?2?$AAl?$AAi?$AAb?$AA3?$AAd?$AA2?$AA?2?$AAv@ 00582848     Vector.obj
 0003:0000b8a8       ??_C@_1BE@BMMLBGFF@?$AAd?$AAo?$AAt?$AA?$DN?$AA?$DN?$AA_?$AAd?$AAo?$AAt?$AA?$AA@ 005828a8     Vector.obj
 0003:0000b8c0       ??_C@_1DC@JEEFEDEJ@?$AAA?$AA?4?$AAx?$AA?5?$AA?$DM?$AA?$DN?$AA?5?$AAB?$AA?4?$AAx?$AA?5?$AA?$CG?$AA?$CG?$AA?5?$AAC?$AA?4?$AAx?$AA?5?$AA?$DM?$AA?$DN?$AA?5?$AAD?$AA?4?$AAx?$AA?$AA@ 005828c0     Vector.obj
 0003:0000bee8       ?m_NormalFontMap@CSprite@@2QBGB 00582ee8     AuroraSprite.obj
 0003:0000c0e8       ?m_NumberFontMap@CSprite@@2QBGB 005830e8     AuroraSprite.obj
 0003:0000c2e8       ?m_AssianFontMap@CSprite@@2QBGB 005832e8     AuroraSprite.obj
 0003:0000c7a8       ?m_ArabicFontMap@CSprite@@2QBGB 005837a8     AuroraSprite.obj
 0003:0000cc04       ??_7CModule@@6B@           00583c04     AuroraSprite.obj
 0003:0000cc10       ??_7CAuroraPalette@@6B@    00583c10     AuroraSprite.obj
 0003:0000cc18       ??_C@_1BE@GAFMHDJP@?$AAi?$AAn?$AAp?$AAu?$AAt?$AAF?$AAi?$AAl?$AAe?$AA?$AA@ 00583c18     AuroraSprite.obj
 0003:0000cc30       ??_C@_1FO@GODJPPAO@?$AAd?$AA?3?$AA?2?$AAw?$AAo?$AAr?$AAk?$AAs?$AAp?$AAa?$AAc?$AAe?$AA?2?$AAe?$AAn?$AAg?$AAi?$AAn?$AAe?$AA?2?$AAs?$AAr?$AAc?$AA?2?$AAl?$AAi?$AAb?$AA2?$AAd?$AA?2?$AAa?$AAu@ 00583c30     AuroraSprite.obj
 0003:0000cca4       ??_7CSprite@@6B@           00583ca4     AuroraSprite.obj
 0003:0000ccac       ??_C@_1CO@GJDOACEO@?$AAc?$AAl?$AAi?$AAp?$AAE?$AAn?$AAd?$AAY?$AA?5?$AA?$DM?$AA?$DN?$AA?5?$AAd?$AAe?$AAs?$AAt?$AAH?$AAe?$AAi?$AAg?$AAh?$AAt?$AA?$AA@ 00583cac     AuroraSprite.obj
 0003:0000cce4       ??_C@_1CM@BFLGPPLP@?$AAc?$AAl?$AAi?$AAp?$AAE?$AAn?$AAd?$AAX?$AA?5?$AA?$DM?$AA?$DN?$AA?5?$AAd?$AAe?$AAs?$AAt?$AAW?$AAi?$AAd?$AAt?$AAh?$AA?$AA@ 00583ce4     AuroraSprite.obj
 0003:0000cd18       ??_C@_1CA@NDOJMMHG@?$AAc?$AAl?$AAi?$AAp?$AAS?$AAt?$AAa?$AAr?$AAt?$AAY?$AA?5?$AA?$DO?$AA?$DN?$AA?5?$AA0?$AA?$AA@ 00583d18     AuroraSprite.obj
 0003:0000cd40       ??_C@_1CA@EOOGCNAA@?$AAc?$AAl?$AAi?$AAp?$AAS?$AAt?$AAa?$AAr?$AAt?$AAX?$AA?5?$AA?$DO?$AA?$DN?$AA?5?$AA0?$AA?$AA@ 00583d40     AuroraSprite.obj
 0003:0000cd68       ??_C@_1BO@CAGDEECE@?$AAc?$AAh?$AAa?$AAr?$AAL?$AAe?$AAn?$AAg?$AAt?$AAh?$AA?$DM?$AA5?$AA1?$AA2?$AA?$AA@ 00583d68     AuroraSprite.obj
 0003:0000cd8c       ??_C@_1BA@ONFMCPPP@?$AAc?$AA?5?$AA?$DN?$AA?$DN?$AA?5?$AA?$CK?$AAp?$AA?$AA@ 00583d8c     AuroraSprite.obj
 0003:0000cda0       ??_C@_1BG@GEHCMMAL@?$AAm?$AA_?$AAp?$AAC?$AAh?$AAa?$AAr?$AAM?$AAa?$AAp?$AA?$AA@ 00583da0     Font.obj
 0003:0000cdc0       ??_C@_1EO@HONONCBB@?$AAd?$AA?3?$AA?2?$AAw?$AAo?$AAr?$AAk?$AAs?$AAp?$AAa?$AAc?$AAe?$AA?2?$AAe?$AAn?$AAg?$AAi?$AAn?$AAe?$AA?2?$AAs?$AAr?$AAc?$AA?2?$AAl?$AAi?$AAb?$AA2?$AAd?$AA?2?$AAf?$AAo@ 00583dc0     Font.obj
 0003:0000ce24       ??_7CFontWrapper@@6B@      00583e24     FontWrapper.obj
 0003:0000ce2c       ??_C@_02DPKJAMEF@?$CFd?$AA@ 00583e2c     FontWrapper.obj
 0003:0000ce34       ??_7CLib2D@@6B@            00583e34     Lib2D.obj
 0003:0000ce40       ??_C@_1GE@MNFNGOCP@?$AA0?$AA?5?$AA?$DM?$AA?$DN?$AA?5?$AAi?$AAn?$AA_?$AAn?$AAY?$AA?5?$AA?$CG?$AA?$CG?$AA?5?$AAi?$AAn?$AA_?$AAn?$AAY?$AA?$CL?$AAi?$AAn?$AA_?$AAn?$AAH?$AAe?$AAi?$AAg?$AAh?$AAt?$AA?5?$AA?$DM@ 00583e40     Lib2D.obj
 0003:0000ceb8       ??_C@_1GA@MLHHOLHO@?$AA0?$AA?5?$AA?$DM?$AA?$DN?$AA?5?$AAi?$AAn?$AA_?$AAn?$AAX?$AA?5?$AA?$CG?$AA?$CG?$AA?5?$AAi?$AAn?$AA_?$AAn?$AAX?$AA?$CL?$AAi?$AAn?$AA_?$AAn?$AAW?$AAi?$AAd?$AAt?$AAh?$AA?5?$AA?$DM?$AA?$DN@ 00583eb8     Lib2D.obj
 0003:0000cf30       ??_C@_1FA@FECPNINH@?$AAd?$AA?3?$AA?2?$AAw?$AAo?$AAr?$AAk?$AAs?$AAp?$AAa?$AAc?$AAe?$AA?2?$AAe?$AAn?$AAg?$AAi?$AAn?$AAe?$AA?2?$AAs?$AAr?$AAc?$AA?2?$AAl?$AAi?$AAb?$AA2?$AAd?$AA?2?$AAl?$AAi@ 00583f30     Lib2D.obj
 0003:0000cf90       ??_C@_1CO@FNIDKHMC@?$AAd?$AAe?$AAq?$AAu?$AAe?$AA?5?$AAe?$AAm?$AAp?$AAt?$AAy?$AA?5?$AAb?$AAe?$AAf?$AAo?$AAr?$AAe?$AA?5?$AAp?$AAo?$AAp?$AA?$AA@ 00583f90     Lib2D.obj
 0003:0000cfc8       ??_C@_1II@FANICODI@?$AAc?$AA?3?$AA?2?$AAp?$AAr?$AAo?$AAg?$AAr?$AAa?$AAm?$AA?5?$AAf?$AAi?$AAl?$AAe?$AAs?$AA?5?$AA?$CI?$AAx?$AA8?$AA6?$AA?$CJ?$AA?2?$AAm?$AAi?$AAc?$AAr?$AAo?$AAs?$AAo?$AAf?$AAt@ 00583fc8     Lib2D.obj
 0003:0000d070       ??_C@_1LA@MEPFLOAK@?$AAs?$AAt?$AAd?$AA?3?$AA?3?$AA_?$AAD?$AAe?$AAq?$AAu?$AAe?$AA_?$AAc?$AAo?$AAn?$AAs?$AAt?$AA_?$AAi?$AAt?$AAe?$AAr?$AAa?$AAt?$AAo?$AAr?$AA?$DM?$AAc?$AAl?$AAa?$AAs?$AAs@ 00584070     Lib2D.obj
 0003:0000d148       ??_C@_1EE@INPCGGNP@?$AAd?$AAe?$AAq?$AAu?$AAe?$AA?5?$AAi?$AAt?$AAe?$AAr?$AAa?$AAt?$AAo?$AAr?$AA?5?$AAn?$AAo?$AAt?$AA?5?$AAd?$AAe?$AAr?$AAe?$AAf?$AAe?$AAr?$AAe?$AAn?$AAc?$AAa?$AAb?$AAl@ 00584148     Lib2D.obj
 0003:0000d19c       ??_C@_0BC@KBDMBKEH@deque?$DMT?$DO?5too?5long?$AA@ 0058419c     Lib2D.obj
 0003:0000d1b8       ??_C@_1MG@CCLLAMKI@?$AAs?$AAt?$AAd?$AA?3?$AA?3?$AA_?$AAD?$AAe?$AAq?$AAu?$AAe?$AA_?$AAc?$AAo?$AAn?$AAs?$AAt?$AA_?$AAi?$AAt?$AAe?$AAr?$AAa?$AAt?$AAo?$AAr?$AA?$DM?$AAc?$AAl?$AAa?$AAs?$AAs@ 005841b8     Lib2D.obj
 0003:0000d2a8       ??_C@_1BBC@GFBPNMEP@?$AA?$CI?$AA?$CC?$AA_?$AAP?$AAd?$AAe?$AAq?$AAu?$AAe?$AA?5?$AA?$CB?$AA?$DN?$AA?5?$AA0?$AA?5?$AA?$CG?$AA?$CG?$AA?5?$AA?$CI?$AA?$CI?$AA_?$AAM?$AAy?$AAd?$AAe?$AAq?$AAu?$AAe?$AA?5?$AA?$CK?$AA?$CJ?$AA_@ 005842a8     Lib2D.obj
 0003:0000d3f0       ??_C@_1BGA@LAEHHDOL@?$AA?$CI?$AA?$CC?$AA_?$AAM?$AAy?$AAo?$AAf?$AAf?$AA?5?$AA?$CL?$AA?5?$AA_?$AAO?$AAf?$AAf?$AA?5?$AA?$DM?$AA?$DN?$AA?5?$AA?$CI?$AA?$CI?$AA_?$AAM?$AAy?$AAd?$AAe?$AAq?$AAu?$AAe?$AA?5?$AA?$CK?$AA?$CJ@ 005843f0     Lib2D.obj
 0003:0000d598       ??_C@_1LC@BPCLEBCN@?$AAs?$AAt?$AAd?$AA?3?$AA?3?$AA_?$AAD?$AAe?$AAq?$AAu?$AAe?$AA_?$AAc?$AAo?$AAn?$AAs?$AAt?$AA_?$AAi?$AAt?$AAe?$AAr?$AAa?$AAt?$AAo?$AAr?$AA?$DM?$AAc?$AAl?$AAa?$AAs?$AAs@ 00584598     Lib2D.obj
 0003:0000d69c       ??_C@_08DPIJFOBF@main?4bar?$AA@ 0058469c     ArchivedFileManager.obj
 0003:0000d6b0       ??_7CArchivedFileManager@@6B@ 005846b0     ArchivedFileManager.obj
 0003:0000d6b8       ??_C@_0BI@BCBCAFKH@Error?0?5file?5not?5loaded?6?$AA@ 005846b8     ArchivedFileManager.obj
 0003:0000d6d4       ??_C@_0BP@CDOFDDMD@CreateFileMappingTable?5for?5?$CFs?6?$AA@ 005846d4     ArchivedFileManager.obj
 0003:0000d700       ??_7?$CSingleton@$01VCArchivedFileManager@@@@6B@ 00584700     ArchivedFileManager.obj
 0003:0000d70c       ??_7?$CSingletonNoAutoConstruct@$01VCArchivedFileManager@@@@6B@ 0058470c     ArchivedFileManager.obj
 0003:0000d718       ??_7ISingleton@@6B@        00584718     ArchivedFileManager.obj
 0003:0000d720       ??_C@_1II@BMPPGBOL@?$AAc?$AA?3?$AA?2?$AAp?$AAr?$AAo?$AAg?$AAr?$AAa?$AAm?$AA?5?$AAf?$AAi?$AAl?$AAe?$AAs?$AA?5?$AA?$CI?$AAx?$AA8?$AA6?$AA?$CJ?$AA?2?$AAm?$AAi?$AAc?$AAr?$AAo?$AAs?$AAo?$AAf?$AAt@ 00584720     ArchivedFileManager.obj
 0003:0000d7c8       ??_C@_1EM@MHOKKPFH@?$AAm?$AAa?$AAp?$AA?1?$AAs?$AAe?$AAt?$AA?5?$AAi?$AAn?$AAs?$AAe?$AAr?$AAt?$AA?5?$AAi?$AAt?$AAe?$AAr?$AAa?$AAt?$AAo?$AAr?$AA?5?$AAo?$AAu?$AAt?$AAs?$AAi?$AAd?$AAe?$AA?5@ 005847c8     ArchivedFileManager.obj
 0003:0000d828       ??_C@_1BPO@MCJPEHCF@?$AAs?$AAt?$AAd?$AA?3?$AA?3?$AA_?$AAT?$AAr?$AAe?$AAe?$AA?$DM?$AAc?$AAl?$AAa?$AAs?$AAs?$AA?5?$AAs?$AAt?$AAd?$AA?3?$AA?3?$AA_?$AAT?$AAm?$AAa?$AAp?$AA_?$AAt?$AAr?$AAa?$AAi@ 00584828     ArchivedFileManager.obj
 0003:0000da8c       ??_C@_1DO@CFEEPGGJ@?$AAm?$AAa?$AAp?$AA?1?$AAs?$AAe?$AAt?$AA?5?$AAi?$AAt?$AAe?$AAr?$AAa?$AAt?$AAo?$AAr?$AAs?$AA?5?$AAi?$AAn?$AAc?$AAo?$AAm?$AAp?$AAa?$AAt?$AAi?$AAb?$AAl?$AAe?$AA?$AA@ 00584a8c     ArchivedFileManager.obj
 0003:0000dad8       ??_C@_0BE@JONHPENG@map?1set?$DMT?$DO?5too?5long?$AA@ 00584ad8     ArchivedFileManager.obj
 0003:0000daf0       ??_C@_1BPM@KNJCNADP@?$AAs?$AAt?$AAd?$AA?3?$AA?3?$AA_?$AAT?$AAr?$AAe?$AAe?$AA?$DM?$AAc?$AAl?$AAa?$AAs?$AAs?$AA?5?$AAs?$AAt?$AAd?$AA?3?$AA?3?$AA_?$AAT?$AAm?$AAa?$AAp?$AA_?$AAt?$AAr?$AAa?$AAi@ 00584af0     ArchivedFileManager.obj
 0003:0000dd58       ??_C@_1EI@FHEHNNNM@?$AAm?$AAa?$AAp?$AA?1?$AAs?$AAe?$AAt?$AA?5?$AAi?$AAt?$AAe?$AAr?$AAa?$AAt?$AAo?$AAr?$AA?5?$AAn?$AAo?$AAt?$AA?5?$AAd?$AAe?$AAr?$AAe?$AAf?$AAe?$AAr?$AAe?$AAn?$AAc?$AAa@ 00584d58     ArchivedFileManager.obj
 0003:0000ddb0       ??_C@_1EK@PPDBPCAN@?$AAm?$AAa?$AAp?$AA?1?$AAs?$AAe?$AAt?$AA?5?$AAe?$AAr?$AAa?$AAs?$AAe?$AA?5?$AAi?$AAt?$AAe?$AAr?$AAa?$AAt?$AAo?$AAr?$AA?5?$AAo?$AAu?$AAt?$AAs?$AAi?$AAd?$AAe?$AA?5?$AAr@ 00584db0     ArchivedFileManager.obj
 0003:0000de08       ??_C@_1BPA@HDFCBCNN@?$AAs?$AAt?$AAd?$AA?3?$AA?3?$AA_?$AAT?$AAr?$AAe?$AAe?$AA?$DM?$AAc?$AAl?$AAa?$AAs?$AAs?$AA?5?$AAs?$AAt?$AAd?$AA?3?$AA?3?$AA_?$AAT?$AAm?$AAa?$AAp?$AA_?$AAt?$AAr?$AAa?$AAi@ 00584e08     ArchivedFileManager.obj
 0003:0000e060       ??_C@_1EG@OKCGOALM@?$AAm?$AAa?$AAp?$AA?1?$AAs?$AAe?$AAt?$AA?5?$AAi?$AAt?$AAe?$AAr?$AAa?$AAt?$AAo?$AAr?$AA?5?$AAn?$AAo?$AAt?$AA?5?$AAd?$AAe?$AAc?$AAr?$AAe?$AAm?$AAe?$AAn?$AAt?$AAa?$AAb@ 00585060     ArchivedFileManager.obj
 0003:0000e0b8       ??_C@_1BPA@ICJAPHMP@?$AAs?$AAt?$AAd?$AA?3?$AA?3?$AA_?$AAT?$AAr?$AAe?$AAe?$AA?$DM?$AAc?$AAl?$AAa?$AAs?$AAs?$AA?5?$AAs?$AAt?$AAd?$AA?3?$AA?3?$AA_?$AAT?$AAm?$AAa?$AAp?$AA_?$AAt?$AAr?$AAa?$AAi@ 005850b8     ArchivedFileManager.obj
 0003:0000e310       ??_C@_1EG@EHJFMBHJ@?$AAm?$AAa?$AAp?$AA?1?$AAs?$AAe?$AAt?$AA?5?$AAi?$AAt?$AAe?$AAr?$AAa?$AAt?$AAo?$AAr?$AA?5?$AAn?$AAo?$AAt?$AA?5?$AAi?$AAn?$AAc?$AAr?$AAe?$AAm?$AAe?$AAn?$AAt?$AAa?$AAb@ 00585310     ArchivedFileManager.obj
 0003:0000e364       ??_C@_1CE@IGJMOCCK@?$AAi?$AAn?$AAv?$AAa?$AAl?$AAi?$AAd?$AA?5?$AAo?$AAp?$AAe?$AAr?$AAa?$AAt?$AAo?$AAr?$AA?$DM?$AA?$AA@ 00585364     ArchivedFileManager.obj
 0003:0000e3b0       ??_7CFPSCounter@@6B@       005853b0     FPSCounter.obj
 0003:0000e3b8       ??_C@_0N@EMBIJMIB@FPS?3?$CFs?4?$CFs?5?$CFd?$AA@ 005853b8     FPSCounter.obj
 0003:0000e3cc       ??_7CFunctor@@6B@          005853cc     Functor.obj
 0003:0000e3d6       ?CLIENT_ID_ALL@Comms@@2EB  005853d6     HighGear.obj
 0003:0000e3d7       ?DEVICE_MAX@Comms@@2EB     005853d7     HighGear.obj
 0003:0000e3d8       ?LOCAL_DEVICE_NAME_SIZE@Comms@@2HB 005853d8     HighGear.obj
 0003:0000e3dc       ?CONNECTION_NONE@Comms@@2IB 005853dc     HighGear.obj
 0003:0000e3e0       ?CONNECTION_BLUETOOTH@Comms@@2IB 005853e0     HighGear.obj
 0003:0000e3e4       ?CONNECTION_WIFI@Comms@@2IB 005853e4     HighGear.obj
 0003:0000e3e8       ?QUEUE_RANK@Comms@@1IB     005853e8     HighGear.obj
 0003:0000e3ec       ?QUEUE_SIZE@Comms@@1IB     005853ec     HighGear.obj
 0003:0000e3f0       ?QUEUE_MASK@Comms@@1IB     005853f0     HighGear.obj
 0003:0000e3f4       ?QUEUE_DATA_BUFF_SIZE@Comms@@1IB 005853f4     HighGear.obj
 0003:0000e3fc       ??_7CHighGear@@6BITouchZonesListener@@@ 005853fc     HighGear.obj
 0003:0000e414       ??_7CHighGear@@6B?$CSingletonNoAutoConstruct@$00VCHighGear@@@@@ 00585414     HighGear.obj
 0003:0000e420       ??_7ITouchZonesListener@@6B@ 00585420     HighGear.obj
 0003:0000e434       ??_C@_06LPPMFGHI@IDO?32?6?$AA@ 00585434     HighGear.obj
 0003:0000e43c       ??_C@_0BD@LDOKPBFK@orientation?5?$CFd?5?$CFd?6?$AA@ 0058543c     HighGear.obj
 0003:0000e458       ??_C@_1FE@LLDLINCO@?$AAd?$AA?3?$AA?2?$AAw?$AAo?$AAr?$AAk?$AAs?$AAp?$AAa?$AAc?$AAe?$AA?2?$AAi?$AAp?$AAh?$AAo?$AAn?$AAe?$AA?2?$AAa?$AAh?$AAr?$AA?2?$AAs?$AAr?$AAc?$AA?2?$AAh?$AAg?$AA?2?$AAh@ 00585458     HighGear.obj
 0003:0000e4bc       ??_C@_0BE@LGGMADHP@sprite?2vpad?4bsprite?$AA@ 005854bc     HighGear.obj
 0003:0000e4d4       ??_C@_0BI@PHBCICDP@sprite?2mcbullet?4bsprite?$AA@ 005854d4     HighGear.obj
 0003:0000e4f0       ??_C@_0BL@KLLFBGIJ@sprite?2enemy_skull?4bsprite?$AA@ 005854f0     HighGear.obj
 0003:0000e510       ??_C@_0BN@MBIHFOPB@sprite?2enemy_vampire?4bsprite?$AA@ 00585510     HighGear.obj
 0003:0000e534       ??_C@_0BL@ECGANLGB@sprite?2enemy_mummy?4bsprite?$AA@ 00585534     HighGear.obj
 0003:0000e554       ??_C@_0BF@EAIIOPOE@sprite?2items?4bsprite?$AA@ 00585554     HighGear.obj
 0003:0000e570       ??_C@_0BE@JHOLABNM@sprite?2mc00?4bsprite?$AA@ 00585570     HighGear.obj
 0003:0000e588       ??_C@_0BK@CNLHMLLM@sprite?2interface0?4bsprite?$AA@ 00585588     HighGear.obj
 0003:0000e5a8       ??_C@_0BI@FHPEMNDE@sprite?2bg_floor?4bsprite?$AA@ 005855a8     HighGear.obj
 0003:0000e5c4       ??_C@_0BC@NBMIGMLL@sprite?2bg?4bsprite?$AA@ 005855c4     HighGear.obj
 0003:0000e5dc       ??_C@_0BG@MIGHPGAG@sprite?2splash?4bsprite?$AA@ 005855dc     HighGear.obj
 0003:0000e5f8       ??_C@_0BE@FGONIALK@sprite?2logo?4bsprite?$AA@ 005855f8     HighGear.obj
 0003:0000e614       ??_7?$CSingletonNoAutoConstruct@$00VCHighGear@@@@6B@ 00585614     HighGear.obj
 0003:0000e620       ??_C@_1EI@ODOAHAHP@?$AAd?$AAe?$AAq?$AAu?$AAe?$AA?5?$AAi?$AAn?$AAs?$AAe?$AAr?$AAt?$AA?5?$AAi?$AAt?$AAe?$AAr?$AAa?$AAt?$AAo?$AAr?$AA?5?$AAo?$AAu?$AAt?$AAs?$AAi?$AAd?$AAe?$AA?5?$AAr?$AAa@ 00585620     HighGear.obj
 0003:0000e678       ??_C@_1EC@CEAHEOFL@?$AAd?$AAe?$AAq?$AAu?$AAe?$AA?5?$AAi?$AAt?$AAe?$AAr?$AAa?$AAt?$AAo?$AAr?$AA?5?$AAn?$AAo?$AAt?$AA?5?$AAi?$AAn?$AAc?$AAr?$AAe?$AAm?$AAe?$AAn?$AAt?$AAa?$AAb?$AAl?$AAe@ 00585678     HighGear.obj
 0003:0000e6c8       ??_C@_1NC@EPBHAFKL@?$AA?$CI?$AA?$CC?$AA_?$AAM?$AAy?$AAo?$AAf?$AAf?$AA?5?$AA?$DM?$AA?5?$AA?$CI?$AA?$CI?$AA_?$AAM?$AAy?$AAd?$AAe?$AAq?$AAu?$AAe?$AA?5?$AA?$CK?$AA?$CJ?$AA?$CI?$AAt?$AAh?$AAi?$AAs?$AA?9?$AA?$DO?$AA_@ 005856c8     HighGear.obj
 0003:0000e7c8       ??_C@_1LC@GKFJEJGO@?$AAs?$AAt?$AAd?$AA?3?$AA?3?$AA_?$AAD?$AAe?$AAq?$AAu?$AAe?$AA_?$AAc?$AAo?$AAn?$AAs?$AAt?$AA_?$AAi?$AAt?$AAe?$AAr?$AAa?$AAt?$AAo?$AAr?$AA?$DM?$AAc?$AAl?$AAa?$AAs?$AAs@ 005857c8     HighGear.obj
 0003:0000e8a0       ??_C@_1KK@CICIELCJ@?$AAs?$AAt?$AAd?$AA?3?$AA?3?$AA_?$AAD?$AAe?$AAq?$AAu?$AAe?$AA_?$AAc?$AAo?$AAn?$AAs?$AAt?$AA_?$AAi?$AAt?$AAe?$AAr?$AAa?$AAt?$AAo?$AAr?$AA?$DM?$AAc?$AAl?$AAa?$AAs?$AAs@ 005858a0     HighGear.obj
 0003:0000e96c       ??_C@_1DK@CNDLFKCJ@?$AAd?$AAe?$AAq?$AAu?$AAe?$AA?5?$AAi?$AAt?$AAe?$AAr?$AAa?$AAt?$AAo?$AAr?$AAs?$AA?5?$AAi?$AAn?$AAc?$AAo?$AAm?$AAp?$AAa?$AAt?$AAi?$AAb?$AAl?$AAe?$AA?$AA@ 0058596c     HighGear.obj
 0003:0000e9b4       ??_C@_1M@ONBNGBOD@?$AAi?$AAn?$AAp?$AAu?$AAt?$AA?$AA@ 005859b4     Intl.obj
 0003:0000e9c8       ??_C@_1EI@FPCCHEIB@?$AAd?$AA?3?$AA?2?$AAw?$AAo?$AAr?$AAk?$AAs?$AAp?$AAa?$AAc?$AAe?$AA?2?$AAe?$AAn?$AAg?$AAi?$AAn?$AAe?$AA?2?$AAs?$AAr?$AAc?$AA?2?$AAh?$AAg?$AA?2?$AAi?$AAn?$AAt?$AAl?$AA?4@ 005859c8     Intl.obj
 0003:0000ea20       ??_C@_09HFIKBBHD@Game?2lang?$AA@ 00585a20     Intl.obj
 0003:0000ea2c       ??_C@_04LCMACLFG@?4txt?$AA@ 00585a2c     Intl.obj
 0003:0000ea34       ??_C@_02FEKCJMIO@ar?$AA@   00585a34     Intl.obj
 0003:0000ea38       ??_C@_02GKMBBBON@jp?$AA@   00585a38     Intl.obj
 0003:0000ea3c       ??_C@_02HJDGIJBC@sp?$AA@   00585a3c     Intl.obj
 0003:0000ea40       ??_C@_02MOLGKLA@it?$AA@    00585a40     Intl.obj
 0003:0000ea44       ??_C@_02FHOKNKPD@de?$AA@   00585a44     Intl.obj
 0003:0000ea48       ??_C@_02FBONIKAL@fr?$AA@   00585a48     Intl.obj
 0003:0000ea4c       ??_C@_02LFNMGJAP@en?$AA@   00585a4c     Intl.obj
 0003:0000ea50       ??_C@_0BJ@FAPHDGJI@textures?2neon_purple?4rle?$AA@ 00585a50     neon.obj
 0003:0000ea70       ??_C@_0BH@FFMICEDB@textures?2neon_cyan?4rle?$AA@ 00585a70     neon.obj
 0003:0000ea8c       ??_C@_0BJ@DMPEINHP@textures?2neon_yellow?4rle?$AA@ 00585a8c     neon.obj
 0003:0000eaac       ??_C@_0BJ@HBFOBELL@textures?2neon_orange?4rle?$AA@ 00585aac     neon.obj
 0003:0000eacc       ??_C@_0BH@IPLOEHCD@textures?2neon_blue?4rle?$AA@ 00585acc     neon.obj
 0003:0000eae8       ??_C@_0BI@JFOAANO@textures?2neon_green?4rle?$AA@ 00585ae8     neon.obj
 0003:0000eb04       ??_C@_0BG@KOCKAALM@textures?2neon_red?4rle?$AA@ 00585b04     neon.obj
 0003:0000eb20       ??_C@_1CE@FGPPFCOP@?$AAi?$AA?5?$AA?$DM?$AA?5?$AAm?$AA_?$AAn?$AAb?$AAM?$AAa?$AAt?$AAe?$AAr?$AAi?$AAa?$AAl?$AAs?$AA?$AA@ 00585b20     shadow.obj
 0003:0000eb50       __real@bff0000000000000    00585b50     shadow.obj
 0003:0000eb60       ??_7CSingletonManager@@6B@ 00585b60     Singleton.obj
 0003:0000eb68       ??_C@_1DA@PCEGEIHJ@?$AAm?$AA_?$AAp?$AAp?$AAS?$AAi?$AAn?$AAg?$AAl?$AAe?$AAt?$AAo?$AAn?$AAs?$AA?$FL?$AAI?$AAD?$AA?$FN?$AA?5?$AA?$DN?$AA?$DN?$AA?5?$AA0?$AA?$AA@ 00585b68     Singleton.obj
 0003:0000eba8       ??_C@_1EC@PPHMGCNJ@?$AA0?$AA?5?$AA?$DM?$AA?$DN?$AA?5?$AAI?$AAD?$AA?5?$AA?$CG?$AA?$CG?$AA?5?$AAI?$AAD?$AA?5?$AA?$DM?$AA?5?$AAk?$AA_?$AAn?$AAN?$AAu?$AAm?$AAS?$AAi?$AAn?$AAg?$AAl?$AAe?$AAt?$AAo?$AAn?$AAs@ 00585ba8     Singleton.obj
 0003:0000ebf8       ??_C@_1FC@EIKLJIAJ@?$AAd?$AA?3?$AA?2?$AAw?$AAo?$AAr?$AAk?$AAs?$AAp?$AAa?$AAc?$AAe?$AA?2?$AAe?$AAn?$AAg?$AAi?$AAn?$AAe?$AA?2?$AAs?$AAr?$AAc?$AA?2?$AAh?$AAg?$AA?2?$AAs?$AAi?$AAn?$AAg?$AAl@ 00585bf8     Singleton.obj
 0003:0000ec60       ??_7A_IFile@@6B@           00585c60     File_iPhone.obj
 0003:0000ec90       ??_C@_1GI@LELBHHKM@?$AA?$CB?$AA?$CI?$AAi?$AAn?$AA_?$AAn?$AAF?$AAl?$AAa?$AAg?$AAs?$AA?$CG?$AAO?$AAP?$AAE?$AAN?$AA_?$AAW?$AAR?$AAI?$AAT?$AAE?$AA?$CJ?$AA?5?$AA?$CG?$AA?$CG?$AA?5?$AA?$CB?$AA?$CI?$AAi?$AAn?$AA_@ 00585c90     File_iPhone.obj
 0003:0000ed10       ??_C@_1GK@LLJKIPOG@?$AA?$CB?$AA?$CI?$AAi?$AAn?$AA_?$AAp?$AAF?$AAi?$AAl?$AAe?$AAP?$AAa?$AAt?$AAh?$AA?$FL?$AA0?$AA?$FN?$AA?5?$AA?$CB?$AA?$DN?$AA?5?$AA?8?$AA?2?$AA0?$AA?8?$AA?5?$AA?$CG?$AA?$CG?$AA?5?$AAi?$AAn?$AA_@ 00585d10     File_iPhone.obj
 0003:0000ed90       ??_C@_1JA@HEFIEEOK@?$AAi?$AAn?$AA_?$AAb?$AAD?$AAa?$AAt?$AAa?$AAP?$AAa?$AAt?$AAh?$AA?5?$AA?$CG?$AA?$CG?$AA?5?$AA?$CB?$AA?$CI?$AAi?$AAn?$AA_?$AAn?$AAF?$AAl?$AAa?$AAg?$AAs?$AA?5?$AA?$CG?$AA?5?$AAO?$AAP@ 00585d90     File_iPhone.obj
 0003:0000ee40       ??_C@_1FO@LNCBHOKG@?$AAd?$AA?3?$AA?2?$AAw?$AAo?$AAr?$AAk?$AAs?$AAp?$AAa?$AAc?$AAe?$AA?2?$AAe?$AAn?$AAg?$AAi?$AAn?$AAe?$AA?2?$AAs?$AAr?$AAc?$AA?2?$AAi?$AAp?$AAh?$AAo?$AAn?$AAe?$AA?2?$AAf@ 00585e40     File_iPhone.obj
 0003:0000eeb0       ??_C@_08JJOHIGJJ@?4bsprite?$AA@ 00585eb0     File_iPhone.obj
 0003:0000eebc       ??_C@_04CCHAHKJA@user?$AA@ 00585ebc     File_iPhone.obj
 0003:0000eec4       ??_C@_1CI@CPFMLEBE@?$AA?3?$AA?3?$AAs?$AAt?$AAr?$AAl?$AAe?$AAn?$AA?$CI?$AAs?$AAt?$AAr?$AA?$CJ?$AA?$DM?$AA?5?$AA0?$AAx?$AAF?$AAF?$AA?$AA@ 00585ec4     File_iPhone.obj
 0003:0000eef4       ??_C@_1DK@OAJAGOEF@?$AAl?$AAe?$AAn?$AAg?$AAt?$AAh?$AA?5?$AA?$DM?$AA?5?$AAs?$AAi?$AAz?$AAe?$AAo?$AAf?$AA?$CI?$AAm?$AA_?$AAt?$AAm?$AAp?$AAS?$AAt?$AAr?$AAi?$AAn?$AAg?$AA?$CJ?$AA?$AA@ 00585ef4     File_iPhone.obj
 0003:0000ef3c       ??_C@_1BE@PIOODDIP@?$AA?$CB?$AAm?$AA_?$AAp?$AAC?$AAa?$AAc?$AAh?$AAe?$AA?$AA@ 00585f3c     File_iPhone.obj
 0003:0000ef54       ??_C@_02JDPG@rb?$AA@       00585f54     File_iPhone.obj
 0003:0000ef58       ??_C@_1CI@DDGNENCF@?$AAp?$AAA?$AAr?$AAc?$AAh?$AAi?$AAv?$AAe?$AA?9?$AA?$DO?$AAp?$AAD?$AAa?$AAt?$AAa?$AAF?$AAi?$AAl?$AAe?$AA?$AA@ 00585f58     File_iPhone.obj
 0003:0000ef88       ??_C@_1CO@MKGMKIMF@?$AAa?$AAr?$AAc?$AAM?$AAa?$AAn?$AA?9?$AA?$DO?$AAC?$AAu?$AAr?$AAr?$AAe?$AAn?$AAt?$AAA?$AAr?$AAc?$AAh?$AAi?$AAv?$AAe?$AA?$AA@ 00585f88     File_iPhone.obj
 0003:0000efc4       ??_7CArchivedFile@@6B@     00585fc4     File_iPhone.obj
 0003:0000eff4       ??_7CStreamBuffer@@6B@     00585ff4     File_iPhone.obj
 0003:0000f024       ??_C@_1CC@EONOIGMJ@?$AAm?$AA_?$AAp?$AAC?$AAr?$AAe?$AAa?$AAt?$AAe?$AAd?$AAB?$AAu?$AAf?$AAf?$AAe?$AAr?$AA?$AA@ 00586024     File_iPhone.obj
 0003:0000f050       ??_7CWinFile@@6B@          00586050     File_iPhone.obj
 0003:0000f07c       ??_C@_0CP@KDDJBKB@d?3?2workspace?2engine?2src?2iphone?2f@ 0058607c     File_iPhone.obj
 0003:0000f0b4       ??_C@_02DPNLHKJD@a?$CL?$AA@ 005860b4     File_iPhone.obj
 0003:0000f0b8       ??_C@_1DE@KOBKNDIC@?$AAp?$AAh?$AAe?$AAa?$AAp?$AA?9?$AA?$DO?$AAp?$AAo?$AAs?$AA?5?$AA?$DM?$AA?5?$AA?$CI?$AA1?$AA0?$AA2?$AA4?$AA?5?$AA?$CK?$AA?5?$AA5?$AA0?$AA0?$AA?$CJ?$AA?$AA@ 005860b8     File_iPhone.obj
 0003:0000f0f8       ??_C@_1CM@LPCBHOFI@?$AA?$CB?$AA?$CC?$AAA?$AAb?$AAn?$AAo?$AAr?$AAm?$AAa?$AAl?$AA?5?$AAC?$AAo?$AAn?$AAd?$AAi?$AAt?$AAi?$AAo?$AAn?$AA?$CC?$AA?$AA@ 005860f8     File_iPhone.obj
 0003:0000f130       ??_C@_1EO@JBHCCKDF@?$AAd?$AA?3?$AA?2?$AAw?$AAo?$AAr?$AAk?$AAs?$AAp?$AAa?$AAc?$AAe?$AA?2?$AAe?$AAn?$AAg?$AAi?$AAn?$AAe?$AA?2?$AAs?$AAr?$AAc?$AA?2?$AAc?$AAo?$AAm?$AAm?$AAo?$AAn?$AA?2?$AAt@ 00586130     File_iPhone.obj
 0003:0000f190       ??_C@_0BD@KEIJMHFF@Abnormal?5Condition?$AA@ 00586190     File_iPhone.obj
 0003:0000f1a8       ??_C@_1CC@IINNLFEH@?$AAv?$AAi?$AAe?$AAw?$AAp?$AAo?$AAr?$AAt?$AAH?$AA?5?$AA?$DM?$AA?$DN?$AA?5?$AA5?$AA1?$AA2?$AA?$AA@ 005861a8     ScreenBufferWrapper.obj
 0003:0000f1d0       ??_C@_1CC@FAABENDH@?$AAv?$AAi?$AAe?$AAw?$AAp?$AAo?$AAr?$AAt?$AAW?$AA?5?$AA?$DM?$AA?$DN?$AA?5?$AA5?$AA1?$AA2?$AA?$AA@ 005861d0     ScreenBufferWrapper.obj
 0003:0000f1f8       ??_C@_1GO@IHLGEPPL@?$AAd?$AA?3?$AA?2?$AAw?$AAo?$AAr?$AAk?$AAs?$AAp?$AAa?$AAc?$AAe?$AA?2?$AAe?$AAn?$AAg?$AAi?$AAn?$AAe?$AA?2?$AAs?$AAr?$AAc?$AA?2?$AAi?$AAp?$AAh?$AAo?$AAn?$AAe?$AA?2?$AAs@ 005861f8     ScreenBufferWrapper.obj
 0003:0000f280       __real@3f60000000000000    00586280     ScreenBufferWrapper.obj
 0003:0000f28c       ??_C@_1DK@LOBJDEKB@?$AA?$CB?$AAs?$AA_?$AAb?$AAI?$AAs?$AAG?$AAL?$AAL?$AAi?$AAn?$AAk?$AAe?$AAd?$AAT?$AAo?$AAS?$AAc?$AAr?$AAe?$AAe?$AAn?$AAB?$AAu?$AAf?$AAf?$AAe?$AAr?$AA?$AA@ 0058628c     ScreenBufferWrapper.obj
 0003:0000f2d4       ??_C@_1CO@FPLJFLDG@?$AAs?$AA_?$AAs?$AAr?$AAc?$AAb?$AAu?$AAf?$AAf?$AA_?$AAq?$AAu?$AAa?$AAd?$AAs?$AAN?$AAB?$AA?5?$AA?$DM?$AA?5?$AA5?$AA0?$AA?$AA@ 005862d4     ScreenBufferWrapper.obj
 0003:0000f30c       __real@3eaaaaab            0058630c     ScreenBufferWrapper.obj
 0003:0000f310       __real@3e000000            00586310     ScreenBufferWrapper.obj
 0003:0000f314       __real@3ecccccd            00586314     ScreenBufferWrapper.obj
 0003:0000f318       ??_C@_1BO@KINAMBGK@?$AAs?$AAt?$AAa?$AAt?$AAu?$AAs?$AA?$DN?$AA?$DN?$AA0?$AAx?$AA8?$AAC?$AAD?$AA5?$AA?$AA@ 00586318     TextureFBO.obj
 0003:0000f340       ??_C@_1FM@INGCPACA@?$AAd?$AA?3?$AA?2?$AAw?$AAo?$AAr?$AAk?$AAs?$AAp?$AAa?$AAc?$AAe?$AA?2?$AAe?$AAn?$AAg?$AAi?$AAn?$AAe?$AA?2?$AAs?$AAr?$AAc?$AA?2?$AAi?$AAp?$AAh?$AAo?$AAn?$AAe?$AA?2?$AAt@ 00586340     TextureFBO.obj
 0003:0000f3b0       ??_C@_09PHPLMAGK@m_win?4m4a?$AA@ 005863b0     SoundsTable.obj
 0003:0000f3bc       ??_C@_0M@CPPOBIK@m_title?4m4a?$AA@ 005863bc     SoundsTable.obj
 0003:0000f3cc       ??_C@_0L@BKFPICBO@m_menu?4m4a?$AA@ 005863cc     SoundsTable.obj
 0003:0000f3dc       ??_C@_0L@JJDLHFAA@m_lose?4m4a?$AA@ 005863dc     SoundsTable.obj
 0003:0000f3ec       ??_C@_0L@DPOHCION@m_bgm6?4m4a?$AA@ 005863ec     SoundsTable.obj
 0003:0000f3fc       ??_C@_0L@LJHDFKED@m_bgm5?4m4a?$AA@ 005863fc     SoundsTable.obj
 0003:0000f40c       ??_C@_0L@HCCPIJOG@m_bgm4?4m4a?$AA@ 0058640c     SoundsTable.obj
 0003:0000f41c       ??_C@_0L@GPCKLJFO@m_bgm3?4m4a?$AA@ 0058641c     SoundsTable.obj
 0003:0000f42c       ??_C@_0L@KEHGGKPL@m_bgm2?4m4a?$AA@ 0058642c     SoundsTable.obj
 0003:0000f43c       ??_C@_0L@CCOCBIFF@m_bgm1?4m4a?$AA@ 0058643c     SoundsTable.obj
 0003:0000f44c       ??_C@_0O@OADOAO@vfx_girl3?4wav?$AA@ 0058644c     SoundsTable.obj
 0003:0000f45c       ??_C@_0O@MLLMONKL@vfx_girl2?4wav?$AA@ 0058645c     SoundsTable.obj
 0003:0000f46c       ??_C@_0O@ENCIJPAF@vfx_girl1?4wav?$AA@ 0058646c     SoundsTable.obj
 0003:0000f47c       ??_C@_0BD@JMMPKGOK@sfx_grind_loop?4wav?$AA@ 0058647c     SoundsTable.obj
 0003:0000f494       ??_C@_0M@HBECKJMC@you_win?4wav?$AA@ 00586494     SoundsTable.obj
 0003:0000f4a4       ??_C@_0P@PPFABENI@last_place?4wav?$AA@ 005864a4     SoundsTable.obj
 0003:0000f4b8       ??_C@_06GNEJJJEC@go?4wav?$AA@ 005864b8     SoundsTable.obj
 0003:0000f4c0       ??_C@_07MBGEIOGB@3rd?4wav?$AA@ 005864c0     SoundsTable.obj
 0003:0000f4cc       ??_C@_05HELKFNHI@3?4wav?$AA@ 005864cc     SoundsTable.obj
 0003:0000f4d4       ??_C@_07KNLAHIEF@2nd?4wav?$AA@ 005864d4     SoundsTable.obj
 0003:0000f4e0       ??_C@_05LPOGIONN@2?4wav?$AA@ 005864e0     SoundsTable.obj
 0003:0000f4e8       ??_C@_07CGOAIADD@1st?4wav?$AA@ 005864e8     SoundsTable.obj
 0003:0000f4f4       ??_C@_05DJHCPMHD@1?4wav?$AA@ 005864f4     SoundsTable.obj
 0003:0000f4fc       ??_C@_08NCPJDCGK@move?4wav?$AA@ 005864fc     SoundsTable.obj
 0003:0000f508       ??_C@_0M@EAMNDJEK@confirm?4wav?$AA@ 00586508     SoundsTable.obj
 0003:0000f518       ??_C@_08BHCGDNJA@back?4wav?$AA@ 00586518     SoundsTable.obj
 0003:0000f524       ??_C@_0P@PEMLKJKN@superdrift?4wav?$AA@ 00586524     SoundsTable.obj
 0003:0000f538       ??_C@_0BE@JPCBLLGK@sfx_car_pass_by?4wav?$AA@ 00586538     SoundsTable.obj
 0003:0000f550       ??_C@_0BB@EJOMHEJL@sfx_car_jump?4wav?$AA@ 00586550     SoundsTable.obj
 0003:0000f564       ??_C@_0BG@JOBANGIC@police_siren_slow?4wav?$AA@ 00586564     SoundsTable.obj
 0003:0000f580       ??_C@_0BM@FCIODIPL@object_impact_woodblock?4wav?$AA@ 00586580     SoundsTable.obj
 0003:0000f5a4       ??_C@_0BA@MHJGJGJ@nitro_boost?4wav?$AA@ 005865a4     SoundsTable.obj
 0003:0000f5b8       ??_C@_0BA@CKKGGDGA@impact_wall?4wav?$AA@ 005865b8     SoundsTable.obj
 0003:0000f5cc       ??_C@_0BE@ELAGIHCM@helicopter_loop?4wav?$AA@ 005865cc     SoundsTable.obj
 0003:0000f5e4       ??_C@_0BB@DNDOEPN@engine_start?4wav?$AA@ 005865e4     SoundsTable.obj
 0003:0000f5f8       ??_C@_0BA@DDEENAKD@engine_roar?4wav?$AA@ 005865f8     SoundsTable.obj
 0003:0000f60c       ??_C@_0BC@PDLJGEIO@engine_muscle?4wav?$AA@ 0058660c     SoundsTable.obj
 0003:0000f624       ??_C@_0BF@CDBHOIME@engine_motorbike?4wav?$AA@ 00586624     SoundsTable.obj
 0003:0000f640       ??_C@_0O@LBHGOPGB@engine_8k?4wav?$AA@ 00586640     SoundsTable.obj
 0003:0000f650       ??_C@_0O@HBHKIACD@engine_4K?4wav?$AA@ 00586650     SoundsTable.obj
 0003:0000f660       ??_C@_09BFDECDGP@drift?4wav?$AA@ 00586660     SoundsTable.obj
 0003:0000f66c       ??_C@_0L@OCCLOOEM@clutch?4wav?$AA@ 0058666c     SoundsTable.obj
 0003:0000f67c       ??_C@_09GCJCPIGD@brake?4wav?$AA@ 0058667c     SoundsTable.obj
 0003:0000f688       ??_C@_0O@EJHHEMM@big_crash?4wav?$AA@ 00586688     SoundsTable.obj
 0003:0000f698       ??_C@_0BC@PLBMCDFH@pick_up_nitro?4wav?$AA@ 00586698     SoundsTable.obj
 0003:0000f6b0       ??_C@_0BB@PEBOCNE@pick_up_item?4wav?$AA@ 005866b0     SoundsTable.obj
 0003:0000f6c8       ?SOUND_FILE@@3QBQBDB       005866c8     SoundsTable.obj
 0003:0000f758       ?MUSIC_FILE@@3QBQBDB       00586758     SoundsTable.obj
 0003:0000f7a4       ??_C@_0N@PKBMFJDK@glBlendColor?$AA@ 005867a4     GLES_TO_WGL.obj
 0003:0000f7b4       ??_C@_0BJ@PBJNGLJH@glClientActiveTextureARB?$AA@ 005867b4     GLES_TO_WGL.obj
 0003:0000f7d4       ??_C@_0BD@IKCKKKNH@glActiveTextureARB?$AA@ 005867d4     GLES_TO_WGL.obj
 0003:0000f7ec       ??_C@_0BJ@FCLEPNJL@glDeleteRenderbuffersEXT?$AA@ 005867ec     GLES_TO_WGL.obj
 0003:0000f80c       ??_C@_0BI@NPEJNLO@glDeleteFramebuffersEXT?$AA@ 0058680c     GLES_TO_WGL.obj
 0003:0000f828       ??_C@_0BM@GOHPHGGE@glCheckFramebufferStatusEXT?$AA@ 00586828     GLES_TO_WGL.obj
 0003:0000f84c       ??_C@_0CJ@GLBPNGII@glGetFramebufferAttachmentParame@ 0058684c     GLES_TO_WGL.obj
 0003:0000f880       ??_C@_0BK@LFOBEPCF@glFramebufferTexture2DEXT?$AA@ 00586880     GLES_TO_WGL.obj
 0003:0000f8a0       ??_C@_0BN@BAGKOCJP@glFramebufferRenderbufferEXT?$AA@ 005868a0     GLES_TO_WGL.obj
 0003:0000f8c4       ??_C@_0BJ@NPDAOAPK@glRenderbufferStorageEXT?$AA@ 005868c4     GLES_TO_WGL.obj
 0003:0000f8e4       ??_C@_0BG@GLKALDNN@glBindRenderbufferEXT?$AA@ 005868e4     GLES_TO_WGL.obj
 0003:0000f900       ??_C@_0BG@HHIDFCMP@glGenRenderbuffersEXT?$AA@ 00586900     GLES_TO_WGL.obj
 0003:0000f91c       ??_C@_0BF@EMIECBAK@glBindFramebufferEXT?$AA@ 0058691c     GLES_TO_WGL.obj
 0003:0000f938       ??_C@_0BF@FFIJGJAM@glGenFramebuffersEXT?$AA@ 00586938     GLES_TO_WGL.obj
 0003:0000f9bc       ??_C@_04OCCELDNI@?$CF04d?$AA@ 005869bc     Comms.obj
 0003:0000f9cc       ??_7Comms@@6B@             005869cc     Comms.obj
 0003:0000fa20       ??_C@_0BN@MOPDEKOP@?6?5?4?4?4?5Comms?3?3RemoveDevice?$CI?$CJ?6?$AA@ 00586a20     Comms.obj
 0003:0000fa48       ??_C@_1FM@IBDIGKAD@?$AAd?$AA?3?$AA?2?$AAw?$AAo?$AAr?$AAk?$AAs?$AAp?$AAa?$AAc?$AAe?$AA?2?$AAe?$AAn?$AAg?$AAi?$AAn?$AAe?$AA?2?$AAs?$AAr?$AAc?$AA?2?$AAm?$AAu?$AAl?$AAt?$AAi?$AAp?$AAl?$AAa@ 00586a48     Comms.obj
 0003:0000fab8       ??_C@_0CB@IJEDHEBG@?6?5Comms?3?3QueuePut?5QUEUE?5is?5FULL?$CB@ 00586ab8     Comms.obj
 0003:0000fae0       ?DATA_BUFF_SIZE@CWinNetwork@@2HB 00586ae0     WinNetwork.obj
 0003:0000fae4       ??_C@_0DB@PNGLOFE@CWinNetwork?3?3CWinNetwork?3?5WSASta@ 00586ae4     WinNetwork.obj
 0003:0000fb20       ??_C@_0BK@CDJNDNIH@CWinNetwork?3?3?5constructor?$AA@ 00586b20     WinNetwork.obj
 0003:0000fb44       ??_7CWinNetwork@@6B@       00586b44     WinNetwork.obj
 0003:0000fb98       ??_C@_0CO@CNANPOIJ@CWinNetwork?3?3?5Connection?5closed?5@ 00586b98     WinNetwork.obj
 0003:0000fbd0       ??_C@_0CB@LIIIEDJP@CWinNetwork?3?3Queue?5overflow?5?$CB?$CB?$CB?6@ 00586bd0     WinNetwork.obj
 0003:0000fbf8       ??_C@_0CN@OOJPBIOH@CWinNetwork?3?3DeviceReceive?3?5sele@ 00586bf8     WinNetwork.obj
 0003:0000fc30       ??_C@_0BP@KKDGHELD@CWinNetwork?3?3Server?5name?5?$DN?5?$CFs?6?$AA@ 00586c30     WinNetwork.obj
 0003:0000fc58       ??_C@_0CI@CDCFMKHC@CWinNetwork?3?3update?5discover?3?5er@ 00586c58     WinNetwork.obj
 0003:0000fc88       ??_C@_0CA@CKCJGEA@CWinNetwork?3?3update?5discover?54?6?$AA@ 00586c88     WinNetwork.obj
 0003:0000fcb0       ??_C@_0DJ@GOOKPCEG@CWinNetwork?3?3Error?5when?5respondi@ 00586cb0     WinNetwork.obj
 0003:0000fcf4       ??_C@_0CA@HONIAMF@CWinNetwork?3?3update?5discover?53?6?$AA@ 00586cf4     WinNetwork.obj
 0003:0000fd1c       ??_C@_0CA@GCPOKPC@CWinNetwork?3?3update?5discover?52?6?$AA@ 00586d1c     WinNetwork.obj
 0003:0000fd44       ??_C@_0DM@LMJGFJLN@CWinNetwork?3?3Error?5when?5receivin@ 00586d44     WinNetwork.obj
 0003:0000fd8c       ??_C@_0CA@EGJFEKL@CWinNetwork?3?3update?5discover?51?6?$AA@ 00586d8c     WinNetwork.obj
 0003:0000fdb4       ??_C@_0CL@PAJGNNNC@CWinNetwork?3?3DeviceReceive?3?5recv@ 00586db4     WinNetwork.obj
 0003:0000fde8       ??_C@_0CL@CBAOJCCH@CWinNetwork?3?3AcceptLoop?5accept?5f@ 00586de8     WinNetwork.obj
 0003:0000fe1c       ??_C@_0CG@HDGCBBGA@CWinNetwork?3?3update?5accept?3?5erro@ 00586e1c     WinNetwork.obj
 0003:0000fe4c       ??_C@_0DG@BHMEABJC@CWinNetwork?3?3Error?5when?5sending?5@ 00586e4c     WinNetwork.obj
 0003:0000fe8c       ??_C@_04PCKEGFJH@7891?$AA@ 00586e8c     WinNetwork.obj
 0003:0000fe94       ??_C@_0BO@OABFFKCA@CWinNetwork?3?3DiscoverServers?6?$AA@ 00586e94     WinNetwork.obj
 0003:0000feb8       ??_C@_0CN@KFOGPKF@CWinNetwork?3?3StartHost?5Error?5at?5@ 00586eb8     WinNetwork.obj
 0003:0000fef0       ??_C@_0CI@BNCOAAHC@CWinNetwork?3?3StartHost?5bind?5fail@ 00586ef0     WinNetwork.obj
 0003:0000ff20       ??_C@_0CP@NFDCJCIJ@CWinNetwork?3?3StartHost?5Error?5at?5@ 00586f20     WinNetwork.obj
 0003:0000ff58       ??_C@_0CP@KCAKIOLM@CWinNetwork?3?3StartHost?5getaddrin@ 00586f58     WinNetwork.obj
 0003:0000ff90       ??_C@_04OLLPFENG@7890?$AA@ 00586f90     WinNetwork.obj
 0003:0000ff98       ??_C@_0BK@KINEBMHF@CWinNetwork?3?3StartServer?6?$AA@ 00586f98     WinNetwork.obj
 0003:0000ffb8       ??_C@_0DB@KKBPENEO@CWinNetwork?3?3InitDiscover?5setsoc@ 00586fb8     WinNetwork.obj
 0003:0000fff4       ??_C@_0CL@BNPCONAE@CWinNetwork?3?3InitDiscover?5bind?5f@ 00586ff4     WinNetwork.obj
 0003:00010028       ??_C@_0DC@LMFFONJM@CWinNetwork?3?3InitDiscover?5Error?5@ 00587028     WinNetwork.obj
 0003:00010064       ??_C@_0DC@MLGNPBKJ@CWinNetwork?3?3InitDiscover?5getadd@ 00587064     WinNetwork.obj
 0003:000100a0       ??_C@_0BM@IMKLOEKL@CWinNetwork?3?3StopListening?6?$AA@ 005870a0     WinNetwork.obj
 0003:000100c4       ??_C@_0BK@NMCKIMDE@CWinNetwork?3?3StartClient?6?$AA@ 005870c4     WinNetwork.obj
 0003:000100e4       ??_C@_0CN@KBDGKKHC@CWinNetwork?3?3Connect?5Error?3?5send@ 005870e4     WinNetwork.obj
 0003:0001011c       ??_C@_0CM@OCPGLJD@CWinNetwork?3?3ConnectLoop?5Error?5c@ 0058711c     WinNetwork.obj
 0003:00010150       ??_C@_0DB@BAHGFOBH@CWinNetwork?3?3ConnectLoop?5Error?5a@ 00587150     WinNetwork.obj
 0003:0001018c       ??_C@_0CD@OPJJKHGF@CWinNetwork?3?3Connect?5to?5server?5?$CF@ 0058718c     WinNetwork.obj
 0003:000101b8       ??_C@_0BJ@BLLDIMEB@CWinNetwork?3?3Disconnect?6?$AA@ 005871b8     WinNetwork.obj
 0003:000101d8       ??_C@_0CJ@DHIHBHLN@CWinNetwork?3?3DeviceSend?5send?5fai@ 005871d8     WinNetwork.obj
 0003:0001020c       ??_C@_0CK@IMIBCKLO@CWinNetwork?3?3DeviceSend?3?5select?5@ 0058720c     WinNetwork.obj
 0003:00010240       ??_C@_01LFCBOECM@?4?$AA@   00587240     WinNetwork.obj
 0003:00010244       ??_C@_0CH@PJACELAL@Error?5?$CFd?5when?5getting?5local?5host@ 00587244     WinNetwork.obj
 0003:00010274       ??_C@_0BJ@CAKGCJJJ@CWinNetwork?3?3?5destructor?$AA@ 00587274     WinNetwork.obj
 0003:000102f4       ??_C@_0BK@BMMPFBBH@invalid?5bit?5length?5repeat?$AA@ 005872f4     infblock.obj
 0003:00010314       ??_C@_0CE@GMIGFPBB@too?5many?5length?5or?5distance?5symb@ 00587314     infblock.obj
 0003:00010340       ??_C@_0BN@LGAADGOK@invalid?5stored?5block?5lengths?$AA@ 00587340     infblock.obj
 0003:00010364       ??_C@_0BD@PJCBIDD@invalid?5block?5type?$AA@ 00587364     infblock.obj
 0003:0001037c       ??_C@_0BG@LBKINIKP@invalid?5distance?5code?$AA@ 0058737c     infcodes.obj
 0003:00010398       ??_C@_0BM@FFFLPBBC@invalid?5literal?1length?5code?$AA@ 00587398     infcodes.obj
 0003:000103bc       ??_C@_05HBMFIKCP@1?41?43?$AA@ 005873bc     inflate.obj
 0003:000103c4       ??_C@_0BF@MEIGEHBE@incorrect?5data?5check?$AA@ 005873c4     inflate.obj
 0003:000103e0       ??_C@_0BA@MOKMMFOD@need?5dictionary?$AA@ 005873e0     inflate.obj
 0003:000103f4       ??_C@_0BH@LIBMMIGA@incorrect?5header?5check?$AA@ 005873f4     inflate.obj
 0003:00010410       ??_C@_0BE@EMOGCLGO@invalid?5window?5size?$AA@ 00587410     inflate.obj
 0003:00010428       ??_C@_0BL@IHKGDAEE@unknown?5compression?5method?$AA@ 00587428     inflate.obj
 0003:0001069c       ??_C@_0CE@LOHAHEGK@incomplete?5dynamic?5bit?5lengths?5t@ 0058769c     inftrees.obj
 0003:000106c8       ??_C@_0CI@CGMOPDPD@oversubscribed?5dynamic?5bit?5lengt@ 005876c8     inftrees.obj
 0003:000106f8       ??_C@_0CB@KPKKKLFO@empty?5distance?5tree?5with?5lengths@ 005876f8     inftrees.obj
 0003:00010720       ??_C@_0BJ@CBCPDPJF@incomplete?5distance?5tree?$AA@ 00587720     inftrees.obj
 0003:00010740       ??_C@_0BN@KBLCDIAI@oversubscribed?5distance?5tree?$AA@ 00587740     inftrees.obj
 0003:00010764       ??_C@_0BP@NEEEJJNA@incomplete?5literal?1length?5tree?$AA@ 00587764     inftrees.obj
 0003:0001078c       ??_C@_0CD@GJIDGCKE@oversubscribed?5literal?1length?5tr@ 0058778c     inftrees.obj
 0003:000107b8       _inflate_mask              005877b8     infutil.obj
 0003:0001080c       ??_C@_07OGKLPOMJ@Musics?2?$AA@ 0058780c     SoundManager.obj
 0003:00010818       ??_C@_07LFJKBJOE@Sounds?2?$AA@ 00587818     SoundManager.obj
 0003:00010828       ??_7CTouchZones@@6B@       00587828     TouchZones.obj
 0003:00010830       ??_C@_1CI@GIKFBBPA@?$AAZ?$AAo?$AAn?$AAe?$AAs?$AAN?$AAo?$AA?5?$AA?$DM?$AA?5?$AAM?$AAA?$AAX?$AA_?$AAZ?$AAO?$AAN?$AAE?$AAS?$AA?$AA@ 00587830     TouchZones.obj
 0003:00010860       ??_C@_1GO@FELMCEJA@?$AAd?$AA?3?$AA?2?$AAw?$AAo?$AAr?$AAk?$AAs?$AAp?$AAa?$AAc?$AAe?$AA?2?$AAi?$AAp?$AAh?$AAo?$AAn?$AAe?$AA?2?$AAa?$AAh?$AAr?$AA?2?$AAs?$AAr?$AAc?$AA?2?$AAt?$AAo?$AAu?$AAc@ 00587860     TouchZones.obj
 0003:000108e4       ??_C@_0BE@NALFOBCP@CHEAT?5UNLOCK?5ALL?$CB?$CB?$CB?$AA@ 005878e4     TouchZones.obj
 0003:00010900       ??_7?$CSingleton@$09VCTouchZones@@@@6B@ 00587900     TouchZones.obj
 0003:0001090c       ??_7?$CSingletonNoAutoConstruct@$09VCTouchZones@@@@6B@ 0058790c     TouchZones.obj
 0003:00010918       ??_C@_1EC@DLDIHHJH@?$AAm?$AA_?$AAn?$AAN?$AAu?$AAm?$AA2?$AAD?$AAQ?$AAu?$AAa?$AAd?$AAs?$AA?5?$AA?$DM?$AA?5?$AA?$CI?$AA?5?$AA?$CI?$AA?5?$AA2?$AA5?$AA0?$AA0?$AA?5?$AA?$CJ?$AA?5?$AA?9?$AA?5?$AA1?$AA?5?$AA?$CJ@ 00587918     Lib3DGL.obj
 0003:00010968       ??_C@_1FI@MOBCGMKK@?$AAd?$AA?3?$AA?2?$AAw?$AAo?$AAr?$AAk?$AAs?$AAp?$AAa?$AAc?$AAe?$AA?2?$AAe?$AAn?$AAg?$AAi?$AAn?$AAe?$AA?2?$AAs?$AAr?$AAc?$AA?2?$AAl?$AAi?$AAb?$AA3?$AAd?$AAg?$AAl?$AA?2@ 00587968     Lib3DGL.obj
 0003:000109d8       ??_C@_1FC@FLAGAKFE@?$AAm?$AA_?$AAn?$AAN?$AAu?$AAm?$AA2?$AAD?$AAQ?$AAu?$AAa?$AAd?$AAs?$AA?5?$AA?$DM?$AA?5?$AA?$CI?$AA?5?$AA?$CI?$AA?5?$AA2?$AA5?$AA0?$AA0?$AA?5?$AA?$CJ?$AA?5?$AA?9?$AA?5?$AAp?$AAr?$AAe@ 005879d8     Lib3DGL.obj
 0003:00010a40       ??_C@_1GA@PFCJKCAA@?$AAd?$AAs?$AAt?$AAP?$AAo?$AAw?$AA2?$AAW?$AAi?$AAd?$AAt?$AAh?$AA?5?$AA?$CK?$AA?5?$AAd?$AAs?$AAt?$AAP?$AAo?$AAw?$AA2?$AAH?$AAe?$AAi?$AAg?$AAh?$AAt?$AA?5?$AA?$DM?$AA?$DN?$AA?5@ 00587a40     Lib3DGL.obj
 0003:00010ab4       ??_C@_0BP@DDAPLBDA@GL_IMG_texture_format_BGRA8888?$AA@ 00587ab4     OGLESTools:PVRTTextureAPI.obj
 0003:00010adc       ??_C@_0CB@NNACAPEE@GL_IMG_texture_compression_pvrtc@ 00587adc     OGLESTools:PVRTTextureAPI.obj
 0003:00010ba4       ??_C@_0BC@NLDIDNMF@ModulationBits?$DN?$DN0?$AA@ 00587ba4     OGLESTools:PVRTDecompress.obj
 0003:00010bc0       ??_C@_0HA@KICEPNDK@c?3?2dev?2buildxl?2OGLES_WindowsPCEm@ 00587bc0     OGLESTools:PVRTDecompress.obj
 0003:00010c48       ??_C@_0BA@KCMJCIIP@Result?$FLk?$FN?5?$DM?5256?$AA@ 00587c48     OGLESTools:PVRTDecompress.obj
 0003:00010c84       ??_C@_0BC@KNNGPLEK@POWER_OF_2?$CIXSize?$CJ?$AA@ 00587c84     OGLESTools:PVRTDecompress.obj
 0003:00010c9c       ??_C@_0BC@LKBPAPO@POWER_OF_2?$CIYSize?$CJ?$AA@ 00587c9c     OGLESTools:PVRTDecompress.obj
 0003:00010cb4       ??_C@_0N@EGKJFDGJ@XPos?5?$DM?5XSize?$AA@ 00587cb4     OGLESTools:PVRTDecompress.obj
 0003:00010cc4       ??_C@_0N@FAGDFJEJ@YPos?5?$DM?5YSize?$AA@ 00587cc4     OGLESTools:PVRTDecompress.obj
 0003:00010cd4       ??_C@_0BH@CPIJKLBJ@glMultiDrawElementsEXT?$AA@ 00587cd4     OGLESTools:PVRTglesExt.obj
 0003:00010cf0       ??_C@_0BJ@BEDGNCEH@GL_EXT_multi_draw_arrays?$AA@ 00587cf0     OGLESTools:PVRTglesExt.obj
 0003:00010d10       ??_C@_0BM@MBNDOCOP@glGetTexStreamDeviceNameIMG?$AA@ 00587d10     OGLESTools:PVRTglesExt.obj
 0003:00010d34       ??_C@_0BD@PIBFHNP@glTexBindStreamIMG?$AA@ 00587d34     OGLESTools:PVRTglesExt.obj
 0003:00010d4c       ??_C@_0CA@HGPCMJNE@glGetTexStreamDeviceAttribivIMG?$AA@ 00587d4c     OGLESTools:PVRTglesExt.obj
 0003:00010d74       ??_C@_0BG@IMEBFAFH@GL_IMG_texture_stream?$AA@ 00587d74     OGLESTools:PVRTglesExt.obj
 0003:00010d90       ??_C@_0P@IDAMELLM@glDrawTexfvOES?$AA@ 00587d90     OGLESTools:PVRTglesExt.obj
 0003:00010da4       ??_C@_0O@LBIAPMHD@glDrawTexfOES?$AA@ 00587da4     OGLESTools:PVRTglesExt.obj
 0003:00010db4       ??_C@_0P@LKNACIFH@glDrawTexxvOES?$AA@ 00587db4     OGLESTools:PVRTglesExt.obj
 0003:00010dc8       ??_C@_0O@GOFANFJA@glDrawTexxOES?$AA@ 00587dc8     OGLESTools:PVRTglesExt.obj
 0003:00010dd8       ??_C@_0P@NABHNIJE@glDrawTexsvOES?$AA@ 00587dd8     OGLESTools:PVRTglesExt.obj
 0003:00010dec       ??_C@_0O@BJIAOEIB@glDrawTexsOES?$AA@ 00587dec     OGLESTools:PVRTglesExt.obj
 0003:00010dfc       ??_C@_0P@HCFKPJGJ@glDrawTexivOES?$AA@ 00587dfc     OGLESTools:PVRTglesExt.obj
 0003:00010e10       ??_C@_0O@DDNAGLKC@glDrawTexiOES?$AA@ 00587e10     OGLESTools:PVRTglesExt.obj
 0003:00010e20       ??_C@_0BE@ONCICKKB@GL_OES_draw_texture?$AA@ 00587e20     OGLESTools:PVRTglesExt.obj
 0003:00010e38       ??_C@_0BO@OHCIBKNP@glProgramLocalParameter4fvARB?$AA@ 00587e38     OGLESTools:PVRTglesExt.obj
 0003:00010e5c       ??_C@_0BN@DBLLDHNC@glProgramLocalParameter4fARB?$AA@ 00587e5c     OGLESTools:PVRTglesExt.obj
 0003:00010e80       ??_C@_0BM@JFOBMKCG@glProgramEnvParameter4fvARB?$AA@ 00587e80     OGLESTools:PVRTglesExt.obj
 0003:00010ea4       ??_C@_0BL@PPAMELBE@glProgramEnvParameter4fARB?$AA@ 00587ea4     OGLESTools:PVRTglesExt.obj
 0003:00010ec4       ??_C@_0BM@DIEJBCK@glProgramEnvParameter4xvIMG?$AA@ 00587ec4     OGLESTools:PVRTglesExt.obj
 0003:00010ee8       ??_C@_0BL@IPGFFKBA@glProgramEnvParameter4xIMG?$AA@ 00587ee8     OGLESTools:PVRTglesExt.obj
 0003:00010f08       ??_C@_0BO@HBENEBND@glProgramLocalParameter4xvIMG?$AA@ 00587f08     OGLESTools:PVRTglesExt.obj
 0003:00010f2c       ??_C@_0BN@EBNCCGNG@glProgramLocalParameter4xIMG?$AA@ 00587f2c     OGLESTools:PVRTglesExt.obj
 0003:00010f50       ??_C@_0BF@OOEHEGGI@glVertexAttrib4xvIMG?$AA@ 00587f50     OGLESTools:PVRTglesExt.obj
 0003:00010f6c       ??_C@_0BF@HICCBNGE@glVertexAttrib4fvARB?$AA@ 00587f6c     OGLESTools:PVRTglesExt.obj
 0003:00010f88       ??_C@_0BB@JDDNIFAN@glGenProgramsARB?$AA@ 00587f88     OGLESTools:PVRTglesExt.obj
 0003:00010f9c       ??_C@_0P@LKCDEJPE@glIsProgramARB?$AA@ 00587f9c     OGLESTools:PVRTglesExt.obj
 0003:00010fb0       ??_C@_0BE@EJCMOJPP@glDeleteProgramsARB?$AA@ 00587fb0     OGLESTools:PVRTglesExt.obj
 0003:00010fc8       ??_C@_0BB@OAGHGJAC@glBindProgramARB?$AA@ 00587fc8     OGLESTools:PVRTglesExt.obj
 0003:00010fdc       ??_C@_0BD@HIBLHAHB@glProgramStringARB?$AA@ 00587fdc     OGLESTools:PVRTglesExt.obj
 0003:00010ff4       ??_C@_0BO@HGKLJN@glDisableVertexAttribArrayARB?$AA@ 00587ff4     OGLESTools:PVRTglesExt.obj
 0003:00011018       ??_C@_0BN@FKABDPBF@glEnableVertexAttribArrayARB?$AA@ 00588018     OGLESTools:PVRTglesExt.obj
 0003:0001103c       ??_C@_0BJ@KNOILOPF@glVertexAttribPointerARB?$AA@ 0058803c     OGLESTools:PVRTglesExt.obj
 0003:0001105c       ??_C@_0BG@JGKNGHGM@GL_IMG_vertex_program?$AA@ 0058805c     OGLESTools:PVRTglesExt.obj
 0003:00011078       ??_C@_0BA@JJNJDHDN@glClipPlanefIMG?$AA@ 00588078     OGLESTools:PVRTglesExt.obj
 0003:0001108c       ??_C@_0BA@EGAJBONO@glClipPlanexIMG?$AA@ 0058808c     OGLESTools:PVRTglesExt.obj
 0003:000110a0       ??_C@_0BH@GJLPPOIF@GL_IMG_user_clip_plane?$AA@ 005880a0     OGLESTools:PVRTglesExt.obj
 0003:000110bc       ??_C@_0BD@PCEFFFDF@glWeightPointerOES?$AA@ 005880bc     OGLESTools:PVRTglesExt.obj
 0003:000110d4       ??_C@_0BI@BEEEECPN@glMatrixIndexPointerOES?$AA@ 005880d4     OGLESTools:PVRTglesExt.obj
 0003:000110f0       ??_C@_0CE@HEFPEHID@glLoadPaletteFromModelViewMatrix@ 005880f0     OGLESTools:PVRTglesExt.obj
 0003:0001111c       ??_C@_0BK@NDELAMFO@glCurrentPaletteMatrixOES?$AA@ 0058811c     OGLESTools:PVRTglesExt.obj
 0003:0001113c       ??_C@_0BG@ODLMDBED@GL_OES_matrix_palette?$AA@ 0058813c     OGLESTools:PVRTglesExt.obj
 0003:00011158       ??_7CPVRTResourceFile@@6B@ 00588158     OGLESTools:PVRTResourceFile.obj
 0003:0001115c       ?npos@string@PVRT@@2IB     0058815c     OGLESTools:PVRTString.obj
 0003:00011160       ??_7string@PVRT@@6B@       00588160     OGLESTools:PVRTString.obj
 0003:00011164       ??_C@_0O@FFGDHNDE@_Pos1?$DM?$DNm_Size?$AA@ 00588164     OGLESTools:PVRTString.obj
 0003:00011178       ??_C@_0GM@CLNAEFOD@c?3?2dev?2buildxl?2OGLES_WindowsPCEm@ 00588178     OGLESTools:PVRTString.obj
 0003:000111fc       ??_C@_03KAJKAPBL@?5?7?7?$AA@ 005881fc     OGLESTools:PVRTString.obj
 0003:00011200       __real@40800000            00588200     OGLESTools:PVRTMisc.obj
 0003:00011204       ??_C@_1CC@OLIJCKA@?$AA?$CI?$AAs?$AAt?$AAr?$AAi?$AAn?$AAg?$AA?5?$AA?$CB?$AA?$DN?$AA?5?$AAN?$AAU?$AAL?$AAL?$AA?$CJ?$AA?$AA@ 00588204     LIBCMTD:vsprintf.obj
 0003:0001122c       ??_C@_1BI@IGILPKD@?$AA_?$AAv?$AAs?$AAp?$AAr?$AAi?$AAn?$AAt?$AAf?$AA_?$AAl?$AA?$AA@ 0058822c     LIBCMTD:vsprintf.obj
 0003:00011248       ??_C@_1GE@DPADKNCG@?$AAf?$AA?3?$AA?2?$AAd?$AAd?$AA?2?$AAv?$AAc?$AAt?$AAo?$AAo?$AAl?$AAs?$AA?2?$AAc?$AAr?$AAt?$AA_?$AAb?$AAl?$AAd?$AA?2?$AAs?$AAe?$AAl?$AAf?$AA_?$AAx?$AA8?$AA6?$AA?2?$AAc@ 00588248     LIBCMTD:vsprintf.obj
 0003:000112c0       ??_C@_1CC@MGIEJOME@?$AA?$CI?$AAf?$AAo?$AAr?$AAm?$AAa?$AAt?$AA?5?$AA?$CB?$AA?$DN?$AA?5?$AAN?$AAU?$AAL?$AAL?$AA?$CJ?$AA?$AA@ 005882c0     LIBCMTD:vsprintf.obj
 0003:000112e8       ??_C@_1CE@HMKDJHB@?$AA_?$AAv?$AAs?$AAc?$AAp?$AAr?$AAi?$AAn?$AAt?$AAf?$AA_?$AAh?$AAe?$AAl?$AAp?$AAe?$AAr?$AA?$AA@ 005882e8     LIBCMTD:vsprintf.obj
 0003:00011314       ??_C@_1BA@KBJJGFFE@?$AAs?$AAp?$AAr?$AAi?$AAn?$AAt?$AAf?$AA?$AA@ 00588314     LIBCMTD:sprintf.obj
 0003:00011328       ??_C@_1GC@BMNPEKNN@?$AAf?$AA?3?$AA?2?$AAd?$AAd?$AA?2?$AAv?$AAc?$AAt?$AAo?$AAo?$AAl?$AAs?$AA?2?$AAc?$AAr?$AAt?$AA_?$AAb?$AAl?$AAd?$AA?2?$AAs?$AAe?$AAl?$AAf?$AA_?$AAx?$AA8?$AA6?$AA?2?$AAc@ 00588328     LIBCMTD:sprintf.obj
 0003:000113a0       ??_C@_1GE@BDAODJCD@?$AAf?$AA?3?$AA?2?$AAd?$AAd?$AA?2?$AAv?$AAc?$AAt?$AAo?$AAo?$AAl?$AAs?$AA?2?$AAc?$AAr?$AAt?$AA_?$AAb?$AAl?$AAd?$AA?2?$AAs?$AAe?$AAl?$AAf?$AA_?$AAx?$AA8?$AA6?$AA?2?$AAc@ 005883a0     LIBCMTD:dbgdel.obj
 0003:00011418       ??_C@_1EO@LHDAJOCM@?$AA_?$AAB?$AAL?$AAO?$AAC?$AAK?$AA_?$AAT?$AAY?$AAP?$AAE?$AA_?$AAI?$AAS?$AA_?$AAV?$AAA?$AAL?$AAI?$AAD?$AA?$CI?$AAp?$AAH?$AAe?$AAa?$AAd?$AA?9?$AA?$DO?$AAn?$AAB?$AAl?$AAo@ 00588418     LIBCMTD:dbgdel.obj
 0003:00011478       ?ProcessDetach@NativeDll@<CrtImplementationDetails>@@0IB 00588478     LIBCMTD:_trnsctrl_.obj
 0003:0001147c       ?ProcessAttach@NativeDll@<CrtImplementationDetails>@@0IB 0058847c     LIBCMTD:_trnsctrl_.obj
 0003:00011480       ?ThreadAttach@NativeDll@<CrtImplementationDetails>@@0IB 00588480     LIBCMTD:_trnsctrl_.obj
 0003:00011484       ?ThreadDetach@NativeDll@<CrtImplementationDetails>@@0IB 00588484     LIBCMTD:_trnsctrl_.obj
 0003:00011488       ?ProcessVerifier@NativeDll@<CrtImplementationDetails>@@0IB 00588488     LIBCMTD:_trnsctrl_.obj
 0003:0001148c       ??_C@_15IABLJNFO@?$AA?6?$AA?6?$AA?$AA@ 0058848c     LIBCMTD:wassert.obj
 0003:00011494       ??_C@_13LBAGMAIH@?$AA?6?$AA?$AA@ 00588494     LIBCMTD:wassert.obj
 0003:00011498       ??_C@_17LGKOMLJ@?$AA?4?$AA?4?$AA?4?$AA?$AA@ 00588498     LIBCMTD:wassert.obj
 0003:000114a8       ??_C@_1EK@MBDPDCGA@?$AAM?$AAi?$AAc?$AAr?$AAo?$AAs?$AAo?$AAf?$AAt?$AA?5?$AAV?$AAi?$AAs?$AAu?$AAa?$AAl?$AA?5?$AAC?$AA?$CL?$AA?$CL?$AA?5?$AAR?$AAu?$AAn?$AAt?$AAi?$AAm?$AAe?$AA?5?$AAL?$AAi?$AAb@ 005884a8     LIBCMTD:wassert.obj
 0003:00011500       ??_C@_1HK@POCJMFGK@?$AA?$CI?$AAP?$AAr?$AAe?$AAs?$AAs?$AA?5?$AAR?$AAe?$AAt?$AAr?$AAy?$AA?5?$AAt?$AAo?$AA?5?$AAd?$AAe?$AAb?$AAu?$AAg?$AA?5?$AAt?$AAh?$AAe?$AA?5?$AAa?$AAp?$AAp?$AAl?$AAi?$AAc@ 00588500     LIBCMTD:wassert.obj
 0003:00011598       ??_C@_1LO@HBAMOOPN@?$AAw?$AAc?$AAs?$AAc?$AAa?$AAt?$AA_?$AAs?$AA?$CI?$AAa?$AAs?$AAs?$AAe?$AAr?$AAt?$AAb?$AAu?$AAf?$AA?0?$AA?5?$AA?$CI?$AA6?$AA0?$AA?5?$AA?$CK?$AA?5?$AA9?$AA?$CJ?$AA?0?$AA?5?$AAL?$AA?$CC@ 00588598     LIBCMTD:wassert.obj
 0003:00011680       ??_C@_1FG@GMPCGFKH@?$AAw?$AAc?$AAs?$AAc?$AAa?$AAt?$AA_?$AAs?$AA?$CI?$AAa?$AAs?$AAs?$AAe?$AAr?$AAt?$AAb?$AAu?$AAf?$AA?0?$AA?5?$AA?$CI?$AA6?$AA0?$AA?5?$AA?$CK?$AA?5?$AA9?$AA?$CJ?$AA?0?$AA?5?$AAd?$AAb@ 00588680     LIBCMTD:wassert.obj
 0003:000116e8       ??_C@_1OA@EGMLFBHJ@?$AAF?$AAo?$AAr?$AA?5?$AAi?$AAn?$AAf?$AAo?$AAr?$AAm?$AAa?$AAt?$AAi?$AAo?$AAn?$AA?5?$AAo?$AAn?$AA?5?$AAh?$AAo?$AAw?$AA?5?$AAy?$AAo?$AAu?$AAr?$AA?5?$AAp?$AAr?$AAo?$AAg@ 005886e8     LIBCMTD:wassert.obj
 0003:000117f8       ??_C@_1BCO@FMFFDPPF@?$AAw?$AAc?$AAs?$AAc?$AAa?$AAt?$AA_?$AAs?$AA?$CI?$AAa?$AAs?$AAs?$AAe?$AAr?$AAt?$AAb?$AAu?$AAf?$AA?0?$AA?5?$AA?$CI?$AA6?$AA0?$AA?5?$AA?$CK?$AA?5?$AA9?$AA?$CJ?$AA?0?$AA?5?$AAL?$AA?$CC@ 005887f8     LIBCMTD:wassert.obj
 0003:00011968       ??_C@_1EM@MBEKCGIC@?$AAw?$AAc?$AAs?$AAc?$AAa?$AAt?$AA_?$AAs?$AA?$CI?$AA?5?$AAa?$AAs?$AAs?$AAe?$AAr?$AAt?$AAb?$AAu?$AAf?$AA?0?$AA?5?$AA?$CI?$AA6?$AA0?$AA?5?$AA?$CK?$AA?5?$AA9?$AA?$CJ?$AA?0?$AA?5?$AAe@ 00588968     LIBCMTD:wassert.obj
 0003:000119c8       ??_C@_1CHM@CEIMNDLH@?$AAw?$AAc?$AAs?$AAn?$AAc?$AAa?$AAt?$AA_?$AAs?$AA?$CI?$AA?5?$AAa?$AAs?$AAs?$AAe?$AAr?$AAt?$AAb?$AAu?$AAf?$AA?0?$AA?5?$AA?$CI?$AA6?$AA0?$AA?5?$AA?$CK?$AA?5?$AA9?$AA?$CJ?$AA?0?$AA?5@ 005889c8     LIBCMTD:wassert.obj
 0003:00011cc4       ??_C@_1BK@PEDCIPMA@?$AAE?$AAx?$AAp?$AAr?$AAe?$AAs?$AAs?$AAi?$AAo?$AAn?$AA?3?$AA?5?$AA?$AA@ 00588cc4     LIBCMTD:wassert.obj
 0003:00011ce8       ??_C@_1GC@HOBBPFHJ@?$AAw?$AAc?$AAs?$AAc?$AAa?$AAt?$AA_?$AAs?$AA?$CI?$AA?5?$AAa?$AAs?$AAs?$AAe?$AAr?$AAt?$AAb?$AAu?$AAf?$AA?0?$AA?5?$AA?$CI?$AA6?$AA0?$AA?5?$AA?$CK?$AA?5?$AA9?$AA?$CJ?$AA?0?$AA?5?$AAL@ 00588ce8     LIBCMTD:wassert.obj
 0003:00011d60       ??_C@_1KG@CFEIMPNH@?$AA_?$AAi?$AAt?$AAo?$AAw?$AA_?$AAs?$AA?$CI?$AA?5?$AAl?$AAi?$AAn?$AAe?$AAn?$AAo?$AA?0?$AA?5?$AAa?$AAs?$AAs?$AAe?$AAr?$AAt?$AAb?$AAu?$AAf?$AA?5?$AA?$CL?$AA?5?$AAw?$AAc?$AAs@ 00588d60     LIBCMTD:wassert.obj
 0003:00011e28       ??_C@_1O@KCAFKHJE@?$AAL?$AAi?$AAn?$AAe?$AA?3?$AA?5?$AA?$AA@ 00588e28     LIBCMTD:wassert.obj
 0003:00011e38       ??_C@_1FG@NHDGJLMI@?$AAw?$AAc?$AAs?$AAc?$AAa?$AAt?$AA_?$AAs?$AA?$CI?$AA?5?$AAa?$AAs?$AAs?$AAe?$AAr?$AAt?$AAb?$AAu?$AAf?$AA?0?$AA?5?$AA?$CI?$AA6?$AA0?$AA?5?$AA?$CK?$AA?5?$AA9?$AA?$CJ?$AA?0?$AA?5?$AAL@ 00588e38     LIBCMTD:wassert.obj
 0003:00011ea0       ??_C@_1FE@IIFBBPFI@?$AAw?$AAc?$AAs?$AAc?$AAa?$AAt?$AA_?$AAs?$AA?$CI?$AA?5?$AAa?$AAs?$AAs?$AAe?$AAr?$AAt?$AAb?$AAu?$AAf?$AA?0?$AA?5?$AA?$CI?$AA6?$AA0?$AA?5?$AA?$CK?$AA?5?$AA9?$AA?$CJ?$AA?0?$AA?5?$AAf@ 00588ea0     LIBCMTD:wassert.obj
 0003:00011f08       ??_C@_1IC@CFFJBMAD@?$AAw?$AAc?$AAs?$AAc?$AAa?$AAt?$AA_?$AAs?$AA?$CI?$AA?5?$AAa?$AAs?$AAs?$AAe?$AAr?$AAt?$AAb?$AAu?$AAf?$AA?0?$AA?5?$AA?$CI?$AA6?$AA0?$AA?5?$AA?$CK?$AA?5?$AA9?$AA?$CJ?$AA?0?$AA?5?$AAp@ 00588f08     LIBCMTD:wassert.obj
 0003:00011fa8       ??_C@_1HG@OJJMBIKO@?$AAw?$AAc?$AAs?$AAn?$AAc?$AAa?$AAt?$AA_?$AAs?$AA?$CI?$AA?5?$AAa?$AAs?$AAs?$AAe?$AAr?$AAt?$AAb?$AAu?$AAf?$AA?0?$AA?5?$AA?$CI?$AA6?$AA0?$AA?5?$AA?$CK?$AA?5?$AA9?$AA?$CJ?$AA?0?$AA?5@ 00588fa8     LIBCMTD:wassert.obj
 0003:00012038       ??_C@_1GO@BIHLMMND@?$AAw?$AAc?$AAs?$AAn?$AAc?$AAa?$AAt?$AA_?$AAs?$AA?$CI?$AA?5?$AAa?$AAs?$AAs?$AAe?$AAr?$AAt?$AAb?$AAu?$AAf?$AA?0?$AA?5?$AA?$CI?$AA6?$AA0?$AA?5?$AA?$CK?$AA?5?$AA9?$AA?$CJ?$AA?0?$AA?5@ 00589038     LIBCMTD:wassert.obj
 0003:000120c0       ??_C@_1FO@IJLLDBEB@?$AAw?$AAc?$AAs?$AAc?$AAa?$AAt?$AA_?$AAs?$AA?$CI?$AA?5?$AAa?$AAs?$AAs?$AAe?$AAr?$AAt?$AAb?$AAu?$AAf?$AA?0?$AA?5?$AA?$CI?$AA6?$AA0?$AA?5?$AA?$CK?$AA?5?$AA9?$AA?$CJ?$AA?0?$AA?5?$AAp@ 005890c0     LIBCMTD:wassert.obj
 0003:00012130       ??_C@_1FG@CLEECKIJ@?$AAw?$AAc?$AAs?$AAc?$AAa?$AAt?$AA_?$AAs?$AA?$CI?$AA?5?$AAa?$AAs?$AAs?$AAe?$AAr?$AAt?$AAb?$AAu?$AAf?$AA?0?$AA?5?$AA?$CI?$AA6?$AA0?$AA?5?$AA?$CK?$AA?5?$AA9?$AA?$CJ?$AA?0?$AA?5?$AAd@ 00589130     LIBCMTD:wassert.obj
 0003:00012198       ??_C@_1GG@PMHOPJKA@?$AAw?$AAc?$AAs?$AAn?$AAc?$AAa?$AAt?$AA_?$AAs?$AA?$CI?$AA?5?$AAa?$AAs?$AAs?$AAe?$AAr?$AAt?$AAb?$AAu?$AAf?$AA?0?$AA?5?$AA?$CI?$AA6?$AA0?$AA?5?$AA?$CK?$AA?5?$AA9?$AA?$CJ?$AA?0?$AA?5@ 00589198     LIBCMTD:wassert.obj
 0003:00012214       ??_C@_1O@HEMHKNDC@?$AAF?$AAi?$AAl?$AAe?$AA?3?$AA?5?$AA?$AA@ 00589214     LIBCMTD:wassert.obj
 0003:00012228       ??_C@_1FG@HIDBOJF@?$AAw?$AAc?$AAs?$AAc?$AAa?$AAt?$AA_?$AAs?$AA?$CI?$AA?5?$AAa?$AAs?$AAs?$AAe?$AAr?$AAt?$AAb?$AAu?$AAf?$AA?0?$AA?5?$AA?$CI?$AA6?$AA0?$AA?5?$AA?$CK?$AA?5?$AA9?$AA?$CJ?$AA?0?$AA?5?$AAL@ 00589228     LIBCMTD:wassert.obj
 0003:00012290       ??_C@_1FC@FFKGGIKO@?$AAw?$AAc?$AAs?$AAc?$AAa?$AAt?$AA_?$AAs?$AA?$CI?$AA?5?$AAa?$AAs?$AAs?$AAe?$AAr?$AAt?$AAb?$AAu?$AAf?$AA?0?$AA?5?$AA?$CI?$AA6?$AA0?$AA?5?$AA?$CK?$AA?5?$AA9?$AA?$CJ?$AA?0?$AA?5?$AAn@ 00589290     LIBCMTD:wassert.obj
 0003:000122f8       ??_C@_1EK@BDNABPEK@?$AAw?$AAc?$AAs?$AAc?$AAa?$AAt?$AA_?$AAs?$AA?$CI?$AA?5?$AAa?$AAs?$AAs?$AAe?$AAr?$AAt?$AAb?$AAu?$AAf?$AA?0?$AA?5?$AA?$CI?$AA6?$AA0?$AA?5?$AA?$CK?$AA?5?$AA9?$AA?$CJ?$AA?0?$AA?5?$AAp@ 005892f8     LIBCMTD:wassert.obj
 0003:00012350       ??_C@_1HK@JKBDGMGN@?$AAw?$AAc?$AAs?$AAn?$AAc?$AAp?$AAy?$AA_?$AAs?$AA?$CI?$AA?5?$AAp?$AAc?$AAh?$AA?0?$AA?5?$AA?$CI?$AA2?$AA6?$AA0?$AA?5?$AA?$CL?$AA?5?$AA1?$AA?$CJ?$AA?5?$AA?9?$AA?5?$AA?$CI?$AAp?$AAc?$AAh@ 00589350     LIBCMTD:wassert.obj
 0003:000123e4       ??_C@_1CO@EAEJAADC@?$AA?$DM?$AAp?$AAr?$AAo?$AAg?$AAr?$AAa?$AAm?$AA?5?$AAn?$AAa?$AAm?$AAe?$AA?5?$AAu?$AAn?$AAk?$AAn?$AAo?$AAw?$AAn?$AA?$DO?$AA?$AA@ 005893e4     LIBCMTD:wassert.obj
 0003:00012420       ??_C@_1HA@EPFCONEE@?$AAw?$AAc?$AAs?$AAc?$AAp?$AAy?$AA_?$AAs?$AA?$CI?$AA?5?$AAp?$AAr?$AAo?$AAg?$AAn?$AAa?$AAm?$AAe?$AA?0?$AA?5?$AA2?$AA6?$AA0?$AA?5?$AA?$CL?$AA?5?$AA1?$AA?0?$AA?5?$AAL?$AA?$CC?$AA?$DM@ 00589420     LIBCMTD:wassert.obj
 0003:000124a8       ??_C@_1BE@PHKBBGE@?$AAP?$AAr?$AAo?$AAg?$AAr?$AAa?$AAm?$AA?3?$AA?5?$AA?$AA@ 005894a8     LIBCMTD:wassert.obj
 0003:000124c0       ??_C@_1FM@LKICECBD@?$AAw?$AAc?$AAs?$AAc?$AAa?$AAt?$AA_?$AAs?$AA?$CI?$AA?5?$AAa?$AAs?$AAs?$AAe?$AAr?$AAt?$AAb?$AAu?$AAf?$AA?0?$AA?5?$AA?$CI?$AA6?$AA0?$AA?5?$AA?$CK?$AA?5?$AA9?$AA?$CJ?$AA?0?$AA?5?$AAL@ 005894c0     LIBCMTD:wassert.obj
 0003:00012530       ??_C@_1FI@JIGMFG@?$AAw?$AAc?$AAs?$AAc?$AAa?$AAt?$AA_?$AAs?$AA?$CI?$AA?5?$AAa?$AAs?$AAs?$AAe?$AAr?$AAt?$AAb?$AAu?$AAf?$AA?0?$AA?5?$AA?$CI?$AA6?$AA0?$AA?5?$AA?$CK?$AA?5?$AA9?$AA?$CJ?$AA?0?$AA?5?$AAd@ 00589530     LIBCMTD:wassert.obj
 0003:0001259c       ??_C@_1CE@OJBNHDMO@?$AAA?$AAs?$AAs?$AAe?$AAr?$AAt?$AAi?$AAo?$AAn?$AA?5?$AAf?$AAa?$AAi?$AAl?$AAe?$AAd?$AA?$CB?$AA?$AA@ 0058959c     LIBCMTD:wassert.obj
 0003:000125c8       ??_C@_1GM@EFCJNBAA@?$AAw?$AAc?$AAs?$AAc?$AAp?$AAy?$AA_?$AAs?$AA?$CI?$AA?5?$AAa?$AAs?$AAs?$AAe?$AAr?$AAt?$AAb?$AAu?$AAf?$AA?0?$AA?5?$AA?$CI?$AA6?$AA0?$AA?5?$AA?$CK?$AA?5?$AA9?$AA?$CJ?$AA?0?$AA?5?$AAL@ 005895c8     LIBCMTD:wassert.obj
 0003:0001264c       ??_C@_1BC@LNOOMFNA@?$AA_?$AAw?$AAa?$AAs?$AAs?$AAe?$AAr?$AAt?$AA?$AA@ 0058964c     LIBCMTD:wassert.obj
 0003:00012668       ??_C@_1GA@COEIABIF@?$AAf?$AA?3?$AA?2?$AAd?$AAd?$AA?2?$AAv?$AAc?$AAt?$AAo?$AAo?$AAl?$AAs?$AA?2?$AAc?$AAr?$AAt?$AA_?$AAb?$AAl?$AAd?$AA?2?$AAs?$AAe?$AAl?$AAf?$AA_?$AAx?$AA8?$AA6?$AA?2?$AAc@ 00589668     LIBCMTD:wassert.obj
 0003:00012708       ??_7type_info@@6B@         00589708     LIBCMTD:typinfo.obj
 0003:00012714       ??_7exception@std@@6B@     00589714     LIBCMTD:stdexcpt.obj
 0003:00012720       ??_C@_0BC@EOODALEL@Unknown?5exception?$AA@ 00589720     LIBCMTD:stdexcpt.obj
 0003:0001273c       ??_7bad_cast@std@@6B@      0058973c     LIBCMTD:stdexcpt.obj
 0003:0001274c       ??_7bad_typeid@std@@6B@    0058974c     LIBCMTD:stdexcpt.obj
 0003:0001275c       ??_7__non_rtti_object@std@@6B@ 0058975c     LIBCMTD:stdexcpt.obj
 0003:00012768       ??_C@_0BO@GNIAFIKK@Unknown?5Runtime?5Check?5Error?6?$AN?$AA@ 00589768     LIBCMTD:_error_.obj
 0003:0001278c       ??_C@_0CM@NGINOKPC@Stack?5memory?5around?5_alloca?5was?5@ 0058978c     LIBCMTD:_error_.obj
 0003:000127c0       ??_C@_0DG@HKJMLLLP@A?5local?5variable?5was?5used?5before@ 005897c0     LIBCMTD:_error_.obj
 0003:00012800       ??_C@_0BN@FFOINMNJ@Stack?5memory?5was?5corrupted?6?$AN?$AA@ 00589800     LIBCMTD:_error_.obj
 0003:00012828       ??_C@_0BBN@GPMLNJCF@A?5cast?5to?5a?5smaller?5data?5type?5ha@ 00589828     LIBCMTD:_error_.obj
 0003:00012980       ??_C@_0NN@NGPKDKPD@The?5value?5of?5ESP?5was?5not?5properl@ 00589980     LIBCMTD:_error_.obj
 0003:00012b48       ??_C@_0CA@IODNCDPG@Run?9Time?5Check?5Failure?5?$CD?$CFd?5?9?5?$CFs?$AA@ 00589b48     LIBCMTD:_error_.obj
 0003:00012b70       ??_C@_0BE@GNBOBNCK@Unknown?5Module?5Name?$AA@ 00589b70     LIBCMTD:_error_.obj
 0003:00012b88       ??_C@_0BB@PFFGGCJP@Unknown?5Filename?$AA@ 00589b88     LIBCMTD:_error_.obj
 0003:00012ba0       ??_C@_1EA@NFKNIFJP@?$AAR?$AAu?$AAn?$AA?9?$AAT?$AAi?$AAm?$AAe?$AA?5?$AAC?$AAh?$AAe?$AAc?$AAk?$AA?5?$AAF?$AAa?$AAi?$AAl?$AAu?$AAr?$AAe?$AA?5?$AA?$CD?$AA?$CF?$AAd?$AA?5?$AA?9?$AA?5?$AA?$CF?$AAs?$AA?$AA@ 00589ba0     LIBCMTD:_error_.obj
 0003:00012bf0       ??_C@_1GM@OLMCBDMB@?$AAR?$AAu?$AAn?$AAt?$AAi?$AAm?$AAe?$AA?5?$AAC?$AAh?$AAe?$AAc?$AAk?$AA?5?$AAE?$AAr?$AAr?$AAo?$AAr?$AA?4?$AA?6?$AA?$AN?$AA?5?$AAU?$AAn?$AAa?$AAb?$AAl?$AAe?$AA?5?$AAt?$AAo@ 00589bf0     LIBCMTD:_error_.obj
 0003:00012c74       ??_C@_0CG@IAFNJNEE@Stack?5corrupted?5near?5unknown?5var@ 00589c74     LIBCMTD:_error_.obj
 0003:00012ca8       ??_C@_0EJ@LJKNEOLN@Stack?5area?5around?5_alloca?5memory@ 00589ca8     LIBCMTD:_error_.obj
 0003:00012d00       ??_C@_08KJEDNCKC@?$CFs?$CFs?$CFs?$CFs?$AA@ 00589d00     LIBCMTD:_error_.obj
 0003:00012d0c       ??_C@_02LLMPMKNF@?$DO?5?$AA@ 00589d0c     LIBCMTD:_error_.obj
 0003:00012d10       ??_C@_0BC@KIBAILCI@?$CFs?$CFs?$CFp?$CFs?$CFld?$CFs?$CFd?$CFs?$AA@ 00589d10     LIBCMTD:_error_.obj
 0003:00012d28       ??_C@_0EI@CLEPFNGI@Stack?5area?5around?5_alloca?5memory@ 00589d28     LIBCMTD:_error_.obj
 0003:00012d80       ??_C@_0N@MHFFIMFG@?6Address?3?50x?$AA@ 00589d80     LIBCMTD:_error_.obj
 0003:00012d90       ??_C@_07DFDJCKFN@?6Size?3?5?$AA@ 00589d90     LIBCMTD:_error_.obj
 0003:00012d9c       ??_C@_0CK@DKGBICFE@?6Allocation?5number?5within?5this?5f@ 00589d9c     LIBCMTD:_error_.obj
 0003:00012dd0       ??_C@_08OMAHNMHJ@?6Data?3?5?$DM?$AA@ 00589dd0     LIBCMTD:_error_.obj
 0003:00012ddc       ??_C@_09FOPFMPEJ@wsprintfA?$AA@ 00589ddc     LIBCMTD:_error_.obj
 0003:00012de8       ??_C@_0L@GMPLCCII@user32?4dll?$AA@ 00589de8     LIBCMTD:_error_.obj
 0003:00012df8       ??_C@_05MKKEDADM@?$CF?42X?5?$AA@ 00589df8     LIBCMTD:_error_.obj
 0003:00012e00       ??_C@_0DE@OHJBPMBP@A?5variable?5is?5being?5used?5without@ 00589e00     LIBCMTD:_error_.obj
 0003:00012e40       __FPinit                   00589e40     LIBCMTD:_fpinit_.obj
 0003:00012e44       __FPmtinit                 00589e44     LIBCMTD:_fpinit_.obj
 0003:00012e48       __FPmtterm                 00589e48     LIBCMTD:_fpinit_.obj
 0003:00012e50       ??_C@_1CC@CGHMNGDG@?$AAA?$AAs?$AAs?$AAe?$AAr?$AAt?$AAi?$AAo?$AAn?$AA?5?$AAF?$AAa?$AAi?$AAl?$AAe?$AAd?$AA?$AA@ 00589e50     LIBCMTD:dbgrptw.obj
 0003:00012e78       ??_C@_1M@ILHOPKA@?$AAE?$AAr?$AAr?$AAo?$AAr?$AA?$AA@ 00589e78     LIBCMTD:dbgrptw.obj
 0003:00012e88       ??_C@_1BA@GLMCNLEM@?$AAW?$AAa?$AAr?$AAn?$AAi?$AAn?$AAg?$AA?$AA@ 00589e88     LIBCMTD:dbgrptw.obj
 0003:00012eac       ??_C@_0DA@PCCBBBID@f?3?2dd?2vctools?2crt_bld?2self_x86?2c@ 00589eac     LIBCMTD:dbgrptw.obj
 0003:00012ee8       ??_C@_1FI@PHIAFFHM@?$AA?$CI?$AA?$CC?$AAT?$AAh?$AAe?$AA?5?$AAh?$AAo?$AAo?$AAk?$AA?5?$AAf?$AAu?$AAn?$AAc?$AAt?$AAi?$AAo?$AAn?$AA?5?$AAi?$AAs?$AA?5?$AAn?$AAo?$AAt?$AA?5?$AAi?$AAn?$AA?5?$AAt?$AAh@ 00589ee8     LIBCMTD:dbgrptw.obj
 0003:00012f54       ??_C@_1CG@JBJEFOCM@?$AAp?$AAf?$AAn?$AAN?$AAe?$AAw?$AAH?$AAo?$AAo?$AAk?$AA?5?$AA?$CB?$AA?$DN?$AA?5?$AAN?$AAU?$AAL?$AAL?$AA?$AA@ 00589f54     LIBCMTD:dbgrptw.obj
 0003:00012f84       ??_C@_1CI@IIHEAKEI@?$AA_?$AAC?$AAr?$AAt?$AAS?$AAe?$AAt?$AAR?$AAe?$AAp?$AAo?$AAr?$AAt?$AAH?$AAo?$AAo?$AAk?$AAW?$AA2?$AA?$AA@ 00589f84     LIBCMTD:dbgrptw.obj
 0003:00012fb8       ??_C@_1GA@IBJGKIFE@?$AAf?$AA?3?$AA?2?$AAd?$AAd?$AA?2?$AAv?$AAc?$AAt?$AAo?$AAo?$AAl?$AAs?$AA?2?$AAc?$AAr?$AAt?$AA_?$AAb?$AAl?$AAd?$AA?2?$AAs?$AAe?$AAl?$AAf?$AA_?$AAx?$AA8?$AA6?$AA?2?$AAc@ 00589fb8     LIBCMTD:dbgrptw.obj
 0003:00013030       ??_C@_1HI@OFEHGPPC@?$AAm?$AAo?$AAd?$AAe?$AA?5?$AA?$DN?$AA?$DN?$AA?5?$AA_?$AAC?$AAR?$AAT?$AA_?$AAR?$AAP?$AAT?$AAH?$AAO?$AAO?$AAK?$AA_?$AAI?$AAN?$AAS?$AAT?$AAA?$AAL?$AAL?$AA?5?$AA?$HM?$AA?$HM?$AA?5@ 0058a030     LIBCMTD:dbgrptw.obj
 0003:000130c0       ??_C@_1EG@PEOEAKBB@?$AAM?$AAi?$AAc?$AAr?$AAo?$AAs?$AAo?$AAf?$AAt?$AA?5?$AAV?$AAi?$AAs?$AAu?$AAa?$AAl?$AA?5?$AAC?$AA?$CL?$AA?$CL?$AA?5?$AAD?$AAe?$AAb?$AAu?$AAg?$AA?5?$AAL?$AAi?$AAb?$AAr?$AAa@ 0058a0c0     LIBCMTD:dbgrptw.obj
 0003:00013118       ??_C@_1FG@BBOLDHGF@?$AA_?$AAC?$AAr?$AAt?$AAD?$AAb?$AAg?$AAR?$AAe?$AAp?$AAo?$AAr?$AAt?$AA?3?$AA?5?$AAS?$AAt?$AAr?$AAi?$AAn?$AAg?$AA?5?$AAt?$AAo?$AAo?$AA?5?$AAl?$AAo?$AAn?$AAg?$AA?5?$AAo@ 0058a118     LIBCMTD:dbgrptw.obj
 0003:00013180       ??_C@_1JI@EACPGHID@?$AAw?$AAc?$AAs?$AAc?$AAp?$AAy?$AA_?$AAs?$AA?$CI?$AAs?$AAz?$AAO?$AAu?$AAt?$AAM?$AAe?$AAs?$AAs?$AAa?$AAg?$AAe?$AA?0?$AA?5?$AA4?$AA0?$AA9?$AA6?$AA?0?$AA?5?$AAL?$AA?$CC?$AA_@ 0058a180     LIBCMTD:dbgrptw.obj
 0003:00013238       ??_C@_1BI@KALLJECN@?$AA?$CI?$AA?$CK?$AA_?$AAe?$AAr?$AAr?$AAn?$AAo?$AA?$CI?$AA?$CJ?$AA?$CJ?$AA?$AA@ 0058a238     LIBCMTD:dbgrptw.obj
 0003:00013258       ??_C@_1KK@MEFMPOLM@?$AAD?$AAe?$AAb?$AAu?$AAg?$AA?5?$AA?$CF?$AAs?$AA?$CB?$AA?6?$AA?6?$AAP?$AAr?$AAo?$AAg?$AAr?$AAa?$AAm?$AA?3?$AA?5?$AA?$CF?$AAs?$AA?$CF?$AAs?$AA?$CF?$AAs?$AA?$CF?$AAs?$AA?$CF?$AAs?$AA?$CF?$AAs@ 0058a258     LIBCMTD:dbgrptw.obj
 0003:00013324       ??_C@_1BE@CGCJKGHI@?$AA?6?$AAM?$AAo?$AAd?$AAu?$AAl?$AAe?$AA?3?$AA?5?$AA?$AA@ 0058a324     LIBCMTD:dbgrptw.obj
 0003:0001333c       ??_C@_1BA@LNHECFIM@?$AA?6?$AAF?$AAi?$AAl?$AAe?$AA?3?$AA?5?$AA?$AA@ 0058a33c     LIBCMTD:dbgrptw.obj
 0003:00013350       ??_C@_1BA@GLLGCPCK@?$AA?6?$AAL?$AAi?$AAn?$AAe?$AA?3?$AA?5?$AA?$AA@ 0058a350     LIBCMTD:dbgrptw.obj
 0003:00013364       ??_C@_11LOCGONAA@?$AA?$AA@ 0058a364     LIBCMTD:dbgrptw.obj
 0003:00013368       ??_C@_1OG@PMPPFHAF@?$AA?6?$AA?6?$AAF?$AAo?$AAr?$AA?5?$AAi?$AAn?$AAf?$AAo?$AAr?$AAm?$AAa?$AAt?$AAi?$AAo?$AAn?$AA?5?$AAo?$AAn?$AA?5?$AAh?$AAo?$AAw?$AA?5?$AAy?$AAo?$AAu?$AAr?$AA?5?$AAp?$AAr@ 0058a368     LIBCMTD:dbgrptw.obj
 0003:00013480       ??_C@_1NO@LECLLHOL@?$AAm?$AAe?$AAm?$AAc?$AAp?$AAy?$AA_?$AAs?$AA?$CI?$AAs?$AAz?$AAS?$AAh?$AAo?$AAr?$AAt?$AAP?$AAr?$AAo?$AAg?$AAN?$AAa?$AAm?$AAe?$AA?0?$AA?5?$AAs?$AAi?$AAz?$AAe?$AAo?$AAf@ 0058a480     LIBCMTD:dbgrptw.obj
 0003:00013590       ??_C@_1GI@DEDNNLCI@?$AAw?$AAc?$AAs?$AAc?$AAp?$AAy?$AA_?$AAs?$AA?$CI?$AAs?$AAz?$AAE?$AAx?$AAe?$AAN?$AAa?$AAm?$AAe?$AA?0?$AA?5?$AA2?$AA6?$AA0?$AA?0?$AA?5?$AAL?$AA?$CC?$AA?$DM?$AAp?$AAr?$AAo?$AAg@ 0058a590     LIBCMTD:dbgrptw.obj
 0003:0001360c       ??_C@_1CI@PGJIFDEK@?$AA_?$AA_?$AAc?$AAr?$AAt?$AAM?$AAe?$AAs?$AAs?$AAa?$AAg?$AAe?$AAW?$AAi?$AAn?$AAd?$AAo?$AAw?$AAW?$AA?$AA@ 0058a60c     LIBCMTD:dbgrptw.obj
 0003:0001363c       ??_C@_1CK@DDKKOLAN@?$AAs?$AAi?$AAz?$AAe?$AAI?$AAn?$AAB?$AAy?$AAt?$AAe?$AAs?$AA?5?$AA?$DO?$AA?$DN?$AA?5?$AAc?$AAo?$AAu?$AAn?$AAt?$AA?$AA@ 0058a63c     LIBCMTD:memcpy_s.obj
 0003:00013670       ??_C@_1BI@DCHLDCPP@?$AAs?$AAr?$AAc?$AA?5?$AA?$CB?$AA?$DN?$AA?5?$AAN?$AAU?$AAL?$AAL?$AA?$AA@ 0058a670     LIBCMTD:memcpy_s.obj
 0003:0001368c       ??_C@_1BC@GKHDJMGB@?$AAm?$AAe?$AAm?$AAc?$AAp?$AAy?$AA_?$AAs?$AA?$AA@ 0058a68c     LIBCMTD:memcpy_s.obj
 0003:000136a8       ??_C@_1GE@NEOPGGBM@?$AAf?$AA?3?$AA?2?$AAd?$AAd?$AA?2?$AAv?$AAc?$AAt?$AAo?$AAo?$AAl?$AAs?$AA?2?$AAc?$AAr?$AAt?$AA_?$AAb?$AAl?$AAd?$AA?2?$AAs?$AAe?$AAl?$AAf?$AA_?$AAx?$AA8?$AA6?$AA?2?$AAc@ 0058a6a8     LIBCMTD:memcpy_s.obj
 0003:00013720       ??_C@_1BI@GKKCBDMD@?$AAd?$AAs?$AAt?$AA?5?$AA?$CB?$AA?$DN?$AA?5?$AAN?$AAU?$AAL?$AAL?$AA?$AA@ 0058a720     LIBCMTD:memcpy_s.obj
 0003:0001373c       ??_C@_1BE@NMKKBGPA@?$AAm?$AAe?$AAm?$AAm?$AAo?$AAv?$AAe?$AA_?$AAs?$AA?$AA@ 0058a73c     LIBCMTD:memmove_s.obj
 0003:00013758       ??_C@_1GG@JKNLCIHH@?$AAf?$AA?3?$AA?2?$AAd?$AAd?$AA?2?$AAv?$AAc?$AAt?$AAo?$AAo?$AAl?$AAs?$AA?2?$AAc?$AAr?$AAt?$AA_?$AAb?$AAl?$AAd?$AA?2?$AAs?$AAe?$AAl?$AAf?$AA_?$AAx?$AA8?$AA6?$AA?2?$AAc@ 0058a758     LIBCMTD:memmove_s.obj
 0003:000137d4       ??_C@_1BC@KMGJCMNP@?$AAv?$AAs?$AAc?$AAa?$AAn?$AA_?$AAf?$AAn?$AA?$AA@ 0058a7d4     LIBCMTD:sscanf.obj
 0003:000137f0       ??_C@_1GA@GDIHGGDN@?$AAf?$AA?3?$AA?2?$AAd?$AAd?$AA?2?$AAv?$AAc?$AAt?$AAo?$AAo?$AAl?$AAs?$AA?2?$AAc?$AAr?$AAt?$AA_?$AAb?$AAl?$AAd?$AA?2?$AAs?$AAe?$AAl?$AAf?$AA_?$AAx?$AA8?$AA6?$AA?2?$AAc@ 0058a7f0     LIBCMTD:sscanf.obj
 0003:00013864       ??_C@_1O@EGMJNCOI@?$AAf?$AAc?$AAl?$AAo?$AAs?$AAe?$AA?$AA@ 0058a864     LIBCMTD:fclose.obj
 0003:00013878       ??_C@_1GA@KMIDAPAP@?$AAf?$AA?3?$AA?2?$AAd?$AAd?$AA?2?$AAv?$AAc?$AAt?$AAo?$AAo?$AAl?$AAs?$AA?2?$AAc?$AAr?$AAt?$AA_?$AAb?$AAl?$AAd?$AA?2?$AAs?$AAe?$AAl?$AAf?$AA_?$AAx?$AA8?$AA6?$AA?2?$AAc@ 0058a878     LIBCMTD:fclose.obj
 0003:000138ec       ??_C@_1CC@FADMNIL@?$AA?$CI?$AAs?$AAt?$AAr?$AAe?$AAa?$AAm?$AA?5?$AA?$CB?$AA?$DN?$AA?5?$AAN?$AAU?$AAL?$AAL?$AA?$CJ?$AA?$AA@ 0058a8ec     LIBCMTD:fclose.obj
 0003:00013914       ??_C@_1BO@JINCABEC@?$AA_?$AAf?$AAc?$AAl?$AAo?$AAs?$AAe?$AA_?$AAn?$AAo?$AAl?$AAo?$AAc?$AAk?$AA?$AA@ 0058a914     LIBCMTD:fclose.obj
 0003:00013938       ??_C@_1BM@JMKHIAHP@?$AA?$CI?$AAs?$AAt?$AAr?$AA?5?$AA?$CB?$AA?$DN?$AA?5?$AAN?$AAU?$AAL?$AAL?$AA?$CJ?$AA?$AA@ 0058a938     LIBCMTD:fclose.obj
 0003:00013960       ??_C@_1BAA@ODEGEDCK@?$AA?$CI?$AA?5?$AA?$CI?$AA_?$AAS?$AAt?$AAr?$AAe?$AAa?$AAm?$AA?9?$AA?$DO?$AA_?$AAf?$AAl?$AAa?$AAg?$AA?5?$AA?$CG?$AA?5?$AA_?$AAI?$AAO?$AAS?$AAT?$AAR?$AAG?$AA?$CJ?$AA?5?$AA?$HM?$AA?$HM?$AA?5@ 0058a960     LIBCMTD:fprintf.obj
 0003:00013a94       ??_C@_1BA@DNOHIGNM@?$AAf?$AAp?$AAr?$AAi?$AAn?$AAt?$AAf?$AA?$AA@ 0058aa94     LIBCMTD:fprintf.obj
 0003:00013aa8       ??_C@_1GC@NHJDDBOH@?$AAf?$AA?3?$AA?2?$AAd?$AAd?$AA?2?$AAv?$AAc?$AAt?$AAo?$AAo?$AAl?$AAs?$AA?2?$AAc?$AAr?$AAt?$AA_?$AAb?$AAl?$AAd?$AA?2?$AAs?$AAe?$AAl?$AAf?$AA_?$AAx?$AA8?$AA6?$AA?2?$AAc@ 0058aaa8     LIBCMTD:fprintf.obj
 0003:00013b20       ??_C@_1CA@OEHMHBJF@?$AAv?$AAf?$AAp?$AAr?$AAi?$AAn?$AAt?$AAf?$AA_?$AAh?$AAe?$AAl?$AAp?$AAe?$AAr?$AA?$AA@ 0058ab20     LIBCMTD:vfprintf.obj
 0003:00013b48       ??_C@_1GE@PEEPNGBM@?$AAf?$AA?3?$AA?2?$AAd?$AAd?$AA?2?$AAv?$AAc?$AAt?$AAo?$AAo?$AAl?$AAs?$AA?2?$AAc?$AAr?$AAt?$AA_?$AAb?$AAl?$AAd?$AA?2?$AAs?$AAe?$AAl?$AAf?$AA_?$AAx?$AA8?$AA6?$AA?2?$AAc@ 0058ab48     LIBCMTD:vfprintf.obj
 0003:00013bc0       ??_C@_1CI@HBNALCBB@?$AA?$CI?$AA?$CK?$AAm?$AAo?$AAd?$AAe?$AA?5?$AA?$CB?$AA?$DN?$AA?5?$AA_?$AAT?$AA?$CI?$AA?8?$AA?2?$AA0?$AA?8?$AA?$CJ?$AA?$CJ?$AA?$AA@ 0058abc0     LIBCMTD:fopen.obj
 0003:00013bf0       ??_C@_1BO@MJMKAKCJ@?$AA?$CI?$AAm?$AAo?$AAd?$AAe?$AA?5?$AA?$CB?$AA?$DN?$AA?5?$AAN?$AAU?$AAL?$AAL?$AA?$CJ?$AA?$AA@ 0058abf0     LIBCMTD:fopen.obj
 0003:00013c14       ??_C@_1BA@HNEAFMNL@?$AA_?$AAf?$AAs?$AAo?$AAp?$AAe?$AAn?$AA?$AA@ 0058ac14     LIBCMTD:fopen.obj
 0003:00013c28       ??_C@_1FO@NCADDBOO@?$AAf?$AA?3?$AA?2?$AAd?$AAd?$AA?2?$AAv?$AAc?$AAt?$AAo?$AAo?$AAl?$AAs?$AA?2?$AAc?$AAr?$AAt?$AA_?$AAb?$AAl?$AAd?$AA?2?$AAs?$AAe?$AAl?$AAf?$AA_?$AAx?$AA8?$AA6?$AA?2?$AAc@ 0058ac28     LIBCMTD:fopen.obj
 0003:00013c98       ??_C@_1BO@CLGIAEOJ@?$AA?$CI?$AAf?$AAi?$AAl?$AAe?$AA?5?$AA?$CB?$AA?$DN?$AA?5?$AAN?$AAU?$AAL?$AAL?$AA?$CJ?$AA?$AA@ 0058ac98     LIBCMTD:fopen.obj
 0003:00013cbc       ??_C@_1BA@PBGKCCAP@?$AAf?$AAo?$AAp?$AAe?$AAn?$AA_?$AAs?$AA?$AA@ 0058acbc     LIBCMTD:fopen.obj
 0003:00013cd0       ??_C@_1CA@LLJLFCDN@?$AA?$CI?$AAp?$AAf?$AAi?$AAl?$AAe?$AA?5?$AA?$CB?$AA?$DN?$AA?5?$AAN?$AAU?$AAL?$AAL?$AA?$CJ?$AA?$AA@ 0058acd0     LIBCMTD:fopen.obj
 0003:00013cf8       ??_C@_0DA@HMCPFNKN@f?3?2dd?2vctools?2crt_bld?2self_x86?2c@ 0058acf8     LIBCMTD:onexit.obj
 0003:00013d34       ??_C@_1BK@HJGMBFLF@?$AAc?$AAo?$AAm?$AAp?$AA?5?$AA?$CB?$AA?$DN?$AA?5?$AAN?$AAU?$AAL?$AAL?$AA?$AA@ 0058ad34     LIBCMTD:qsort.obj
 0003:00013d54       ??_C@_1BE@NJBEBBME@?$AAw?$AAi?$AAd?$AAt?$AAh?$AA?5?$AA?$DO?$AA?5?$AA0?$AA?$AA@ 0058ad54     LIBCMTD:qsort.obj
 0003:00013d6c       ??_C@_1M@INMHODIG@?$AAq?$AAs?$AAo?$AAr?$AAt?$AA?$AA@ 0058ad6c     LIBCMTD:qsort.obj
 0003:00013d80       ??_C@_1FO@NDBPJPLL@?$AAf?$AA?3?$AA?2?$AAd?$AAd?$AA?2?$AAv?$AAc?$AAt?$AAo?$AAo?$AAl?$AAs?$AA?2?$AAc?$AAr?$AAt?$AA_?$AAb?$AAl?$AAd?$AA?2?$AAs?$AAe?$AAl?$AAf?$AA_?$AAx?$AA8?$AA6?$AA?2?$AAc@ 0058ad80     LIBCMTD:qsort.obj
 0003:00013df0       ??_C@_1DC@HAGCIKOA@?$AAb?$AAa?$AAs?$AAe?$AA?5?$AA?$CB?$AA?$DN?$AA?5?$AAN?$AAU?$AAL?$AAL?$AA?5?$AA?$HM?$AA?$HM?$AA?5?$AAn?$AAu?$AAm?$AA?5?$AA?$DN?$AA?$DN?$AA?5?$AA0?$AA?$AA@ 0058adf0     LIBCMTD:qsort.obj
 0003:00013e2c       ??_C@_1O@KLNKIMAP@?$AAf?$AAw?$AAr?$AAi?$AAt?$AAe?$AA?$AA@ 0058ae2c     LIBCMTD:fwrite.obj
 0003:00013e40       ??_C@_1GA@DOFNKKGD@?$AAf?$AA?3?$AA?2?$AAd?$AAd?$AA?2?$AAv?$AAc?$AAt?$AAo?$AAo?$AAl?$AAs?$AA?2?$AAc?$AAr?$AAt?$AA_?$AAb?$AAl?$AAd?$AA?2?$AAs?$AAe?$AAl?$AAf?$AA_?$AAx?$AA8?$AA6?$AA?2?$AAc@ 0058ae40     LIBCMTD:fwrite.obj
 0003:00013eb8       ??_C@_1LG@DCNDJCHK@?$AA?$CI?$AA?$CC?$AAI?$AAn?$AAc?$AAo?$AAn?$AAs?$AAi?$AAs?$AAt?$AAe?$AAn?$AAt?$AA?5?$AAS?$AAt?$AAr?$AAe?$AAa?$AAm?$AA?5?$AAC?$AAo?$AAu?$AAn?$AAt?$AA?4?$AA?5?$AAF?$AAl?$AAu@ 0058aeb8     LIBCMTD:fwrite.obj
 0003:00013f94       ??_C@_1DC@FHEPNAPF@?$AAn?$AAu?$AAm?$AA?5?$AA?$DM?$AA?$DN?$AA?5?$AA?$CI?$AAS?$AAI?$AAZ?$AAE?$AA_?$AAM?$AAA?$AAX?$AA?5?$AA?1?$AA?5?$AAs?$AAi?$AAz?$AAe?$AA?$CJ?$AA?$AA@ 0058af94     LIBCMTD:fwrite.obj
 0003:00013fd0       ??_C@_1CC@CGFEEBMC@?$AA?$CI?$AAb?$AAu?$AAf?$AAf?$AAe?$AAr?$AA?5?$AA?$CB?$AA?$DN?$AA?5?$AAN?$AAU?$AAL?$AAL?$AA?$CJ?$AA?$AA@ 0058afd0     LIBCMTD:fwrite.obj
 0003:00013ff8       ??_C@_1BO@JGPKCBCE@?$AA_?$AAf?$AAw?$AAr?$AAi?$AAt?$AAe?$AA_?$AAn?$AAo?$AAl?$AAo?$AAc?$AAk?$AA?$AA@ 0058aff8     LIBCMTD:fwrite.obj
 0003:0001401c       ??_C@_1BA@CMLCEIGG@?$AAf?$AAr?$AAe?$AAa?$AAd?$AA_?$AAs?$AA?$AA@ 0058b01c     LIBCMTD:fread.obj
 0003:00014030       ??_C@_1FO@PNLFLIH@?$AAf?$AA?3?$AA?2?$AAd?$AAd?$AA?2?$AAv?$AAc?$AAt?$AAo?$AAo?$AAl?$AAs?$AA?2?$AAc?$AAr?$AAt?$AA_?$AAb?$AAl?$AAd?$AA?2?$AAs?$AAe?$AAl?$AAf?$AA_?$AAx?$AA8?$AA6?$AA?2?$AAc@ 0058b030     LIBCMTD:fread.obj
 0003:000140a0       ??_C@_1DA@DKEFLDMG@?$AA?$CI?$AA?$CC?$AAb?$AAu?$AAf?$AAf?$AAe?$AAr?$AA?5?$AAt?$AAo?$AAo?$AA?5?$AAs?$AAm?$AAa?$AAl?$AAl?$AA?$CC?$AA?0?$AA?5?$AA0?$AA?$CJ?$AA?$AA@ 0058b0a0     LIBCMTD:fread.obj
 0003:000140e0       ??_C@_1EA@FAMECDND@?$AAn?$AAu?$AAm?$AA?5?$AA?$DM?$AA?$DN?$AA?5?$AA?$CI?$AAS?$AAI?$AAZ?$AAE?$AA_?$AAM?$AAA?$AAX?$AA?5?$AA?1?$AA?5?$AAe?$AAl?$AAe?$AAm?$AAe?$AAn?$AAt?$AAS?$AAi?$AAz?$AAe?$AA?$CJ?$AA?$AA@ 0058b0e0     LIBCMTD:fread.obj
 0003:0001412c       ??_C@_1CA@IDPOGFL@?$AA_?$AAf?$AAr?$AAe?$AAa?$AAd?$AA_?$AAn?$AAo?$AAl?$AAo?$AAc?$AAk?$AA_?$AAs?$AA?$AA@ 0058b12c     LIBCMTD:fread.obj
 0003:00014154       ??_C@_1M@CKCKPMNP@?$AAf?$AAt?$AAe?$AAl?$AAl?$AA?$AA@ 0058b154     LIBCMTD:ftell.obj
 0003:00014168       ??_C@_1FO@NBACIADE@?$AAf?$AA?3?$AA?2?$AAd?$AAd?$AA?2?$AAv?$AAc?$AAt?$AAo?$AAo?$AAl?$AAs?$AA?2?$AAc?$AAr?$AAt?$AA_?$AAb?$AAl?$AAd?$AA?2?$AAs?$AAe?$AAl?$AAf?$AA_?$AAx?$AA8?$AA6?$AA?2?$AAc@ 0058b168     LIBCMTD:ftell.obj
 0003:000141d8       ??_C@_1BM@EPIDANEK@?$AA_?$AAf?$AAt?$AAe?$AAl?$AAl?$AA_?$AAn?$AAo?$AAl?$AAo?$AAc?$AAk?$AA?$AA@ 0058b1d8     LIBCMTD:ftell.obj
 0003:00014200       ??_C@_1IO@PMHBOLJK@?$AA?$CI?$AA?$CI?$AAw?$AAh?$AAe?$AAn?$AAc?$AAe?$AA?5?$AA?$DN?$AA?$DN?$AA?5?$AAS?$AAE?$AAE?$AAK?$AA_?$AAS?$AAE?$AAT?$AA?$CJ?$AA?5?$AA?$HM?$AA?$HM?$AA?5?$AA?$CI?$AAw?$AAh?$AAe?$AAn?$AAc?$AAe@ 0058b200     LIBCMTD:fseek.obj
 0003:000142ac       ??_C@_1M@HCCOIONH@?$AAf?$AAs?$AAe?$AAe?$AAk?$AA?$AA@ 0058b2ac     LIBCMTD:fseek.obj
 0003:000142c0       ??_C@_1FO@ECBPAICH@?$AAf?$AA?3?$AA?2?$AAd?$AAd?$AA?2?$AAv?$AAc?$AAt?$AAo?$AAo?$AAl?$AAs?$AA?2?$AAc?$AAr?$AAt?$AA_?$AAb?$AAl?$AAd?$AA?2?$AAs?$AAe?$AAl?$AAf?$AA_?$AAx?$AA8?$AA6?$AA?2?$AAc@ 0058b2c0     LIBCMTD:fseek.obj
 0003:00014330       ??_C@_02PHMGELLB@?6?6?$AA@ 0058b330     LIBCMTD:assert.obj
 0003:00014334       ??_C@_03KHICJKCI@?4?4?4?$AA@ 0058b334     LIBCMTD:assert.obj
 0003:00014338       ??_C@_0CF@GOGNBNAK@Microsoft?5Visual?5C?$CL?$CL?5Runtime?5Lib@ 0058b338     LIBCMTD:assert.obj
 0003:00014364       ??_C@_0DN@EBBNMLME@?$CIPress?5Retry?5to?5debug?5the?5applic@ 0058b364     LIBCMTD:assert.obj
 0003:000143b0       ??_C@_1LM@PPELICOO@?$AAs?$AAt?$AAr?$AAc?$AAa?$AAt?$AA_?$AAs?$AA?$CI?$AAa?$AAs?$AAs?$AAe?$AAr?$AAt?$AAb?$AAu?$AAf?$AA?0?$AA?5?$AA?$CI?$AA6?$AA0?$AA?5?$AA?$CK?$AA?5?$AA9?$AA?$CJ?$AA?0?$AA?5?$AA?$CC?$AA?$CI@ 0058b3b0     LIBCMTD:assert.obj
 0003:00014498       ??_C@_1FG@FPMGDMJC@?$AAs?$AAt?$AAr?$AAc?$AAa?$AAt?$AA_?$AAs?$AA?$CI?$AAa?$AAs?$AAs?$AAe?$AAr?$AAt?$AAb?$AAu?$AAf?$AA?0?$AA?5?$AA?$CI?$AA6?$AA0?$AA?5?$AA?$CK?$AA?5?$AA9?$AA?$CJ?$AA?0?$AA?5?$AAd?$AAb@ 0058b498     LIBCMTD:assert.obj
 0003:00014500       ??_C@_0HA@OJHAGA@For?5information?5on?5how?5your?5prog@ 0058b500     LIBCMTD:assert.obj
 0003:00014588       ??_C@_1BCK@FOGOPFPO@?$AAs?$AAt?$AAr?$AAc?$AAa?$AAt?$AA_?$AAs?$AA?$CI?$AAa?$AAs?$AAs?$AAe?$AAr?$AAt?$AAb?$AAu?$AAf?$AA?0?$AA?5?$AA?$CI?$AA6?$AA0?$AA?5?$AA?$CK?$AA?5?$AA9?$AA?$CJ?$AA?0?$AA?5?$AA?$CC?$AAF@ 0058b588     LIBCMTD:assert.obj
 0003:000146f0       ??_C@_1EM@ENNCDANH@?$AAs?$AAt?$AAr?$AAc?$AAa?$AAt?$AA_?$AAs?$AA?$CI?$AA?5?$AAa?$AAs?$AAs?$AAe?$AAr?$AAt?$AAb?$AAu?$AAf?$AA?0?$AA?5?$AA?$CI?$AA6?$AA0?$AA?5?$AA?$CK?$AA?5?$AA9?$AA?$CJ?$AA?0?$AA?5?$AAe@ 0058b6f0     LIBCMTD:assert.obj
 0003:00014750       ??_C@_1CHK@HNOMNMBD@?$AA_?$AAm?$AAb?$AAs?$AAn?$AAb?$AAc?$AAa?$AAt?$AA_?$AAs?$AA?$CI?$AA?5?$AAa?$AAs?$AAs?$AAe?$AAr?$AAt?$AAb?$AAu?$AAf?$AA?0?$AA?5?$AA?$CI?$AA6?$AA0?$AA?5?$AA?$CK?$AA?5?$AA9?$AA?$CJ@ 0058b750     LIBCMTD:assert.obj
 0003:00014a48       ??_C@_0N@MEECIJGN@Expression?3?5?$AA@ 0058ba48     LIBCMTD:assert.obj
 0003:00014a58       ??_C@_1GA@GHECLIPG@?$AAs?$AAt?$AAr?$AAc?$AAa?$AAt?$AA_?$AAs?$AA?$CI?$AA?5?$AAa?$AAs?$AAs?$AAe?$AAr?$AAt?$AAb?$AAu?$AAf?$AA?0?$AA?5?$AA?$CI?$AA6?$AA0?$AA?5?$AA?$CK?$AA?5?$AA9?$AA?$CJ?$AA?0?$AA?5?$AA?$CC@ 0058ba58     LIBCMTD:assert.obj
 0003:00014ad0       ??_C@_1KG@MJEHKFDP@?$AA_?$AAi?$AAt?$AAo?$AAa?$AA_?$AAs?$AA?$CI?$AA?5?$AAl?$AAi?$AAn?$AAe?$AAn?$AAo?$AA?0?$AA?5?$AAa?$AAs?$AAs?$AAe?$AAr?$AAt?$AAb?$AAu?$AAf?$AA?5?$AA?$CL?$AA?5?$AAs?$AAt?$AAr@ 0058bad0     LIBCMTD:assert.obj
 0003:00014b98       ??_C@_06FIEBOLOH@Line?3?5?$AA@ 0058bb98     LIBCMTD:assert.obj
 0003:00014ba0       ??_C@_1FE@EHMPHKDB@?$AAs?$AAt?$AAr?$AAc?$AAa?$AAt?$AA_?$AAs?$AA?$CI?$AA?5?$AAa?$AAs?$AAs?$AAe?$AAr?$AAt?$AAb?$AAu?$AAf?$AA?0?$AA?5?$AA?$CI?$AA6?$AA0?$AA?5?$AA?$CK?$AA?5?$AA9?$AA?$CJ?$AA?0?$AA?5?$AA?$CC@ 0058bba0     LIBCMTD:assert.obj
 0003:00014c08       ??_C@_1FE@BELKICLD@?$AAs?$AAt?$AAr?$AAc?$AAa?$AAt?$AA_?$AAs?$AA?$CI?$AA?5?$AAa?$AAs?$AAs?$AAe?$AAr?$AAt?$AAb?$AAu?$AAf?$AA?0?$AA?5?$AA?$CI?$AA6?$AA0?$AA?5?$AA?$CK?$AA?5?$AA9?$AA?$CJ?$AA?0?$AA?5?$AAf@ 0058bc08     LIBCMTD:assert.obj
 0003:00014c70       ??_C@_1IC@IABENIAD@?$AAs?$AAt?$AAr?$AAc?$AAa?$AAt?$AA_?$AAs?$AA?$CI?$AA?5?$AAa?$AAs?$AAs?$AAe?$AAr?$AAt?$AAb?$AAu?$AAf?$AA?0?$AA?5?$AA?$CI?$AA6?$AA0?$AA?5?$AA?$CK?$AA?5?$AA9?$AA?$CJ?$AA?0?$AA?5?$AAp@ 0058bc70     LIBCMTD:assert.obj
 0003:00014d10       ??_C@_1HK@LJCIAEID@?$AA_?$AAm?$AAb?$AAs?$AAn?$AAb?$AAc?$AAa?$AAt?$AA_?$AAs?$AA?$CI?$AA?5?$AAa?$AAs?$AAs?$AAe?$AAr?$AAt?$AAb?$AAu?$AAf?$AA?0?$AA?5?$AA?$CI?$AA6?$AA0?$AA?5?$AA?$CK?$AA?5?$AA9?$AA?$CJ@ 0058bd10     LIBCMTD:assert.obj
 0003:00014da8       ??_C@_1HC@NNJOOJHD@?$AA_?$AAm?$AAb?$AAs?$AAn?$AAb?$AAc?$AAa?$AAt?$AA_?$AAs?$AA?$CI?$AA?5?$AAa?$AAs?$AAs?$AAe?$AAr?$AAt?$AAb?$AAu?$AAf?$AA?0?$AA?5?$AA?$CI?$AA6?$AA0?$AA?5?$AA?$CK?$AA?5?$AA9?$AA?$CJ@ 0058bda8     LIBCMTD:assert.obj
 0003:00014e30       ??_C@_1FO@ILLBEHNB@?$AAs?$AAt?$AAr?$AAc?$AAa?$AAt?$AA_?$AAs?$AA?$CI?$AA?5?$AAa?$AAs?$AAs?$AAe?$AAr?$AAt?$AAb?$AAu?$AAf?$AA?0?$AA?5?$AA?$CI?$AA6?$AA0?$AA?5?$AA?$CK?$AA?5?$AA9?$AA?$CJ?$AA?0?$AA?5?$AAp@ 0058be30     LIBCMTD:assert.obj
 0003:00014ea0       ??_C@_1FG@BIHAHDLM@?$AAs?$AAt?$AAr?$AAc?$AAa?$AAt?$AA_?$AAs?$AA?$CI?$AA?5?$AAa?$AAs?$AAs?$AAe?$AAr?$AAt?$AAb?$AAu?$AAf?$AA?0?$AA?5?$AA?$CI?$AA6?$AA0?$AA?5?$AA?$CK?$AA?5?$AA9?$AA?$CJ?$AA?0?$AA?5?$AAd@ 0058bea0     LIBCMTD:assert.obj
 0003:00014f08       ??_C@_1GK@LELDAJFN@?$AA_?$AAm?$AAb?$AAs?$AAn?$AAb?$AAc?$AAa?$AAt?$AA_?$AAs?$AA?$CI?$AA?5?$AAa?$AAs?$AAs?$AAe?$AAr?$AAt?$AAb?$AAu?$AAf?$AA?0?$AA?5?$AA?$CI?$AA6?$AA0?$AA?5?$AA?$CK?$AA?5?$AA9?$AA?$CJ@ 0058bf08     LIBCMTD:assert.obj
 0003:00014f88       ??_C@_06IGPBOHMJ@File?3?5?$AA@ 0058bf88     LIBCMTD:assert.obj
 0003:00014f90       ??_C@_1FE@JHHKPPGM@?$AAs?$AAt?$AAr?$AAc?$AAa?$AAt?$AA_?$AAs?$AA?$CI?$AA?5?$AAa?$AAs?$AAs?$AAe?$AAr?$AAt?$AAb?$AAu?$AAf?$AA?0?$AA?5?$AA?$CI?$AA6?$AA0?$AA?5?$AA?$CK?$AA?5?$AA9?$AA?$CJ?$AA?0?$AA?5?$AA?$CC@ 0058bf90     LIBCMTD:assert.obj
 0003:00014ff8       ??_C@_1FC@HGJOLIGH@?$AAs?$AAt?$AAr?$AAc?$AAa?$AAt?$AA_?$AAs?$AA?$CI?$AA?5?$AAa?$AAs?$AAs?$AAe?$AAr?$AAt?$AAb?$AAu?$AAf?$AA?0?$AA?5?$AA?$CI?$AA6?$AA0?$AA?5?$AA?$CK?$AA?5?$AA9?$AA?$CJ?$AA?0?$AA?5?$AAn@ 0058bff8     LIBCMTD:assert.obj
 0003:00015060       ??_C@_1EK@HNKCAGGP@?$AAs?$AAt?$AAr?$AAc?$AAa?$AAt?$AA_?$AAs?$AA?$CI?$AA?5?$AAa?$AAs?$AAs?$AAe?$AAr?$AAt?$AAb?$AAu?$AAf?$AA?0?$AA?5?$AA?$CI?$AA6?$AA0?$AA?5?$AA?$CK?$AA?5?$AA9?$AA?$CJ?$AA?0?$AA?5?$AAp@ 0058c060     LIBCMTD:assert.obj
 0003:000150b8       ??_C@_1HO@DGLFHLNC@?$AA_?$AAm?$AAb?$AAs?$AAn?$AAb?$AAc?$AAp?$AAy?$AA_?$AAs?$AA?$CI?$AA?5?$AAp?$AAc?$AAh?$AA?0?$AA?5?$AA?$CI?$AA2?$AA6?$AA0?$AA?5?$AA?$CL?$AA?5?$AA1?$AA?$CJ?$AA?5?$AA?9?$AA?5?$AA?$CI?$AAp@ 0058c0b8     LIBCMTD:assert.obj
 0003:00015150       ??_C@_0BH@DNAGHKFM@?$DMprogram?5name?5unknown?$DO?$AA@ 0058c150     LIBCMTD:assert.obj
 0003:00015170       ??_C@_1GO@MKBPHEIL@?$AAs?$AAt?$AAr?$AAc?$AAp?$AAy?$AA_?$AAs?$AA?$CI?$AA?5?$AAp?$AAr?$AAo?$AAg?$AAn?$AAa?$AAm?$AAe?$AA?0?$AA?5?$AA2?$AA6?$AA0?$AA?5?$AA?$CL?$AA?5?$AA1?$AA?0?$AA?5?$AA?$CC?$AA?$DM?$AAp@ 0058c170     LIBCMTD:assert.obj
 0003:000151f4       ??_C@_09KLGCKDOD@Program?3?5?$AA@ 0058c1f4     LIBCMTD:assert.obj
 0003:00015200       ??_C@_1FK@JLNGAFHA@?$AAs?$AAt?$AAr?$AAc?$AAa?$AAt?$AA_?$AAs?$AA?$CI?$AA?5?$AAa?$AAs?$AAs?$AAe?$AAr?$AAt?$AAb?$AAu?$AAf?$AA?0?$AA?5?$AA?$CI?$AA6?$AA0?$AA?5?$AA?$CK?$AA?5?$AA9?$AA?$CJ?$AA?0?$AA?5?$AA?$CC@ 0058c200     LIBCMTD:assert.obj
 0003:00015270       ??_C@_1FI@LABOHEIE@?$AAs?$AAt?$AAr?$AAc?$AAa?$AAt?$AA_?$AAs?$AA?$CI?$AA?5?$AAa?$AAs?$AAs?$AAe?$AAr?$AAt?$AAb?$AAu?$AAf?$AA?0?$AA?5?$AA?$CI?$AA6?$AA0?$AA?5?$AA?$CK?$AA?5?$AA9?$AA?$CJ?$AA?0?$AA?5?$AAd@ 0058c270     LIBCMTD:assert.obj
 0003:000152dc       ??_C@_0BC@LAIDCHCH@Assertion?5failed?$CB?$AA@ 0058c2dc     LIBCMTD:assert.obj
 0003:000152f8       ??_C@_1GK@MEIIIEKC@?$AAs?$AAt?$AAr?$AAc?$AAp?$AAy?$AA_?$AAs?$AA?$CI?$AA?5?$AAa?$AAs?$AAs?$AAe?$AAr?$AAt?$AAb?$AAu?$AAf?$AA?0?$AA?5?$AA?$CI?$AA6?$AA0?$AA?5?$AA?$CK?$AA?5?$AA9?$AA?$CJ?$AA?0?$AA?5?$AA?$CC@ 0058c2f8     LIBCMTD:assert.obj
 0003:00015378       ??_C@_1BA@DADDCNOK@?$AA_?$AAa?$AAs?$AAs?$AAe?$AAr?$AAt?$AA?$AA@ 0058c378     LIBCMTD:assert.obj
 0003:00015390       ??_C@_1HO@MLMGPAFH@?$AA?$CI?$AA?$CC?$AAi?$AAn?$AAc?$AAo?$AAn?$AAs?$AAi?$AAs?$AAt?$AAe?$AAn?$AAt?$AA?5?$AAI?$AAO?$AAB?$AA?5?$AAf?$AAi?$AAe?$AAl?$AAd?$AAs?$AA?$CC?$AA?0?$AA?5?$AAs?$AAt?$AAr?$AAe@ 0058c390     LIBCMTD:_flsbuf.obj
 0003:00015428       ??_C@_1GC@GNCCMPNN@?$AAf?$AA?3?$AA?2?$AAd?$AAd?$AA?2?$AAv?$AAc?$AAt?$AAo?$AAo?$AAl?$AAs?$AA?2?$AAc?$AAr?$AAt?$AA_?$AAb?$AAl?$AAd?$AA?2?$AAs?$AAe?$AAl?$AAf?$AA_?$AAx?$AA8?$AA6?$AA?2?$AAc@ 0058c428     LIBCMTD:_flsbuf.obj
 0003:000154a0       ??_C@_1BI@MFCLPIBM@?$AAs?$AAt?$AAr?$AA?5?$AA?$CB?$AA?$DN?$AA?5?$AAN?$AAU?$AAL?$AAL?$AA?$AA@ 0058c4a0     LIBCMTD:_flsbuf.obj
 0003:000154bc       ??_C@_1O@CEDCILHN@?$AA?$CI?$AAn?$AAu?$AAl?$AAl?$AA?$CJ?$AA?$AA@ 0058c4bc     LIBCMTD:output.obj
 0003:000154cc       ??_C@_06OJHGLDPL@?$CInull?$CJ?$AA@ 0058c4cc     LIBCMTD:output.obj
 0003:000154d8       ___lookuptable             0058c4d8     LIBCMTD:output.obj
 0003:00015544       ??_C@_0DA@NFBEBPEE@f?3?2dd?2vctools?2crt_bld?2self_x86?2c@ 0058c544     LIBCMTD:output.obj
 0003:00015580       ??_C@_1EK@PNGFDECN@?$AA?$CI?$AA?$CC?$AA?8?$AAn?$AA?8?$AA?5?$AAf?$AAo?$AAr?$AAm?$AAa?$AAt?$AA?5?$AAs?$AAp?$AAe?$AAc?$AAi?$AAf?$AAi?$AAe?$AAr?$AA?5?$AAd?$AAi?$AAs?$AAa?$AAb?$AAl?$AAe?$AAd?$AA?$CC@ 0058c580     LIBCMTD:output.obj
 0003:000155d8       ??_C@_1CC@IFFHEMNF@?$AA?$CI?$AAc?$AAh?$AA?5?$AA?$CB?$AA?$DN?$AA?5?$AA_?$AAT?$AA?$CI?$AA?8?$AA?2?$AA0?$AA?8?$AA?$CJ?$AA?$CJ?$AA?$AA@ 0058c5d8     LIBCMTD:output.obj
 0003:00015600       ??_C@_1BE@IONLIDNC@?$AA_?$AAo?$AAu?$AAt?$AAp?$AAu?$AAt?$AA_?$AAl?$AA?$AA@ 0058c600     LIBCMTD:output.obj
 0003:00015618       ??_C@_1GA@HHFOFBLN@?$AAf?$AA?3?$AA?2?$AAd?$AAd?$AA?2?$AAv?$AAc?$AAt?$AAo?$AAo?$AAl?$AAs?$AA?2?$AAc?$AAr?$AAt?$AA_?$AAb?$AAl?$AAd?$AA?2?$AAs?$AAe?$AAl?$AAf?$AA_?$AAx?$AA8?$AA6?$AA?2?$AAc@ 0058c618     LIBCMTD:output.obj
 0003:0001568c       ??_C@_1BG@KCMPBBDK@?$AA_?$AAg?$AAe?$AAt?$AA_?$AAe?$AAr?$AAr?$AAn?$AAo?$AA?$AA@ 0058c68c     LIBCMTD:dosmap.obj
 0003:000156a8       ??_C@_1GA@MFGIMPNL@?$AAf?$AA?3?$AA?2?$AAd?$AAd?$AA?2?$AAv?$AAc?$AAt?$AAo?$AAo?$AAl?$AAs?$AA?2?$AAc?$AAr?$AAt?$AA_?$AAb?$AAl?$AAd?$AA?2?$AAs?$AAe?$AAl?$AAf?$AA_?$AAx?$AA8?$AA6?$AA?2?$AAc@ 0058c6a8     LIBCMTD:dosmap.obj
 0003:0001571c       ??_C@_1BO@LKEBEKJP@?$AAp?$AAV?$AAa?$AAl?$AAu?$AAe?$AA?5?$AA?$CB?$AA?$DN?$AA?5?$AAN?$AAU?$AAL?$AAL?$AA?$AA@ 0058c71c     LIBCMTD:dosmap.obj
 0003:00015740       ??_C@_1BM@INIPHHDD@?$AA_?$AAg?$AAe?$AAt?$AA_?$AAd?$AAo?$AAs?$AAe?$AAr?$AAr?$AAn?$AAo?$AA?$AA@ 0058c740     LIBCMTD:dosmap.obj
 0003:00015768       ??_C@_1FK@BCPANIEK@?$AA?$CI?$AA?$CC?$AAM?$AAi?$AAs?$AAs?$AAi?$AAn?$AAg?$AA?5?$AAp?$AAo?$AAs?$AAi?$AAt?$AAi?$AAo?$AAn?$AA?5?$AAi?$AAn?$AA?5?$AAt?$AAh?$AAe?$AA?5?$AAf?$AAo?$AAr?$AAm?$AAa?$AAt@ 0058c768     LIBCMTD:outputp.obj
 0003:000157d8       ??_C@_1FK@LNCFKALM@?$AA?$CI?$AA?$CI?$AAs?$AAt?$AAa?$AAt?$AAe?$AA?5?$AA?$DN?$AA?$DN?$AA?5?$AAS?$AAT?$AA_?$AAN?$AAO?$AAR?$AAM?$AAA?$AAL?$AA?$CJ?$AA?5?$AA?$HM?$AA?$HM?$AA?5?$AA?$CI?$AAs?$AAt?$AAa?$AAt?$AAe?$AA?5@ 0058c7d8     LIBCMTD:outputp.obj
 0003:00015848       ??_C@_1JC@OACKELNN@?$AA_?$AAt?$AAv?$AAa?$AAl?$AAi?$AAd?$AAa?$AAt?$AAe?$AA_?$AAp?$AAa?$AAr?$AAa?$AAm?$AA_?$AAr?$AAe?$AAu?$AAs?$AAe?$AA?$CI?$AA?$CG?$AAp?$AAo?$AAs?$AA_?$AAv?$AAa?$AAl?$AAu@ 0058c848     LIBCMTD:outputp.obj
 0003:000158f8       ??_C@_1IK@NBGDDCBN@?$AA_?$AAt?$AAv?$AAa?$AAl?$AAi?$AAd?$AAa?$AAt?$AAe?$AA_?$AAp?$AAa?$AAr?$AAa?$AAm?$AA_?$AAr?$AAe?$AAu?$AAs?$AAe?$AA?$CI?$AA?$CG?$AAp?$AAo?$AAs?$AA_?$AAv?$AAa?$AAl?$AAu@ 0058c8f8     LIBCMTD:outputp.obj
 0003:000159a0       ??_C@_1DG@GOHGNKHE@?$AAp?$AAa?$AAs?$AAs?$AA?5?$AA?$DN?$AA?$DN?$AA?5?$AAF?$AAO?$AAR?$AAM?$AAA?$AAT?$AA_?$AAO?$AAU?$AAT?$AAP?$AAU?$AAT?$AA_?$AAP?$AAA?$AAS?$AAS?$AA?$AA@ 0058c9a0     LIBCMTD:outputp.obj
 0003:000159e0       ??_C@_1IM@DNGHAPLB@?$AA_?$AAt?$AAv?$AAa?$AAl?$AAi?$AAd?$AAa?$AAt?$AAe?$AA_?$AAp?$AAa?$AAr?$AAa?$AAm?$AA_?$AAr?$AAe?$AAu?$AAs?$AAe?$AA?$CI?$AA?$CG?$AAp?$AAo?$AAs?$AA_?$AAv?$AAa?$AAl?$AAu@ 0058c9e0     LIBCMTD:outputp.obj
 0003:00015a88       ??_C@_1IG@HJIMKDHC@?$AA_?$AAt?$AAv?$AAa?$AAl?$AAi?$AAd?$AAa?$AAt?$AAe?$AA_?$AAp?$AAa?$AAr?$AAa?$AAm?$AA_?$AAr?$AAe?$AAu?$AAs?$AAe?$AA?$CI?$AA?$CG?$AAp?$AAo?$AAs?$AA_?$AAv?$AAa?$AAl?$AAu@ 0058ca88     LIBCMTD:outputp.obj
 0003:00015b28       ??_C@_1IG@FDCPLALG@?$AA_?$AAt?$AAv?$AAa?$AAl?$AAi?$AAd?$AAa?$AAt?$AAe?$AA_?$AAp?$AAa?$AAr?$AAa?$AAm?$AA_?$AAr?$AAe?$AAu?$AAs?$AAe?$AA?$CI?$AA?$CG?$AAp?$AAo?$AAs?$AA_?$AAv?$AAa?$AAl?$AAu@ 0058cb28     LIBCMTD:outputp.obj
 0003:00015bc8       ??_C@_1IK@MHEDJAMK@?$AA_?$AAt?$AAv?$AAa?$AAl?$AAi?$AAd?$AAa?$AAt?$AAe?$AA_?$AAp?$AAa?$AAr?$AAa?$AAm?$AA_?$AAr?$AAe?$AAu?$AAs?$AAe?$AA?$CI?$AA?$CG?$AAp?$AAo?$AAs?$AA_?$AAv?$AAa?$AAl?$AAu@ 0058cbc8     LIBCMTD:outputp.obj
 0003:00015c70       ??_C@_1EM@BNPHBBIA@?$AA?$CI?$AA?$CI?$AAt?$AAy?$AAp?$AAe?$AA_?$AAp?$AAo?$AAs?$AA?$DO?$AA?$DN?$AA0?$AA?$CJ?$AA?5?$AA?$CG?$AA?$CG?$AA?5?$AA?$CI?$AAt?$AAy?$AAp?$AAe?$AA_?$AAp?$AAo?$AAs?$AA?$DM?$AA_?$AAA?$AAR?$AAG@ 0058cc70     LIBCMTD:outputp.obj
 0003:00015cd0       ??_C@_1IK@EIEPDKHJ@?$AA_?$AAt?$AAv?$AAa?$AAl?$AAi?$AAd?$AAa?$AAt?$AAe?$AA_?$AAp?$AAa?$AAr?$AAa?$AAm?$AA_?$AAr?$AAe?$AAu?$AAs?$AAe?$AA?$CI?$AA?$CG?$AAp?$AAo?$AAs?$AA_?$AAv?$AAa?$AAl?$AAu@ 0058ccd0     LIBCMTD:outputp.obj
 0003:00015d78       ??_C@_1JG@JBJBOCFB@?$AA?$CI?$AA?$CI?$AAp?$AAr?$AAe?$AAc?$AAi?$AAs?$AA_?$AAp?$AAo?$AAs?$AA?5?$AA?$DO?$AA?$DN?$AA?5?$AA0?$AA?$CJ?$AA?5?$AA?$CG?$AA?$CG?$AA?5?$AA?$CI?$AA?$CK?$AAe?$AAn?$AAd?$AA_?$AAp?$AAo?$AAs?$AA?5@ 0058cd78     LIBCMTD:outputp.obj
 0003:00015e30       ??_C@_1II@PIPIMLPF@?$AA_?$AAt?$AAv?$AAa?$AAl?$AAi?$AAd?$AAa?$AAt?$AAe?$AA_?$AAp?$AAa?$AAr?$AAa?$AAm?$AA_?$AAr?$AAe?$AAu?$AAs?$AAe?$AA?$CI?$AA?$CG?$AAp?$AAo?$AAs?$AA_?$AAv?$AAa?$AAl?$AAu@ 0058ce30     LIBCMTD:outputp.obj
 0003:00015ed8       ??_C@_1JE@NMBHOLFI@?$AA?$CI?$AA?$CI?$AAw?$AAi?$AAd?$AAt?$AAh?$AA_?$AAp?$AAo?$AAs?$AA?5?$AA?$DO?$AA?$DN?$AA?5?$AA0?$AA?$CJ?$AA?5?$AA?$CG?$AA?$CG?$AA?5?$AA?$CI?$AA?$CK?$AAe?$AAn?$AAd?$AA_?$AAp?$AAo?$AAs?$AA?5?$AA?$DN@ 0058ced8     LIBCMTD:outputp.obj
 0003:00015f90       ??_C@_1EE@DMAIGNBG@?$AA?$CI?$AA?$CC?$AAI?$AAn?$AAc?$AAo?$AAr?$AAr?$AAe?$AAc?$AAt?$AA?5?$AAf?$AAo?$AAr?$AAm?$AAa?$AAt?$AA?5?$AAs?$AAp?$AAe?$AAc?$AAi?$AAf?$AAi?$AAe?$AAr?$AA?$CC?$AA?0?$AA?5?$AA0@ 0058cf90     LIBCMTD:outputp.obj
 0003:00015fe8       ??_C@_1JC@PFJNKEIO@?$AA?$CI?$AA?$CI?$AAt?$AAy?$AAp?$AAe?$AA_?$AAp?$AAo?$AAs?$AA?5?$AA?$DO?$AA?$DN?$AA?5?$AA0?$AA?$CJ?$AA?5?$AA?$CG?$AA?$CG?$AA?5?$AA?$CI?$AA?$CK?$AAe?$AAn?$AAd?$AA_?$AAp?$AAo?$AAs?$AA?5?$AA?$DN?$AA?$DN@ 0058cfe8     LIBCMTD:outputp.obj
 0003:00016098       ??_C@_1BI@KANOLAMF@?$AA_?$AAo?$AAu?$AAt?$AAp?$AAu?$AAt?$AA_?$AAp?$AA_?$AAl?$AA?$AA@ 0058d098     LIBCMTD:outputp.obj
 0003:000160b4       ??_C@_0BP@OGBCLIBO@Stack?5around?5_alloca?5corrupted?$AA@ 0058d0b4     LIBCMTD:_userapi_.obj
 0003:000160dc       ??_C@_0CK@CNLNOEPB@Local?5variable?5used?5before?5initi@ 0058d0dc     LIBCMTD:_userapi_.obj
 0003:00016110       ??_C@_0BI@CIGMDCBH@Stack?5memory?5corruption?$AA@ 0058d110     LIBCMTD:_userapi_.obj
 0003:0001612c       ??_C@_0CK@FEGOIOPB@Cast?5to?5smaller?5type?5causing?5los@ 0058d12c     LIBCMTD:_userapi_.obj
 0003:00016160       ??_C@_0BJ@HEGAHDFO@Stack?5pointer?5corruption?$AA@ 0058d160     LIBCMTD:_userapi_.obj
 0003:00016198       ??_C@_0DP@CBBAPGOP@f?3?2dd?2vctools?2crt_bld?2self_x86?2c@ 0058d198     LIBCMTD:chkesp.obj
 0003:000161e8       ??_C@_0NM@DNEDKLDF@The?5value?5of?5ESP?5was?5not?5properl@ 0058d1e8     LIBCMTD:chkesp.obj
 0003:000162f0       ??_C@_1EC@FABAOFFO@?$AA?$CI?$AAc?$AAo?$AAu?$AAn?$AAt?$AA?5?$AA?$DN?$AA?$DN?$AA?5?$AA0?$AA?$CJ?$AA?5?$AA?$HM?$AA?$HM?$AA?5?$AA?$CI?$AAs?$AAt?$AAr?$AAi?$AAn?$AAg?$AA?5?$AA?$CB?$AA?$DN?$AA?5?$AAN?$AAU?$AAL?$AAL?$AA?$CJ@ 0058d2f0     LIBCMTD:vsnprnc.obj
 0003:00016340       ??_C@_1CE@PCFPEIFI@?$AA_?$AAv?$AAs?$AAn?$AAp?$AAr?$AAi?$AAn?$AAt?$AAf?$AA_?$AAh?$AAe?$AAl?$AAp?$AAe?$AAr?$AA?$AA@ 0058d340     LIBCMTD:vsnprnc.obj
 0003:0001636c       ??_C@_1DA@HPBFKMEB@?$AA?$CI?$AA?$CC?$AAB?$AAu?$AAf?$AAf?$AAe?$AAr?$AA?5?$AAt?$AAo?$AAo?$AA?5?$AAs?$AAm?$AAa?$AAl?$AAl?$AA?$CC?$AA?0?$AA?5?$AA0?$AA?$CJ?$AA?$AA@ 0058d36c     LIBCMTD:vsnprnc.obj
 0003:000163a8       ??_C@_1EE@OKCKIGFK@?$AAs?$AAt?$AAr?$AAi?$AAn?$AAg?$AA?5?$AA?$CB?$AA?$DN?$AA?5?$AAN?$AAU?$AAL?$AAL?$AA?5?$AA?$CG?$AA?$CG?$AA?5?$AAs?$AAi?$AAz?$AAe?$AAI?$AAn?$AAB?$AAy?$AAt?$AAe?$AAs?$AA?5?$AA?$DO?$AA?5@ 0058d3a8     LIBCMTD:vsnprnc.obj
 0003:000163fc       ??_C@_1BM@BLJALHEF@?$AA_?$AAv?$AAs?$AAp?$AAr?$AAi?$AAn?$AAt?$AAf?$AA_?$AAs?$AA_?$AAl?$AA?$AA@ 0058d3fc     LIBCMTD:vsnprnc.obj
 0003:00016420       ??_C@_1BO@MLMCMBKN@?$AAf?$AAo?$AAr?$AAm?$AAa?$AAt?$AA?5?$AA?$CB?$AA?$DN?$AA?5?$AAN?$AAU?$AAL?$AAL?$AA?$AA@ 0058d420     LIBCMTD:vsnprnc.obj
 0003:00016444       ??_C@_1BO@MMPELNIM@?$AA_?$AAv?$AAs?$AAn?$AAp?$AAr?$AAi?$AAn?$AAt?$AAf?$AA_?$AAs?$AA_?$AAl?$AA?$AA@ 0058d444     LIBCMTD:vsnprnc.obj
 0003:00016474       ??_C@_0CP@MKONOLCI@f?3?2dd?2vctools?2crt_bld?2self_x86?2c@ 0058d474     LIBCMTD:mlock.obj
 0003:000164ac       ??_C@_06PJIGMIJB@Client?$AA@ 0058d4ac     LIBCMTD:dbgheap.obj
 0003:000164b4       ??_C@_06KMEJCCGM@Ignore?$AA@ 0058d4b4     LIBCMTD:dbgheap.obj
 0003:000164bc       ??_C@_03OGPFLFLO@CRT?$AA@  0058d4bc     LIBCMTD:dbgheap.obj
 0003:000164c0       ??_C@_06EFAGIKOH@Normal?$AA@ 0058d4c0     LIBCMTD:dbgheap.obj
 0003:000164c8       ??_C@_04HJMOFLDF@Free?$AA@ 0058d4c8     LIBCMTD:dbgheap.obj
 0003:000164e8       ??_C@_0DC@JEMAGEKG@Error?3?5memory?5allocation?3?5bad?5me@ 0058d4e8     LIBCMTD:dbgheap.obj
 0003:00016524       ??_C@_0CF@BICKFLAF@Invalid?5allocation?5size?3?5?$CFIu?5byt@ 0058d524     LIBCMTD:dbgheap.obj
 0003:00016550       ??_C@_0CB@CCLOLAHO@Client?5hook?5allocation?5failure?4?6@ 0058d550     LIBCMTD:dbgheap.obj
 0003:00016578       ??_C@_0DF@BBEGIFEK@Client?5hook?5allocation?5failure?5a@ 0058d578     LIBCMTD:dbgheap.obj
 0003:000165b8       ??_C@_1GC@DNJKKEAA@?$AAf?$AA?3?$AA?2?$AAd?$AAd?$AA?2?$AAv?$AAc?$AAt?$AAo?$AAo?$AAl?$AAs?$AA?2?$AAc?$AAr?$AAt?$AA_?$AAb?$AAl?$AAd?$AA?2?$AAs?$AAe?$AAl?$AAf?$AA_?$AAx?$AA8?$AA6?$AA?2?$AAc@ 0058d5b8     LIBCMTD:dbgheap.obj
 0003:00016630       ??_C@_1CE@LJFEPPMP@?$AA_?$AAC?$AAr?$AAt?$AAC?$AAh?$AAe?$AAc?$AAk?$AAM?$AAe?$AAm?$AAo?$AAr?$AAy?$AA?$CI?$AA?$CJ?$AA?$AA@ 0058d630     LIBCMTD:dbgheap.obj
 0003:0001665c       ??_C@_1CC@CKBDKDFF@?$AA_?$AAc?$AAa?$AAl?$AAl?$AAo?$AAc?$AA_?$AAd?$AAb?$AAg?$AA_?$AAi?$AAm?$AAp?$AAl?$AA?$AA@ 0058d65c     LIBCMTD:dbgheap.obj
 0003:00016684       ??_C@_1DO@MEOGCGBN@?$AA?$CI?$AA_?$AAH?$AAE?$AAA?$AAP?$AA_?$AAM?$AAA?$AAX?$AAR?$AAE?$AAQ?$AA?5?$AA?1?$AA?5?$AAn?$AAN?$AAu?$AAm?$AA?$CJ?$AA?5?$AA?$DO?$AA?$DN?$AA?5?$AAn?$AAS?$AAi?$AAz?$AAe?$AA?$AA@ 0058d684     LIBCMTD:dbgheap.obj
 0003:000166d0       ??_C@_1DE@KOOKLFBB@?$AA_?$AAp?$AAF?$AAi?$AAr?$AAs?$AAt?$AAB?$AAl?$AAo?$AAc?$AAk?$AA?5?$AA?$DN?$AA?$DN?$AA?5?$AAp?$AAO?$AAl?$AAd?$AAB?$AAl?$AAo?$AAc?$AAk?$AA?$AA@ 0058d6d0     LIBCMTD:dbgheap.obj
 0003:00016710       ??_C@_1DC@GEFKNOOL@?$AA_?$AAp?$AAL?$AAa?$AAs?$AAt?$AAB?$AAl?$AAo?$AAc?$AAk?$AA?5?$AA?$DN?$AA?$DN?$AA?5?$AAp?$AAO?$AAl?$AAd?$AAB?$AAl?$AAo?$AAc?$AAk?$AA?$AA@ 0058d710     LIBCMTD:dbgheap.obj
 0003:00016750       ??_C@_1GE@PCKLOLAO@?$AAf?$AAR?$AAe?$AAa?$AAl?$AAl?$AAo?$AAc?$AA?5?$AA?$HM?$AA?$HM?$AA?5?$AA?$CI?$AA?$CB?$AAf?$AAR?$AAe?$AAa?$AAl?$AAl?$AAo?$AAc?$AA?5?$AA?$CG?$AA?$CG?$AA?5?$AAp?$AAN?$AAe?$AAw?$AAB?$AAl@ 0058d750     LIBCMTD:dbgheap.obj
 0003:000167c8       ??_C@_0DA@HFBKENN@Error?3?5possible?5heap?5corruption?5@ 0058d7c8     LIBCMTD:dbgheap.obj
 0003:00016808       ??_C@_1IK@DCPKDGNH@?$AAp?$AAO?$AAl?$AAd?$AAB?$AAl?$AAo?$AAc?$AAk?$AA?9?$AA?$DO?$AAn?$AAL?$AAi?$AAn?$AAe?$AA?5?$AA?$DN?$AA?$DN?$AA?5?$AAI?$AAG?$AAN?$AAO?$AAR?$AAE?$AA_?$AAL?$AAI?$AAN?$AAE?$AA?5@ 0058d808     LIBCMTD:dbgheap.obj
 0003:000168b0       ??_C@_1EE@GFOPCECE@?$AA_?$AAC?$AAr?$AAt?$AAI?$AAs?$AAV?$AAa?$AAl?$AAi?$AAd?$AAH?$AAe?$AAa?$AAp?$AAP?$AAo?$AAi?$AAn?$AAt?$AAe?$AAr?$AA?$CI?$AAp?$AAU?$AAs?$AAe?$AAr?$AAD?$AAa?$AAt?$AAa@ 0058d8b0     LIBCMTD:dbgheap.obj
 0003:00016908       ??_C@_0EM@LGFLMAGJ@The?5Block?5at?50x?$CFp?5was?5allocated?5@ 0058d908     LIBCMTD:dbgheap.obj
 0003:00016968       ??_C@_0FA@EFEIGJKG@Error?3?5memory?5allocation?3?5bad?5me@ 0058d968     LIBCMTD:dbgheap.obj
 0003:000169c8       ??_C@_0ED@GPCPBAGP@Invalid?5allocation?5size?3?5?$CFIu?5byt@ 0058d9c8     LIBCMTD:dbgheap.obj
 0003:00016a18       ??_C@_0CE@DOFMDOL@Client?5hook?5re?9allocation?5failur@ 0058da18     LIBCMTD:dbgheap.obj
 0003:00016a44       ??_C@_0DI@KKJPDPGM@Client?5hook?5re?9allocation?5failur@ 0058da44     LIBCMTD:dbgheap.obj
 0003:00016a88       ??_C@_1BM@OKFKJCEN@?$AA_?$AAr?$AAe?$AAc?$AAa?$AAl?$AAl?$AAo?$AAc?$AA_?$AAd?$AAb?$AAg?$AA?$AA@ 0058da88     LIBCMTD:dbgheap.obj
 0003:00016aac       ??_C@_1DO@GOKJCEHJ@?$AA?$CI?$AA_?$AAH?$AAE?$AAA?$AAP?$AA_?$AAM?$AAA?$AAX?$AAR?$AAE?$AAQ?$AA?5?$AA?1?$AA?5?$AAc?$AAo?$AAu?$AAn?$AAt?$AA?$CJ?$AA?5?$AA?$DO?$AA?$DN?$AA?5?$AAs?$AAi?$AAz?$AAe?$AA?$AA@ 0058daac     LIBCMTD:dbgheap.obj
 0003:00016af8       ??_C@_1BI@HAPNGHDP@?$AA_?$AAe?$AAx?$AAp?$AAa?$AAn?$AAd?$AA_?$AAd?$AAb?$AAg?$AA?$AA@ 0058daf8     LIBCMTD:dbgheap.obj
 0003:00016b14       ??_C@_1CE@CJACEFBA@?$AAp?$AAU?$AAs?$AAe?$AAr?$AAD?$AAa?$AAt?$AAa?$AA?5?$AA?$CB?$AA?$DN?$AA?5?$AAN?$AAU?$AAL?$AAL?$AA?$AA@ 0058db14     LIBCMTD:dbgheap.obj
 0003:00016b40       ??_C@_1CM@MMAADDMD@?$AA_?$AAp?$AAF?$AAi?$AAr?$AAs?$AAt?$AAB?$AAl?$AAo?$AAc?$AAk?$AA?5?$AA?$DN?$AA?$DN?$AA?5?$AAp?$AAH?$AAe?$AAa?$AAd?$AA?$AA@ 0058db40     LIBCMTD:dbgheap.obj
 0003:00016b74       ??_C@_1CK@DMAGEMBG@?$AA_?$AAp?$AAL?$AAa?$AAs?$AAt?$AAB?$AAl?$AAo?$AAc?$AAk?$AA?5?$AA?$DN?$AA?$DN?$AA?5?$AAp?$AAH?$AAe?$AAa?$AAd?$AA?$AA@ 0058db74     LIBCMTD:dbgheap.obj
 0003:00016ba8       ??_C@_1DM@ODCJIDCP@?$AAp?$AAH?$AAe?$AAa?$AAd?$AA?9?$AA?$DO?$AAn?$AAB?$AAl?$AAo?$AAc?$AAk?$AAU?$AAs?$AAe?$AA?5?$AA?$DN?$AA?$DN?$AA?5?$AAn?$AAB?$AAl?$AAo?$AAc?$AAk?$AAU?$AAs?$AAe?$AA?$AA@ 0058dba8     LIBCMTD:dbgheap.obj
 0003:00016bf0       ??_C@_1HK@HPCBMDFG@?$AAp?$AAH?$AAe?$AAa?$AAd?$AA?9?$AA?$DO?$AAn?$AAL?$AAi?$AAn?$AAe?$AA?5?$AA?$DN?$AA?$DN?$AA?5?$AAI?$AAG?$AAN?$AAO?$AAR?$AAE?$AA_?$AAL?$AAI?$AAN?$AAE?$AA?5?$AA?$CG?$AA?$CG?$AA?5?$AAp@ 0058dbf0     LIBCMTD:dbgheap.obj
 0003:00016c88       ??_C@_0IG@LEMBDCJK@HEAP?5CORRUPTION?5DETECTED?3?5after?5@ 0058dc88     LIBCMTD:dbgheap.obj
 0003:00016d28       ??_C@_0KE@MBMNHHHN@HEAP?5CORRUPTION?5DETECTED?3?5after?5@ 0058dd28     LIBCMTD:dbgheap.obj
 0003:00016df0       ??_C@_0IK@PJCGLBOB@HEAP?5CORRUPTION?5DETECTED?3?5before@ 0058ddf0     LIBCMTD:dbgheap.obj
 0003:00016e98       ??_C@_0KI@JGFOHMEB@HEAP?5CORRUPTION?5DETECTED?3?5before@ 0058de98     LIBCMTD:dbgheap.obj
 0003:00016f64       ??_C@_0BL@KEIPLFAC@Client?5hook?5free?5failure?4?6?$AA@ 0058df64     LIBCMTD:dbgheap.obj
 0003:00016f88       ??_C@_0EJ@HEIBCIMJ@The?5Block?5at?50x?$CFp?5was?5allocated?5@ 0058df88     LIBCMTD:dbgheap.obj
 0003:00016fe0       ??_C@_1BG@MBKOGDLD@?$AA_?$AAm?$AAs?$AAi?$AAz?$AAe?$AA_?$AAd?$AAb?$AAg?$AA?$AA@ 0058dfe0     LIBCMTD:dbgheap.obj
 0003:00016ffc       ??_C@_0CI@JMLBEDHJ@?$CFhs?5located?5at?50x?$CFp?5is?5?$CFIu?5bytes@ 0058dffc     LIBCMTD:dbgheap.obj
 0003:00017030       ??_C@_0EG@DGJMPDBH@?$CFhs?5located?5at?50x?$CFp?5is?5?$CFIu?5bytes@ 0058e030     LIBCMTD:dbgheap.obj
 0003:00017088       ??_C@_0IC@BBJIOOJH@HEAP?5CORRUPTION?5DETECTED?3?5on?5top@ 0058e088     LIBCMTD:dbgheap.obj
 0003:00017128       ??_C@_0KA@IHNJJKPL@HEAP?5CORRUPTION?5DETECTED?3?5on?5top@ 0058e128     LIBCMTD:dbgheap.obj
 0003:000171e8       ??_C@_07OHKEFPKJ@DAMAGED?$AA@ 0058e1e8     LIBCMTD:dbgheap.obj
 0003:000171f4       ??_C@_0CL@HNNNMKMJ@_heapchk?5fails?5with?5unknown?5retu@ 0058e1f4     LIBCMTD:dbgheap.obj
 0003:00017228       ??_C@_0CC@MFFCHFHO@_heapchk?5fails?5with?5_HEAPBADPTR?4@ 0058e228     LIBCMTD:dbgheap.obj
 0003:00017250       ??_C@_0CC@MJGLGBDG@_heapchk?5fails?5with?5_HEAPBADEND?4@ 0058e250     LIBCMTD:dbgheap.obj
 0003:00017278       ??_C@_0CD@CPKEAPBD@_heapchk?5fails?5with?5_HEAPBADNODE@ 0058e278     LIBCMTD:dbgheap.obj
 0003:000172a4       ??_C@_0CE@MKKHMBMK@_heapchk?5fails?5with?5_HEAPBADBEGI@ 0058e2a4     LIBCMTD:dbgheap.obj
 0003:000172d0       ??_C@_1BO@GJFDNMNF@?$AA_?$AAC?$AAr?$AAt?$AAS?$AAe?$AAt?$AAD?$AAb?$AAg?$AAF?$AAl?$AAa?$AAg?$AA?$AA@ 0058e2d0     LIBCMTD:dbgheap.obj
 0003:000172f8       ??_C@_1BHO@NNANJNF@?$AA?$CI?$AAf?$AAN?$AAe?$AAw?$AAB?$AAi?$AAt?$AAs?$AA?$DN?$AA?$DN?$AA_?$AAC?$AAR?$AAT?$AAD?$AAB?$AAG?$AA_?$AAR?$AAE?$AAP?$AAO?$AAR?$AAT?$AA_?$AAF?$AAL?$AAA?$AAG?$AA?$CJ?$AA?5@ 0058e2f8     LIBCMTD:dbgheap.obj
 0003:000174c4       ??_C@_1DE@GJCKCKEC@?$AA_?$AAC?$AAr?$AAt?$AAD?$AAo?$AAF?$AAo?$AAr?$AAA?$AAl?$AAl?$AAC?$AAl?$AAi?$AAe?$AAn?$AAt?$AAO?$AAb?$AAj?$AAe?$AAc?$AAt?$AAs?$AA?$AA@ 0058e4c4     LIBCMTD:dbgheap.obj
 0003:00017504       ??_C@_1BI@CJGCEEDL@?$AAp?$AAf?$AAn?$AA?5?$AA?$CB?$AA?$DN?$AA?5?$AAN?$AAU?$AAL?$AAL?$AA?$AA@ 0058e504     LIBCMTD:dbgheap.obj
 0003:00017520       ??_C@_0CB@EAAIGELO@Bad?5memory?5block?5found?5at?50x?$CFp?4?6@ 0058e520     LIBCMTD:dbgheap.obj
 0003:00017548       ??_C@_0DP@LEFMFBOD@Bad?5memory?5block?5found?5at?50x?$CFp?4?6@ 0058e548     LIBCMTD:dbgheap.obj
 0003:00017594       ??_C@_1CE@NJJKELF@?$AA_?$AAC?$AAr?$AAt?$AAM?$AAe?$AAm?$AAC?$AAh?$AAe?$AAc?$AAk?$AAp?$AAo?$AAi?$AAn?$AAt?$AA?$AA@ 0058e594     LIBCMTD:dbgheap.obj
 0003:000175c0       ??_C@_1BM@MIMANDHC@?$AAs?$AAt?$AAa?$AAt?$AAe?$AA?5?$AA?$CB?$AA?$DN?$AA?5?$AAN?$AAU?$AAL?$AAL?$AA?$AA@ 0058e5c0     LIBCMTD:dbgheap.obj
 0003:000175e4       ??_C@_1CC@DFPEDFBP@?$AAn?$AAe?$AAw?$AAS?$AAt?$AAa?$AAt?$AAe?$AA?5?$AA?$CB?$AA?$DN?$AA?5?$AAN?$AAU?$AAL?$AAL?$AA?$AA@ 0058e5e4     LIBCMTD:dbgheap.obj
 0003:0001760c       ??_C@_1CC@DHPFEMMN@?$AAo?$AAl?$AAd?$AAS?$AAt?$AAa?$AAt?$AAe?$AA?5?$AA?$CB?$AA?$DN?$AA?5?$AAN?$AAU?$AAL?$AAL?$AA?$AA@ 0058e60c     LIBCMTD:dbgheap.obj
 0003:00017634       ??_C@_1CE@PDIENACM@?$AA_?$AAC?$AAr?$AAt?$AAM?$AAe?$AAm?$AAD?$AAi?$AAf?$AAf?$AAe?$AAr?$AAe?$AAn?$AAc?$AAe?$AA?$AA@ 0058e634     LIBCMTD:dbgheap.obj
 0003:00017660       ??_C@_0BH@GFGKJDCO@Object?5dump?5complete?4?6?$AA@ 0058e660     LIBCMTD:dbgheap.obj
 0003:0001767c       ??_C@_0DA@MDLBNIBM@crt?5block?5at?50x?$CFp?0?5subtype?5?$CFx?0?5?$CF@ 0058e67c     LIBCMTD:dbgheap.obj
 0003:000176b8       ??_C@_0CH@FAGDDGPN@normal?5block?5at?50x?$CFp?0?5?$CFIu?5bytes?5@ 0058e6b8     LIBCMTD:dbgheap.obj
 0003:000176e8       ??_C@_0DD@GHNAAKBB@client?5block?5at?50x?$CFp?0?5subtype?5?$CFx@ 0058e6e8     LIBCMTD:dbgheap.obj
 0003:00017728       ??_C@_06PKLGBFGM@?$HL?$CFld?$HN?5?$AA@ 0058e728     LIBCMTD:dbgheap.obj
 0003:00017730       ??_C@_0L@JMEFFCCJ@?$CFhs?$CI?$CFd?$CJ?5?3?5?$AA@ 0058e730     LIBCMTD:dbgheap.obj
 0003:00017740       ??_C@_0BE@OIEFNFL@?$CDFile?5Error?$CD?$CI?$CFd?$CJ?5?3?5?$AA@ 0058e740     LIBCMTD:dbgheap.obj
 0003:00017758       ??_C@_0BE@KCIPKCIA@Dumping?5objects?5?9?$DO?6?$AA@ 0058e758     LIBCMTD:dbgheap.obj
 0003:00017770       ??_C@_0BA@HJBKCELP@?5Data?3?5?$DM?$CFs?$DO?5?$CFs?6?$AA@ 0058e770     LIBCMTD:dbgheap.obj
 0003:00017784       ??_C@_1CG@LPFIACGM@?$AA_?$AAp?$AAr?$AAi?$AAn?$AAt?$AAM?$AAe?$AAm?$AAB?$AAl?$AAo?$AAc?$AAk?$AAD?$AAa?$AAt?$AAa?$AA?$AA@ 0058e784     LIBCMTD:dbgheap.obj
 0003:000177b4       ??_C@_0BI@JBFPOEJA@Detected?5memory?5leaks?$CB?6?$AA@ 0058e7b4     LIBCMTD:dbgheap.obj
 0003:000177d0       ??_C@_0BP@DEDHGGGI@Total?5allocations?3?5?$CFId?5bytes?4?6?$AA@ 0058e7d0     LIBCMTD:dbgheap.obj
 0003:000177f8       ??_C@_0CB@BLHDAFNE@Largest?5number?5used?3?5?$CFId?5bytes?4?6@ 0058e7f8     LIBCMTD:dbgheap.obj
 0003:00017820       ??_C@_0BO@DACNIABB@?$CFId?5bytes?5in?5?$CFId?5?$CFhs?5Blocks?4?6?$AA@ 0058e820     LIBCMTD:dbgheap.obj
 0003:00017844       ??_C@_1CM@MPNIBKGK@?$AA_?$AAC?$AAr?$AAt?$AAM?$AAe?$AAm?$AAD?$AAu?$AAm?$AAp?$AAS?$AAt?$AAa?$AAt?$AAi?$AAs?$AAt?$AAi?$AAc?$AAs?$AA?$AA@ 0058e844     LIBCMTD:dbgheap.obj
 0003:00017878       ??_C@_1DK@LFLKFPDA@?$AAo?$AAf?$AAf?$AAs?$AAe?$AAt?$AA?5?$AA?$DN?$AA?$DN?$AA?5?$AA0?$AA?5?$AA?$HM?$AA?$HM?$AA?5?$AAo?$AAf?$AAf?$AAs?$AAe?$AAt?$AA?5?$AA?$DM?$AA?5?$AAs?$AAi?$AAz?$AAe?$AA?$AA@ 0058e878     LIBCMTD:dbgheap.obj
 0003:000178c0       ??_C@_1DG@DONCJBBJ@?$AA_?$AAa?$AAl?$AAi?$AAg?$AAn?$AAe?$AAd?$AA_?$AAo?$AAf?$AAf?$AAs?$AAe?$AAt?$AA_?$AAm?$AAa?$AAl?$AAl?$AAo?$AAc?$AA_?$AAd?$AAb?$AAg?$AA?$AA@ 0058e8c0     LIBCMTD:dbgheap.obj
 0003:00017900       ??_C@_1CE@NPMGPNNP@?$AAI?$AAS?$AA_?$AA2?$AA_?$AAP?$AAO?$AAW?$AA_?$AAN?$AA?$CI?$AAa?$AAl?$AAi?$AAg?$AAn?$AA?$CJ?$AA?$AA@ 0058e900     LIBCMTD:dbgheap.obj
 0003:0001792c       ??_C@_1DI@NINIKFFK@?$AA_?$AAa?$AAl?$AAi?$AAg?$AAn?$AAe?$AAd?$AA_?$AAo?$AAf?$AAf?$AAs?$AAe?$AAt?$AA_?$AAr?$AAe?$AAa?$AAl?$AAl?$AAo?$AAc?$AA_?$AAd?$AAb?$AAg?$AA?$AA@ 0058e92c     LIBCMTD:dbgheap.obj
 0003:00017970       ??_C@_0DL@PGHMMKNE@Damage?5before?50x?$CFp?5which?5was?5all@ 0058e970     LIBCMTD:dbgheap.obj
 0003:000179b8       ??_C@_0EI@NDNJMAJK@The?5block?5at?50x?$CFp?5was?5not?5alloca@ 0058e9b8     LIBCMTD:dbgheap.obj
 0003:00017a10       ??_C@_1DK@MMLHIFFH@?$AA_?$AAa?$AAl?$AAi?$AAg?$AAn?$AAe?$AAd?$AA_?$AAo?$AAf?$AAf?$AAs?$AAe?$AAt?$AA_?$AAr?$AAe?$AAc?$AAa?$AAl?$AAl?$AAo?$AAc?$AA_?$AAd?$AAb?$AAg?$AA?$AA@ 0058ea10     LIBCMTD:dbgheap.obj
 0003:00017a58       ??_C@_0EF@PGELACII@The?5block?5at?50x?$CFp?5was?5not?5alloca@ 0058ea58     LIBCMTD:dbgheap.obj
 0003:00017aac       ??_C@_1CG@CEGMHIMN@?$AA_?$AAa?$AAl?$AAi?$AAg?$AAn?$AAe?$AAd?$AA_?$AAm?$AAs?$AAi?$AAz?$AAe?$AA_?$AAd?$AAb?$AAg?$AA?$AA@ 0058eaac     LIBCMTD:dbgheap.obj
 0003:00017adc       ??_C@_1CC@MOBIKHH@?$AAm?$AAe?$AAm?$AAb?$AAl?$AAo?$AAc?$AAk?$AA?5?$AA?$CB?$AA?$DN?$AA?5?$AAN?$AAU?$AAL?$AAL?$AA?$AA@ 0058eadc     LIBCMTD:dbgheap.obj
 0003:00017b08       ??_C@_1GG@CDHAPCGF@?$AAf?$AA?3?$AA?2?$AAd?$AAd?$AA?2?$AAv?$AAc?$AAt?$AAo?$AAo?$AAl?$AAs?$AA?2?$AAc?$AAr?$AAt?$AA_?$AAb?$AAl?$AAd?$AA?2?$AAs?$AAe?$AAl?$AAf?$AA_?$AAx?$AA8?$AA6?$AA?2?$AAc@ 0058eb08     LIBCMTD:handler.obj
 0003:00017b84       ??_C@_1BC@JLLICHIC@?$AAp?$AAn?$AAh?$AA?5?$AA?$DN?$AA?$DN?$AA?5?$AA0?$AA?$AA@ 0058eb84     LIBCMTD:handler.obj
 0003:00017b9c       __pDestructExceptionObject 0058eb9c     LIBCMTD:frame.obj
 0003:00017ba0       ??_C@_0O@DPKOEFFH@bad?5exception?$AA@ 0058eba0     LIBCMTD:frame.obj
 0003:00017bb4       ??_7bad_exception@std@@6B@ 0058ebb4     LIBCMTD:frame.obj
 0003:00017bc0       ??_C@_0O@NLDKAIKN@EncodePointer?$AA@ 0058ebc0     LIBCMTD:tidtable.obj
 0003:00017bd0       ??_C@_1BK@DBDEIDLH@?$AAK?$AAE?$AAR?$AAN?$AAE?$AAL?$AA3?$AA2?$AA?4?$AAD?$AAL?$AAL?$AA?$AA@ 0058ebd0     LIBCMTD:tidtable.obj
 0003:00017bf0       ??_C@_0O@KBPMFGHI@DecodePointer?$AA@ 0058ebf0     LIBCMTD:tidtable.obj
 0003:00017c00       ??_C@_0DC@LMJHGCKC@f?3?2dd?2vctools?2crt_bld?2self_x86?2c@ 0058ec00     LIBCMTD:tidtable.obj
 0003:00017c3c       ??_C@_07PEJMOBNF@FlsFree?$AA@ 0058ec3c     LIBCMTD:tidtable.obj
 0003:00017c48       ??_C@_0M@JCPCPOEF@FlsSetValue?$AA@ 0058ec48     LIBCMTD:tidtable.obj
 0003:00017c58       ??_C@_0M@GDNOONDI@FlsGetValue?$AA@ 0058ec58     LIBCMTD:tidtable.obj
 0003:00017c68       ??_C@_08KNHFBNJ@FlsAlloc?$AA@ 0058ec68     LIBCMTD:tidtable.obj
 0003:00017c74       ??_C@_0P@MIGLKIOC@CorExitProcess?$AA@ 0058ec74     LIBCMTD:crt0dat.obj
 0003:00017c88       ??_C@_1BI@BGOHAHKC@?$AAm?$AAs?$AAc?$AAo?$AAr?$AAe?$AAe?$AA?4?$AAd?$AAl?$AAl?$AA?$AA@ 0058ec88     LIBCMTD:crt0dat.obj
 0003:00017ca4       ??_C@_1CC@CDIPMFPD@?$AA_?$AAw?$AAp?$AAg?$AAm?$AAp?$AAt?$AAr?$AA?5?$AA?$CB?$AA?$DN?$AA?5?$AAN?$AAU?$AAL?$AAL?$AA?$AA@ 0058eca4     LIBCMTD:crt0dat.obj
 0003:00017ccc       ??_C@_1BK@PNLDCCDP@?$AA_?$AAg?$AAe?$AAt?$AA_?$AAw?$AAp?$AAg?$AAm?$AAp?$AAt?$AAr?$AA?$AA@ 0058eccc     LIBCMTD:crt0dat.obj
 0003:00017cf0       ??_C@_1GC@DGCPEDNJ@?$AAf?$AA?3?$AA?2?$AAd?$AAd?$AA?2?$AAv?$AAc?$AAt?$AAo?$AAo?$AAl?$AAs?$AA?2?$AAc?$AAr?$AAt?$AA_?$AAb?$AAl?$AAd?$AA?2?$AAs?$AAe?$AAl?$AAf?$AA_?$AAx?$AA8?$AA6?$AA?2?$AAc@ 0058ecf0     LIBCMTD:crt0dat.obj
 0003:00017d68       ??_C@_1CA@BBNAFCKO@?$AA_?$AAp?$AAg?$AAm?$AAp?$AAt?$AAr?$AA?5?$AA?$CB?$AA?$DN?$AA?5?$AAN?$AAU?$AAL?$AAL?$AA?$AA@ 0058ed68     LIBCMTD:crt0dat.obj
 0003:00017d90       ??_C@_1BI@COAAPHJK@?$AA_?$AAg?$AAe?$AAt?$AA_?$AAp?$AAg?$AAm?$AAp?$AAt?$AAr?$AA?$AA@ 0058ed90     LIBCMTD:crt0dat.obj
 0003:00017dac       ??_C@_1O@EJLDHPPL@?$AAs?$AAi?$AAg?$AAn?$AAa?$AAl?$AA?$AA@ 0058edac     LIBCMTD:winsig.obj
 0003:00017dc0       ??_C@_1GA@DBECNFG@?$AAf?$AA?3?$AA?2?$AAd?$AAd?$AA?2?$AAv?$AAc?$AAt?$AAo?$AAo?$AAl?$AAs?$AA?2?$AAc?$AAr?$AAt?$AA_?$AAb?$AAl?$AAd?$AA?2?$AAs?$AAe?$AAl?$AAf?$AA_?$AAx?$AA8?$AA6?$AA?2?$AAc@ 0058edc0     LIBCMTD:winsig.obj
 0003:00017e34       ??_C@_1DO@MLNEDKGB@?$AA?$CI?$AA?$CC?$AAI?$AAn?$AAv?$AAa?$AAl?$AAi?$AAd?$AA?5?$AAs?$AAi?$AAg?$AAn?$AAa?$AAl?$AA?5?$AAo?$AAr?$AA?5?$AAe?$AAr?$AAr?$AAo?$AAr?$AA?$CC?$AA?0?$AA?5?$AA0?$AA?$CJ?$AA?$AA@ 0058ee34     LIBCMTD:winsig.obj
 0003:00017e80       ??_C@_0DA@ELJOOIJF@f?3?2dd?2vctools?2crt_bld?2self_x86?2c@ 0058ee80     LIBCMTD:winsig.obj
 0003:00017ebc       ??_C@_1M@DMJEIKHL@?$AAr?$AAa?$AAi?$AAs?$AAe?$AA?$AA@ 0058eebc     LIBCMTD:winsig.obj
 0003:00017ecc       ??_C@_0BI@DFKBFLJE@GetProcessWindowStation?$AA@ 0058eecc     LIBCMTD:crtmboxw.obj
 0003:00017ee8       ??_C@_0BK@DEKFELLI@GetUserObjectInformationW?$AA@ 0058eee8     LIBCMTD:crtmboxw.obj
 0003:00017f08       ??_C@_0BD@HHGDFDBJ@GetLastActivePopup?$AA@ 0058ef08     LIBCMTD:crtmboxw.obj
 0003:00017f20       ??_C@_0BA@HNOPNCHB@GetActiveWindow?$AA@ 0058ef20     LIBCMTD:crtmboxw.obj
 0003:00017f34       ??_C@_0M@DLDCCGNP@MessageBoxW?$AA@ 0058ef34     LIBCMTD:crtmboxw.obj
 0003:00017f44       ??_C@_1BG@GOEBHBDC@?$AAU?$AAS?$AAE?$AAR?$AA3?$AA2?$AA?4?$AAD?$AAL?$AAL?$AA?$AA@ 0058ef44     LIBCMTD:crtmboxw.obj
 0003:00017f60       ??_C@_1CM@HABGDNLJ@?$AAl?$AAe?$AAn?$AAg?$AAt?$AAh?$AA?5?$AA?$DM?$AA?5?$AAs?$AAi?$AAz?$AAe?$AAI?$AAn?$AAT?$AAC?$AAh?$AAa?$AAr?$AAs?$AA?$AA@ 0058ef60     LIBCMTD:xtows.obj
 0003:00017f94       ??_C@_1DE@PCJGDBBD@?$AA2?$AA?5?$AA?$DM?$AA?$DN?$AA?5?$AAr?$AAa?$AAd?$AAi?$AAx?$AA?5?$AA?$CG?$AA?$CG?$AA?5?$AAr?$AAa?$AAd?$AAi?$AAx?$AA?5?$AA?$DM?$AA?$DN?$AA?5?$AA3?$AA6?$AA?$AA@ 0058ef94     LIBCMTD:xtows.obj
 0003:00017fd8       ??_C@_1FA@MKGGAGEI@?$AAs?$AAi?$AAz?$AAe?$AAI?$AAn?$AAT?$AAC?$AAh?$AAa?$AAr?$AAs?$AA?5?$AA?$DO?$AA?5?$AA?$CI?$AAs?$AAi?$AAz?$AAe?$AA_?$AAt?$AA?$CJ?$AA?$CI?$AAi?$AAs?$AA_?$AAn?$AAe?$AAg?$AA?5?$AA?$DP@ 0058efd8     LIBCMTD:xtows.obj
 0003:00018038       ??_C@_1CC@JNJFIMGE@?$AAs?$AAi?$AAz?$AAe?$AAI?$AAn?$AAT?$AAC?$AAh?$AAa?$AAr?$AAs?$AA?5?$AA?$DO?$AA?5?$AA0?$AA?$AA@ 0058f038     LIBCMTD:xtows.obj
 0003:00018060       ??_C@_1O@NCBFODOE@?$AAx?$AAt?$AAo?$AAw?$AA_?$AAs?$AA?$AA@ 0058f060     LIBCMTD:xtows.obj
 0003:00018070       ??_C@_1FM@MFCBFCGB@?$AAf?$AA?3?$AA?2?$AAd?$AAd?$AA?2?$AAv?$AAc?$AAt?$AAo?$AAo?$AAl?$AAs?$AA?2?$AAc?$AAr?$AAt?$AA_?$AAb?$AAl?$AAd?$AA?2?$AAs?$AAe?$AAl?$AAf?$AA_?$AAx?$AA8?$AA6?$AA?2?$AAc@ 0058f070     LIBCMTD:xtows.obj
 0003:000180e0       ??_C@_1BI@ICGGMGLK@?$AAb?$AAu?$AAf?$AA?5?$AA?$CB?$AA?$DN?$AA?5?$AAN?$AAU?$AAL?$AAL?$AA?$AA@ 0058f0e0     LIBCMTD:xtows.obj
 0003:000180fc       ??_C@_1BC@HDEJCFPB@?$AAx?$AA6?$AA4?$AAt?$AAo?$AAw?$AA_?$AAs?$AA?$AA@ 0058f0fc     LIBCMTD:xtows.obj
 0003:00018114       ??_C@_1DM@MADKGDLO@?$AA?$CI?$AAL?$AA?$CC?$AAB?$AAu?$AAf?$AAf?$AAe?$AAr?$AA?5?$AAi?$AAs?$AA?5?$AAt?$AAo?$AAo?$AA?5?$AAs?$AAm?$AAa?$AAl?$AAl?$AA?$CC?$AA?5?$AA?$CG?$AA?$CG?$AA?5?$AA0?$AA?$CJ?$AA?$AA@ 0058f114     LIBCMTD:wcsncat_s.obj
 0003:0001815c       ??_C@_1CI@HCPHDDLE@?$AAB?$AAu?$AAf?$AAf?$AAe?$AAr?$AA?5?$AAi?$AAs?$AA?5?$AAt?$AAo?$AAo?$AA?5?$AAs?$AAm?$AAa?$AAl?$AAl?$AA?$AA@ 0058f15c     LIBCMTD:wcsncat_s.obj
 0003:00018190       ??_C@_1FA@MJKDNFFB@?$AA?$CI?$AAL?$AA?$CC?$AAS?$AAt?$AAr?$AAi?$AAn?$AAg?$AA?5?$AAi?$AAs?$AA?5?$AAn?$AAo?$AAt?$AA?5?$AAn?$AAu?$AAl?$AAl?$AA?5?$AAt?$AAe?$AAr?$AAm?$AAi?$AAn?$AAa?$AAt?$AAe?$AAd@ 0058f190     LIBCMTD:wcsncat_s.obj
 0003:000181f0       ??_C@_1DM@FHLMIEG@?$AAS?$AAt?$AAr?$AAi?$AAn?$AAg?$AA?5?$AAi?$AAs?$AA?5?$AAn?$AAo?$AAt?$AA?5?$AAn?$AAu?$AAl?$AAl?$AA?5?$AAt?$AAe?$AAr?$AAm?$AAi?$AAn?$AAa?$AAt?$AAe?$AAd?$AA?$AA@ 0058f1f0     LIBCMTD:wcsncat_s.obj
 0003:00018238       ??_C@_1CG@OFBJMIGJ@?$AA?$CI?$AA?$CI?$AA?$CI?$AA_?$AAS?$AAr?$AAc?$AA?$CJ?$AA?$CJ?$AA?$CJ?$AA?5?$AA?$CB?$AA?$DN?$AA?5?$AAN?$AAU?$AAL?$AAL?$AA?$AA@ 0058f238     LIBCMTD:wcsncat_s.obj
 0003:00018268       ??_C@_1BE@KPKIKKCF@?$AAw?$AAc?$AAs?$AAn?$AAc?$AAa?$AAt?$AA_?$AAs?$AA?$AA@ 0058f268     LIBCMTD:wcsncat_s.obj
 0003:00018280       ??_C@_1GK@DICCLCDF@?$AAf?$AA?3?$AA?2?$AAd?$AAd?$AA?2?$AAv?$AAc?$AAt?$AAo?$AAo?$AAl?$AAs?$AA?2?$AAc?$AAr?$AAt?$AA_?$AAb?$AAl?$AAd?$AA?2?$AAs?$AAe?$AAl?$AAf?$AA_?$AAx?$AA8?$AA6?$AA?2?$AAc@ 0058f280     LIBCMTD:wcsncat_s.obj
 0003:00018300       ??_C@_1FC@PFMLEHKI@?$AA?$CI?$AA?$CI?$AA_?$AAD?$AAs?$AAt?$AA?$CJ?$AA?$CJ?$AA?5?$AA?$CB?$AA?$DN?$AA?5?$AAN?$AAU?$AAL?$AAL?$AA?5?$AA?$CG?$AA?$CG?$AA?5?$AA?$CI?$AA?$CI?$AA_?$AAS?$AAi?$AAz?$AAe?$AAI?$AAn?$AAW?$AAo?$AAr@ 0058f300     LIBCMTD:wcsncat_s.obj
 0003:00018364       ??_C@_1BE@PMMBFFCC@?$AAw?$AAc?$AAs?$AAn?$AAc?$AAp?$AAy?$AA_?$AAs?$AA?$AA@ 0058f364     LIBCMTD:wcsncpy_s.obj
 0003:00018380       ??_C@_1GK@PAJJBKJF@?$AAf?$AA?3?$AA?2?$AAd?$AAd?$AA?2?$AAv?$AAc?$AAt?$AAo?$AAo?$AAl?$AAs?$AA?2?$AAc?$AAr?$AAt?$AA_?$AAb?$AAl?$AAd?$AA?2?$AAs?$AAe?$AAl?$AAf?$AA_?$AAx?$AA8?$AA6?$AA?2?$AAc@ 0058f380     LIBCMTD:wcsncpy_s.obj
 0003:00018400       ??_C@_1BC@PLIEPKPJ@?$AAw?$AAc?$AAs?$AAc?$AAa?$AAt?$AA_?$AAs?$AA?$AA@ 0058f400     LIBCMTD:wcscat_s.obj
 0003:00018418       ??_C@_1GI@NOKGIAGA@?$AAf?$AA?3?$AA?2?$AAd?$AAd?$AA?2?$AAv?$AAc?$AAt?$AAo?$AAo?$AAl?$AAs?$AA?2?$AAc?$AAr?$AAt?$AA_?$AAb?$AAl?$AAd?$AA?2?$AAs?$AAe?$AAl?$AAf?$AA_?$AAx?$AA8?$AA6?$AA?2?$AAc@ 0058f418     LIBCMTD:wcscat_s.obj
 0003:00018494       ??_C@_1BC@KIONAFPO@?$AAw?$AAc?$AAs?$AAc?$AAp?$AAy?$AA_?$AAs?$AA?$AA@ 0058f494     LIBCMTD:wcscpy_s.obj
 0003:000184b0       ??_C@_1GI@BGBNCIMA@?$AAf?$AA?3?$AA?2?$AAd?$AAd?$AA?2?$AAv?$AAc?$AAt?$AAo?$AAo?$AAl?$AAs?$AA?2?$AAc?$AAr?$AAt?$AA_?$AAb?$AAl?$AAd?$AA?2?$AAs?$AAe?$AAl?$AAf?$AA_?$AAx?$AA8?$AA6?$AA?2?$AAc@ 0058f4b0     LIBCMTD:wcscpy_s.obj
 0003:0001852c       ??_C@_1BC@BHLPNJBO@?$AAf?$AAw?$AAp?$AAr?$AAi?$AAn?$AAt?$AAf?$AA?$AA@ 0058f52c     LIBCMTD:fwprintf.obj
 0003:00018548       ??_C@_1GE@NIBJAMDO@?$AAf?$AA?3?$AA?2?$AAd?$AAd?$AA?2?$AAv?$AAc?$AAt?$AAo?$AAo?$AAl?$AAs?$AA?2?$AAc?$AAr?$AAt?$AA_?$AAb?$AAl?$AAd?$AA?2?$AAs?$AAe?$AAl?$AAf?$AA_?$AAx?$AA8?$AA6?$AA?2?$AAc@ 0058f548     LIBCMTD:fwprintf.obj
 0003:000185c0       ??_C@_0DB@MIGHMKAN@f?3?2dd?2vctools?2crt_bld?2self_x86?2c@ 0058f5c0     LIBCMTD:setvbuf.obj
 0003:00018600       ??_C@_1EG@IJNJIDNB@?$AA?$CI?$AA?$CI?$AA2?$AA?5?$AA?$DM?$AA?$DN?$AA?5?$AAs?$AAi?$AAz?$AAe?$AA?$CJ?$AA?5?$AA?$CG?$AA?$CG?$AA?5?$AA?$CI?$AAs?$AAi?$AAz?$AAe?$AA?5?$AA?$DM?$AA?$DN?$AA?5?$AAI?$AAN?$AAT?$AA_?$AAM?$AAA?$AAX@ 0058f600     LIBCMTD:setvbuf.obj
 0003:00018658       ??_C@_1HC@CBFEDAGG@?$AA?$CI?$AAt?$AAy?$AAp?$AAe?$AA?5?$AA?$DN?$AA?$DN?$AA?5?$AA_?$AAI?$AAO?$AAN?$AAB?$AAF?$AA?$CJ?$AA?5?$AA?$HM?$AA?$HM?$AA?5?$AA?$CI?$AAt?$AAy?$AAp?$AAe?$AA?5?$AA?$DN?$AA?$DN?$AA?5?$AA_?$AAI?$AAO@ 0058f658     LIBCMTD:setvbuf.obj
 0003:000186e0       ??_C@_1BA@OGODIODK@?$AAs?$AAe?$AAt?$AAv?$AAb?$AAu?$AAf?$AA?$AA@ 0058f6e0     LIBCMTD:setvbuf.obj
 0003:000186f8       ??_C@_1GC@FPPJLAOD@?$AAf?$AA?3?$AA?2?$AAd?$AAd?$AA?2?$AAv?$AAc?$AAt?$AAo?$AAo?$AAl?$AAs?$AA?2?$AAc?$AAr?$AAt?$AA_?$AAb?$AAl?$AAd?$AA?2?$AAs?$AAe?$AAl?$AAf?$AA_?$AAx?$AA8?$AA6?$AA?2?$AAc@ 0058f6f8     LIBCMTD:setvbuf.obj
 0003:00018770       ??_C@_0CP@BNKDODJJ@f?3?2dd?2vctools?2crt_bld?2self_x86?2c@ 0058f770     LIBCMTD:_file.obj
 0003:000187a8       ??_C@_1CA@LFDHAMEM@?$AA_?$AAs?$AAe?$AAt?$AA_?$AAe?$AAr?$AAr?$AAo?$AAr?$AA_?$AAm?$AAo?$AAd?$AAe?$AA?$AA@ 0058f7a8     LIBCMTD:errmode.obj
 0003:000187d0       ??_C@_1GC@FGMGFCNB@?$AAf?$AA?3?$AA?2?$AAd?$AAd?$AA?2?$AAv?$AAc?$AAt?$AAo?$AAo?$AAl?$AAs?$AA?2?$AAc?$AAr?$AAt?$AA_?$AAb?$AAl?$AAd?$AA?2?$AAs?$AAe?$AAl?$AAf?$AA_?$AAx?$AA8?$AA6?$AA?2?$AAc@ 0058f7d0     LIBCMTD:errmode.obj
 0003:00018848       ??_C@_1DE@BCNCAIK@?$AA?$CI?$AA?$CC?$AAI?$AAn?$AAv?$AAa?$AAl?$AAi?$AAd?$AA?5?$AAe?$AAr?$AAr?$AAo?$AAr?$AA_?$AAm?$AAo?$AAd?$AAe?$AA?$CC?$AA?0?$AA?5?$AA0?$AA?$CJ?$AA?$AA@ 0058f848     LIBCMTD:errmode.obj
 0003:00018888       ??_C@_1CE@IGKFIJFD@?$AA_?$AAv?$AAs?$AAw?$AAp?$AAr?$AAi?$AAn?$AAt?$AAf?$AA_?$AAh?$AAe?$AAl?$AAp?$AAe?$AAr?$AA?$AA@ 0058f888     LIBCMTD:vswprnc.obj
 0003:000188b8       ??_C@_1GE@KINELFI@?$AAf?$AA?3?$AA?2?$AAd?$AAd?$AA?2?$AAv?$AAc?$AAt?$AAo?$AAo?$AAl?$AAs?$AA?2?$AAc?$AAr?$AAt?$AA_?$AAb?$AAl?$AAd?$AA?2?$AAs?$AAe?$AAl?$AAf?$AA_?$AAx?$AA8?$AA6?$AA?2?$AAc@ 0058f8b8     LIBCMTD:vswprnc.obj
 0003:00018930       ??_C@_1EE@MPCHJFGP@?$AAs?$AAt?$AAr?$AAi?$AAn?$AAg?$AA?5?$AA?$CB?$AA?$DN?$AA?5?$AAN?$AAU?$AAL?$AAL?$AA?5?$AA?$CG?$AA?$CG?$AA?5?$AAs?$AAi?$AAz?$AAe?$AAI?$AAn?$AAW?$AAo?$AAr?$AAd?$AAs?$AA?5?$AA?$DO?$AA?5@ 0058f930     LIBCMTD:vswprnc.obj
 0003:00018984       ??_C@_1BO@OALHJLCI@?$AA_?$AAv?$AAs?$AAw?$AAp?$AAr?$AAi?$AAn?$AAt?$AAf?$AA_?$AAs?$AA_?$AAl?$AA?$AA@ 0058f984     LIBCMTD:vswprnc.obj
 0003:000189a8       ??_C@_1CA@BKFKMJFF@?$AA_?$AAv?$AAs?$AAn?$AAw?$AAp?$AAr?$AAi?$AAn?$AAt?$AAf?$AA_?$AAs?$AA_?$AAl?$AA?$AA@ 0058f9a8     LIBCMTD:vswprnc.obj
 0003:000189d0       ??_C@_1HG@KNCBMCDD@?$AAf?$AA?3?$AA?2?$AAd?$AAd?$AA?2?$AAv?$AAc?$AAt?$AAo?$AAo?$AAl?$AAs?$AA?2?$AAc?$AAr?$AAt?$AA_?$AAb?$AAl?$AAd?$AA?2?$AAs?$AAe?$AAl?$AAf?$AA_?$AAx?$AA8?$AA6?$AA?2?$AAc@ 0058f9d0     LIBCMTD:typname.obj
 0003:00018a60       ??_C@_1CI@IDCGDBOP@?$AAp?$AAN?$AAo?$AAd?$AAe?$AA?9?$AA?$DO?$AAn?$AAe?$AAx?$AAt?$AA?5?$AA?$CB?$AA?$DN?$AA?5?$AAN?$AAU?$AAL?$AAL?$AA?$AA@ 0058fa60     LIBCMTD:typname.obj
 0003:00018a90       ??_C@_1JK@MLBKHELP@?$AAs?$AAt?$AAr?$AAc?$AAp?$AAy?$AA_?$AAs?$AA?5?$AA?$CI?$AA?$CI?$AAc?$AAh?$AAa?$AAr?$AA?5?$AA?$CK?$AA?$CJ?$AA?$CI?$AA?$CI?$AAt?$AAy?$AAp?$AAe?$AA_?$AAi?$AAn?$AAf?$AAo?$AA?5?$AA?$CK?$AA?$CJ@ 0058fa90     LIBCMTD:typname.obj
 0003:00018b48       ??_C@_1CM@OOICDMK@?$AAt?$AAy?$AAp?$AAe?$AA_?$AAi?$AAn?$AAf?$AAo?$AA?3?$AA?3?$AA_?$AAN?$AAa?$AAm?$AAe?$AA_?$AAb?$AAa?$AAs?$AAe?$AA?$AA@ 0058fb48     LIBCMTD:typname.obj
 0003:00018b80       ??_C@_1GI@EAJKJPED@?$AAs?$AAt?$AAr?$AAc?$AAp?$AAy?$AA_?$AAs?$AA?5?$AA?$CI?$AAp?$AAT?$AAm?$AAp?$AAT?$AAy?$AAp?$AAe?$AAN?$AAa?$AAm?$AAe?$AA?0?$AA?5?$AAl?$AAe?$AAn?$AA?$CL?$AA2?$AA?0?$AA?5?$AA?$CI@ 0058fb80     LIBCMTD:typname.obj
 0003:00018bfc       ??_C@_1DO@OJJLFJPE@?$AAt?$AAy?$AAp?$AAe?$AA_?$AAi?$AAn?$AAf?$AAo?$AA?3?$AA?3?$AA_?$AAN?$AAa?$AAm?$AAe?$AA_?$AAb?$AAa?$AAs?$AAe?$AA_?$AAi?$AAn?$AAt?$AAe?$AAr?$AAn?$AAa?$AAl?$AA?$AA@ 0058fbfc     LIBCMTD:typname.obj
 0003:00018c48       ??_C@_1BC@CFJEPFGF@?$AAs?$AAt?$AAr?$AAc?$AAp?$AAy?$AA_?$AAs?$AA?$AA@ 0058fc48     LIBCMTD:strcpy_s.obj
 0003:00018c60       ??_C@_1FC@NCPEPIBI@?$AA?$CI?$AA?$CI?$AA_?$AAD?$AAs?$AAt?$AA?$CJ?$AA?$CJ?$AA?5?$AA?$CB?$AA?$DN?$AA?5?$AAN?$AAU?$AAL?$AAL?$AA?5?$AA?$CG?$AA?$CG?$AA?5?$AA?$CI?$AA?$CI?$AA_?$AAS?$AAi?$AAz?$AAe?$AAI?$AAn?$AAB?$AAy?$AAt@ 0058fc60     LIBCMTD:strcpy_s.obj
 0003:00018cc4       ??_C@_0M@EKFFODEC@MSPDB80?4DLL?$AA@ 0058fcc4     LIBCMTD:_pdblkup_.obj
 0003:00018cd4       ??_C@_01KDCPPGHE@r?$AA@    0058fcd4     LIBCMTD:_pdblkup_.obj
 0003:00018cd8       ??_C@_0BB@KCIACLNC@PDBOpenValidate5?$AA@ 0058fcd8     LIBCMTD:_pdblkup_.obj
 0003:00018cec       ??_C@_0BF@BMIHBHCA@EnvironmentDirectory?$AA@ 0058fcec     LIBCMTD:_pdblkup_.obj
 0003:00018d08       ??_C@_0CN@JNNIHDGH@SOFTWARE?2Microsoft?2VisualStudio?2@ 0058fd08     LIBCMTD:_pdblkup_.obj
 0003:00018d40       ??_C@_0M@HLOHPNFA@RegCloseKey?$AA@ 0058fd40     LIBCMTD:_pdblkup_.obj
 0003:00018d50       ??_C@_0BB@HHEIPGME@RegQueryValueExA?$AA@ 0058fd50     LIBCMTD:_pdblkup_.obj
 0003:00018d64       ??_C@_0O@DCOGKJGG@RegOpenKeyExA?$AA@ 0058fd64     LIBCMTD:_pdblkup_.obj
 0003:00018d74       ??_C@_0N@JJPEKNFO@ADVAPI32?4DLL?$AA@ 0058fd74     LIBCMTD:_pdblkup_.obj
 0003:00018d84       ??_C@_13NOLLCAOD@?$AA?$AA?$AA?$AA@ 0058fd84     LIBCMTD:a_map.obj
 0003:00018d88       ??_C@_1GA@INJGGEBC@?$AAf?$AA?3?$AA?2?$AAd?$AAd?$AA?2?$AAv?$AAc?$AAt?$AAo?$AAo?$AAl?$AAs?$AA?2?$AAc?$AAr?$AAt?$AA_?$AAb?$AAl?$AAd?$AA?2?$AAs?$AAe?$AAl?$AAf?$AA_?$AAx?$AA8?$AA6?$AA?2?$AAc@ 0058fd88     LIBCMTD:a_map.obj
 0003:00018e00       ??_C@_1FE@KNPCCODH@?$AA?$CI?$AA?$CC?$AAC?$AAo?$AAr?$AAr?$AAu?$AAp?$AAt?$AAe?$AAd?$AA?5?$AAp?$AAo?$AAi?$AAn?$AAt?$AAe?$AAr?$AA?5?$AAp?$AAa?$AAs?$AAs?$AAe?$AAd?$AA?5?$AAt?$AAo?$AA?5?$AA_?$AAf@ 0058fe00     LIBCMTD:a_map.obj
 0003:00018e68       ??_C@_1GC@CHGJNMHG@?$AAf?$AA?3?$AA?2?$AAd?$AAd?$AA?2?$AAv?$AAc?$AAt?$AAo?$AAo?$AAl?$AAs?$AA?2?$AAc?$AAr?$AAt?$AA_?$AAb?$AAl?$AAd?$AA?2?$AAs?$AAe?$AAl?$AAf?$AA_?$AAx?$AA8?$AA6?$AA?2?$AAc@ 0058fe68     LIBCMTD:isctype.obj
 0003:00018ee0       ??_C@_1DC@BPLPALML@?$AA?$CI?$AAu?$AAn?$AAs?$AAi?$AAg?$AAn?$AAe?$AAd?$AA?$CJ?$AA?$CI?$AAc?$AA?5?$AA?$CL?$AA?5?$AA1?$AA?$CJ?$AA?5?$AA?$DM?$AA?$DN?$AA?5?$AA2?$AA5?$AA6?$AA?$AA@ 0058fee0     LIBCMTD:isctype.obj
 0003:00018f1c       ??_C@_0DB@MHMEONEC@f?3?2dd?2vctools?2crt_bld?2self_x86?2c@ 0058ff1c     LIBCMTD:mbctype.obj
 0003:00018f58       ??_C@_07LCBHPJJN@LC_TIME?$AA@ 0058ff58     LIBCMTD:setlocal.obj
 0003:00018f64       ??_C@_0L@DLHIECNL@LC_NUMERIC?$AA@ 0058ff64     LIBCMTD:setlocal.obj
 0003:00018f74       ??_C@_0M@MIENIKLA@LC_MONETARY?$AA@ 0058ff74     LIBCMTD:setlocal.obj
 0003:00018f84       ??_C@_08EADHIDAD@LC_CTYPE?$AA@ 0058ff84     LIBCMTD:setlocal.obj
 0003:00018f90       ??_C@_0L@KFJHEKIK@LC_COLLATE?$AA@ 0058ff90     LIBCMTD:setlocal.obj
 0003:00018fa0       ??_C@_06NEFDFEKB@LC_ALL?$AA@ 0058ffa0     LIBCMTD:setlocal.obj
 0003:00018fa8       ___lc_category             0058ffa8     LIBCMTD:setlocal.obj
 0003:00019098       ??_C@_1GE@OLEIGPBJ@?$AAf?$AA?3?$AA?2?$AAd?$AAd?$AA?2?$AAv?$AAc?$AAt?$AAo?$AAo?$AAl?$AAs?$AA?2?$AAc?$AAr?$AAt?$AA_?$AAb?$AAl?$AAd?$AA?2?$AAs?$AAe?$AAl?$AAf?$AA_?$AAx?$AA8?$AA6?$AA?2?$AAc@ 00590098     LIBCMTD:setlocal.obj
 0003:00019110       ??_C@_1BKC@GGIENNAK@?$AA?$CI?$AA?$CI?$AAp?$AAt?$AAl?$AAo?$AAc?$AAi?$AA?9?$AA?$DO?$AAl?$AAc?$AA_?$AAc?$AAa?$AAt?$AAe?$AAg?$AAo?$AAr?$AAy?$AA?$FL?$AAc?$AAa?$AAt?$AAe?$AAg?$AAo?$AAr?$AAy?$AA?$FN?$AA?4@ 00590110     LIBCMTD:setlocal.obj
 0003:00019308       ??_C@_1CI@FGIONOJM@?$AA_?$AAc?$AAo?$AAn?$AAf?$AAi?$AAg?$AAt?$AAh?$AAr?$AAe?$AAa?$AAd?$AAl?$AAo?$AAc?$AAa?$AAl?$AAe?$AA?$AA@ 00590308     LIBCMTD:setlocal.obj
 0003:00019338       ??_C@_1GA@LDEGDKD@?$AA?$CI?$AA?$CC?$AAI?$AAn?$AAv?$AAa?$AAl?$AAi?$AAd?$AA?5?$AAp?$AAa?$AAr?$AAa?$AAm?$AAe?$AAt?$AAe?$AAr?$AA?5?$AAf?$AAo?$AAr?$AA?5?$AA_?$AAc?$AAo?$AAn?$AAf?$AAi?$AAg?$AAt@ 00590338     LIBCMTD:setlocal.obj
 0003:000193ac       ??_C@_0DC@JCPFNMID@f?3?2dd?2vctools?2crt_bld?2self_x86?2c@ 005903ac     LIBCMTD:setlocal.obj
 0003:000193e8       ??_C@_1BE@DBJGBOJC@?$AAs?$AAe?$AAt?$AAl?$AAo?$AAc?$AAa?$AAl?$AAe?$AA?$AA@ 005903e8     LIBCMTD:setlocal.obj
 0003:00019400       ??_C@_1FG@OHLFEKMC@?$AAL?$AAC?$AA_?$AAM?$AAI?$AAN?$AA?5?$AA?$DM?$AA?$DN?$AA?5?$AA_?$AAc?$AAa?$AAt?$AAe?$AAg?$AAo?$AAr?$AAy?$AA?5?$AA?$CG?$AA?$CG?$AA?5?$AA_?$AAc?$AAa?$AAt?$AAe?$AAg?$AAo?$AAr?$AAy@ 00590400     LIBCMTD:setlocal.obj
 0003:00019468       ??_C@_1IA@PFIKKKFB@?$AAs?$AAt?$AAr?$AAn?$AAc?$AAp?$AAy?$AA_?$AAs?$AA?$CI?$AAl?$AAc?$AAt?$AAe?$AAm?$AAp?$AA?0?$AA?5?$AA?$CI?$AAs?$AAi?$AAz?$AAe?$AAo?$AAf?$AA?$CI?$AAl?$AAc?$AAt?$AAe?$AAm?$AAp@ 00590468     LIBCMTD:setlocal.obj
 0003:00019504       ??_C@_1CE@OFNHIOO@?$AA_?$AAs?$AAe?$AAt?$AAl?$AAo?$AAc?$AAa?$AAl?$AAe?$AA_?$AAn?$AAo?$AAl?$AAo?$AAc?$AAk?$AA?$AA@ 00590504     LIBCMTD:setlocal.obj
 0003:00019530       ??_C@_01ICJEACDI@?$DL?$AA@ 00590530     LIBCMTD:setlocal.obj
 0003:00019534       ??_C@_02BALPLPBG@?$DN?$DL?$AA@ 00590534     LIBCMTD:setlocal.obj
 0003:00019538       ??_C@_1GO@JALHLJEH@?$AAs?$AAt?$AAr?$AAc?$AAp?$AAy?$AA_?$AAs?$AA?$CI?$AAp?$AAc?$AAh?$AA?5?$AA?$CL?$AA?5?$AAs?$AAi?$AAz?$AAe?$AAo?$AAf?$AA?$CI?$AAi?$AAn?$AAt?$AA?$CJ?$AA?0?$AA?5?$AAc?$AAc?$AAh?$AA?5@ 00590538     LIBCMTD:setlocal.obj
 0003:000195bc       ??_C@_1CG@IEFIICPK@?$AA_?$AAs?$AAe?$AAt?$AAl?$AAo?$AAc?$AAa?$AAl?$AAe?$AA_?$AAs?$AAe?$AAt?$AA_?$AAc?$AAa?$AAt?$AA?$AA@ 005905bc     LIBCMTD:setlocal.obj
 0003:000195ec       ??_C@_1DA@GDKKLCLM@?$AAs?$AAt?$AAr?$AAc?$AAa?$AAt?$AA_?$AAs?$AA?$CI?$AAp?$AAc?$AAh?$AA?0?$AA?5?$AAc?$AAc?$AAh?$AA?0?$AA?5?$AA?$CC?$AA?$DL?$AA?$CC?$AA?$CJ?$AA?$AA@ 005905ec     LIBCMTD:setlocal.obj
 0003:00019628       ??_C@_1CG@NNFIJLDA@?$AA_?$AAs?$AAe?$AAt?$AAl?$AAo?$AAc?$AAa?$AAl?$AAe?$AA_?$AAg?$AAe?$AAt?$AA_?$AAa?$AAl?$AAl?$AA?$AA@ 00590628     LIBCMTD:setlocal.obj
 0003:00019658       ??_C@_01NEMOKFLO@?$DN?$AA@ 00590658     LIBCMTD:setlocal.obj
 0003:00019660       ??_C@_1FA@MHAOOIBO@?$AAs?$AAt?$AAr?$AAc?$AAp?$AAy?$AA_?$AAs?$AA?$CI?$AAo?$AAu?$AAt?$AAp?$AAu?$AAt?$AA?0?$AA?5?$AAs?$AAi?$AAz?$AAe?$AAI?$AAn?$AAC?$AAh?$AAa?$AAr?$AAs?$AA?0?$AA?5?$AAc?$AAa@ 00590660     LIBCMTD:setlocal.obj
 0003:000196c0       ??_C@_1IA@ONNFOEDA@?$AAs?$AAt?$AAr?$AAn?$AAc?$AAp?$AAy?$AA_?$AAs?$AA?$CI?$AAc?$AAa?$AAc?$AAh?$AAe?$AAi?$AAn?$AA?0?$AA?5?$AAc?$AAa?$AAc?$AAh?$AAe?$AAi?$AAn?$AAS?$AAi?$AAz?$AAe?$AA?0?$AA?5@ 005906c0     LIBCMTD:setlocal.obj
 0003:0001975c       ??_C@_01GFHCPBMG@C?$AA@    0059075c     LIBCMTD:setlocal.obj
 0003:00019760       ??_C@_1EG@MOMHKOD@?$AAs?$AAt?$AAr?$AAc?$AAp?$AAy?$AA_?$AAs?$AA?$CI?$AAo?$AAu?$AAt?$AAp?$AAu?$AAt?$AA?0?$AA?5?$AAs?$AAi?$AAz?$AAe?$AAI?$AAn?$AAC?$AAh?$AAa?$AAr?$AAs?$AA?0?$AA?5?$AA?$CC?$AAC@ 00590760     LIBCMTD:setlocal.obj
 0003:000197b4       ??_C@_1BM@OIIBLEFG@?$AA_?$AAe?$AAx?$AAp?$AAa?$AAn?$AAd?$AAl?$AAo?$AAc?$AAa?$AAl?$AAe?$AA?$AA@ 005907b4     LIBCMTD:setlocal.obj
 0003:000197d8       ??_C@_1BGM@IJDLABMC@?$AAs?$AAt?$AAr?$AAc?$AAa?$AAt?$AA_?$AAs?$AA?$CI?$AAo?$AAu?$AAt?$AAs?$AAt?$AAr?$AA?0?$AA?5?$AAs?$AAi?$AAz?$AAe?$AAI?$AAn?$AAB?$AAy?$AAt?$AAe?$AAs?$AA?0?$AA?5?$AA?$CI?$AA?5@ 005907d8     LIBCMTD:setlocal.obj
 0003:0001998c       ??_C@_1BC@PIABMDIP@?$AA_?$AAs?$AAt?$AAr?$AAc?$AAa?$AAt?$AAs?$AA?$AA@ 0059098c     LIBCMTD:setlocal.obj
 0003:000199a8       ??_C@_1MM@NOPMGFHF@?$AAs?$AAt?$AAr?$AAn?$AAc?$AAp?$AAy?$AA_?$AAs?$AA?$CI?$AAn?$AAa?$AAm?$AAe?$AAs?$AA?9?$AA?$DO?$AAs?$AAz?$AAC?$AAo?$AAd?$AAe?$AAP?$AAa?$AAg?$AAe?$AA?0?$AA?5?$AA?$CI?$AAs?$AAi@ 005909a8     LIBCMTD:setlocal.obj
 0003:00019aa0       ??_C@_1MG@PHNILIAG@?$AAs?$AAt?$AAr?$AAn?$AAc?$AAp?$AAy?$AA_?$AAs?$AA?$CI?$AAn?$AAa?$AAm?$AAe?$AAs?$AA?9?$AA?$DO?$AAs?$AAz?$AAC?$AAo?$AAu?$AAn?$AAt?$AAr?$AAy?$AA?0?$AA?5?$AA?$CI?$AAs?$AAi?$AAz@ 00590aa0     LIBCMTD:setlocal.obj
 0003:00019b90       ??_C@_1MM@BFEECMAF@?$AAs?$AAt?$AAr?$AAn?$AAc?$AAp?$AAy?$AA_?$AAs?$AA?$CI?$AAn?$AAa?$AAm?$AAe?$AAs?$AA?9?$AA?$DO?$AAs?$AAz?$AAL?$AAa?$AAn?$AAg?$AAu?$AAa?$AAg?$AAe?$AA?0?$AA?5?$AA?$CI?$AAs?$AAi@ 00590b90     LIBCMTD:setlocal.obj
 0003:00019c84       ??_C@_03EGDHDPFD@_?4?0?$AA@ 00590c84     LIBCMTD:setlocal.obj
 0003:00019c88       ??_C@_1NG@FMOPGKGG@?$AAs?$AAt?$AAr?$AAn?$AAc?$AAp?$AAy?$AA_?$AAs?$AA?$CI?$AAn?$AAa?$AAm?$AAe?$AAs?$AA?9?$AA?$DO?$AAs?$AAz?$AAC?$AAo?$AAd?$AAe?$AAP?$AAa?$AAg?$AAe?$AA?0?$AA?5?$AA?$CI?$AAs?$AAi@ 00590c88     LIBCMTD:setlocal.obj
 0003:00019d88       ??_C@_1BK@CBMMLAGJ@?$AA_?$AA_?$AAl?$AAc?$AA_?$AAs?$AAt?$AAr?$AAt?$AAo?$AAl?$AAc?$AA?$AA@ 00590d88     LIBCMTD:setlocal.obj
 0003:00019da8       ??_C@_01IDAFKMJL@_?$AA@    00590da8     LIBCMTD:setlocal.obj
 0003:00019db0       ??_C@_1HC@IBDBLKCB@?$AAs?$AAt?$AAr?$AAc?$AAp?$AAy?$AA_?$AAs?$AA?$CI?$AAl?$AAo?$AAc?$AAa?$AAl?$AAe?$AA?0?$AA?5?$AAs?$AAi?$AAz?$AAe?$AAI?$AAn?$AAB?$AAy?$AAt?$AAe?$AAs?$AA?0?$AA?5?$AA?$CI?$AAc@ 00590db0     LIBCMTD:setlocal.obj
 0003:00019e38       ??_C@_1BK@FGDJDEPG@?$AA_?$AA_?$AAl?$AAc?$AA_?$AAl?$AAc?$AAt?$AAo?$AAs?$AAt?$AAr?$AA?$AA@ 00590e38     LIBCMTD:setlocal.obj
 0003:00019e58       ??_C@_1GE@KOCFNGPB@?$AA_?$AAc?$AAo?$AAn?$AAt?$AAr?$AAo?$AAl?$AAf?$AAp?$AA_?$AAs?$AA?$CI?$AA?$CI?$AA?$CI?$AAv?$AAo?$AAi?$AAd?$AA?5?$AA?$CK?$AA?$CJ?$AA0?$AA?$CJ?$AA?0?$AA?5?$AA0?$AAx?$AA0?$AA0?$AA0?$AA1@ 00590e58     LIBCMTD:fp8.obj
 0003:00019ed0       ??_C@_1CK@JMKHCBEI@?$AA_?$AAs?$AAe?$AAt?$AAd?$AAe?$AAf?$AAa?$AAu?$AAl?$AAt?$AAp?$AAr?$AAe?$AAc?$AAi?$AAs?$AAi?$AAo?$AAn?$AA?$AA@ 00590ed0     LIBCMTD:fp8.obj
 0003:00019f08       ??_C@_1GG@PHGJJHBC@?$AAf?$AA?3?$AA?2?$AAd?$AAd?$AA?2?$AAv?$AAc?$AAt?$AAo?$AAo?$AAl?$AAs?$AA?2?$AAc?$AAr?$AAt?$AA_?$AAb?$AAl?$AAd?$AA?2?$AAs?$AAe?$AAl?$AAf?$AA_?$AAx?$AA8?$AA6?$AA?2?$AAc@ 00590f08     LIBCMTD:fp8.obj
 0003:00019f88       __real@4150017ec0000000    00590f88     LIBCMTD:_testfdiv_.obj
 0003:00019f98       __real@4147ffff80000000    00590f98     LIBCMTD:_testfdiv_.obj
 0003:00019fa4       ??_C@_0BK@NHEOCAHP@IsProcessorFeaturePresent?$AA@ 00590fa4     LIBCMTD:_testfdiv_.obj
 0003:00019fc4       ??_C@_08CPNIBGIE@KERNEL32?$AA@ 00590fc4     LIBCMTD:_testfdiv_.obj
 0003:00019fd0       ??_C@_1CA@CBMNPEO@?$AAs?$AAi?$AAz?$AAe?$AAI?$AAn?$AAB?$AAy?$AAt?$AAe?$AAs?$AA?5?$AA?$DO?$AA?5?$AA0?$AA?$AA@ 00590fd0     LIBCMTD:cvt.obj
 0003:00019ff8       ??_C@_1BC@INKAPMHI@?$AA_?$AAc?$AAf?$AAt?$AAo?$AAe?$AA_?$AAl?$AA?$AA@ 00590ff8     LIBCMTD:cvt.obj
 0003:0001a010       ??_C@_1GO@NCCGBNKI@?$AAf?$AA?3?$AA?2?$AAd?$AAd?$AA?2?$AAv?$AAc?$AAt?$AAo?$AAo?$AAl?$AAs?$AA?2?$AAc?$AAr?$AAt?$AA_?$AAb?$AAl?$AAd?$AA?2?$AAs?$AAe?$AAl?$AAf?$AA_?$AAx?$AA8?$AA6?$AA?2?$AAc@ 00591010     LIBCMTD:cvt.obj
 0003:0001a094       ??_C@_05KLBDPFGC@e?$CL000?$AA@ 00591094     LIBCMTD:cvt.obj
 0003:0001a0a0       ??_C@_1LE@EOIFGNCJ@?$AAs?$AAt?$AAr?$AAc?$AAp?$AAy?$AA_?$AAs?$AA?$CI?$AAp?$AA?0?$AA?5?$AA?$CI?$AAs?$AAi?$AAz?$AAe?$AAI?$AAn?$AAB?$AAy?$AAt?$AAe?$AAs?$AA?5?$AA?$DN?$AA?$DN?$AA?5?$AA?$CI?$AAs?$AAi?$AAz@ 005910a0     LIBCMTD:cvt.obj
 0003:0001a178       ??_C@_1HE@NACBNDPP@?$AAs?$AAi?$AAz?$AAe?$AAI?$AAn?$AAB?$AAy?$AAt?$AAe?$AAs?$AA?5?$AA?$DO?$AA?5?$AA?$CI?$AAs?$AAi?$AAz?$AAe?$AA_?$AAt?$AA?$CJ?$AA?$CI?$AA3?$AA?5?$AA?$CL?$AA?5?$AA?$CI?$AAn?$AAd?$AAe?$AAc@ 00591178     LIBCMTD:cvt.obj
 0003:0001a204       ??_C@_1BE@OLBNEILL@?$AA_?$AAc?$AAf?$AAt?$AAo?$AAe?$AA2?$AA_?$AAl?$AA?$AA@ 00591204     LIBCMTD:cvt.obj
 0003:0001a220       ??_C@_1FC@IKIMAMJB@?$AAs?$AAi?$AAz?$AAe?$AAI?$AAn?$AAB?$AAy?$AAt?$AAe?$AAs?$AA?5?$AA?$DO?$AA?5?$AA?$CI?$AAs?$AAi?$AAz?$AAe?$AA_?$AAt?$AA?$CJ?$AA?$CI?$AA1?$AA?5?$AA?$CL?$AA?5?$AA4?$AA?5?$AA?$CL?$AA?5?$AAn@ 00591220     LIBCMTD:cvt.obj
 0003:0001a284       ??_C@_1BC@JOKPCIC@?$AA_?$AAc?$AAf?$AAt?$AAo?$AAa?$AA_?$AAl?$AA?$AA@ 00591284     LIBCMTD:cvt.obj
 0003:0001a29c       ??_C@_1BC@DCPPLJL@?$AA_?$AAc?$AAf?$AAt?$AAo?$AAf?$AA_?$AAl?$AA?$AA@ 0059129c     LIBCMTD:cvt.obj
 0003:0001a2b4       ??_C@_1BE@CKPDLI@?$AA_?$AAc?$AAf?$AAt?$AAo?$AAf?$AA2?$AA_?$AAl?$AA?$AA@ 005912b4     LIBCMTD:cvt.obj
 0003:0001a2cc       ??_C@_1BC@MPIFPLAF@?$AA_?$AAc?$AAf?$AAt?$AAo?$AAg?$AA_?$AAl?$AA?$AA@ 005912cc     LIBCMTD:cvt.obj
 0003:0001a2e8       ??_C@_1NK@LOFHIHFC@?$AAf?$AAM?$AAo?$AAd?$AAe?$AA?5?$AA?$DN?$AA?$DN?$AA?5?$AA_?$AAC?$AAR?$AAT?$AAD?$AAB?$AAG?$AA_?$AAR?$AAE?$AAP?$AAO?$AAR?$AAT?$AA_?$AAM?$AAO?$AAD?$AAE?$AA?5?$AA?$HM?$AA?$HM?$AA?5@ 005912e8     LIBCMTD:dbgrptt.obj
 0003:0001a3f0       ??_C@_1CE@FIHIECNJ@?$AA_?$AAC?$AAr?$AAt?$AAS?$AAe?$AAt?$AAR?$AAe?$AAp?$AAo?$AAr?$AAt?$AAM?$AAo?$AAd?$AAe?$AA?$AA@ 005913f0     LIBCMTD:dbgrptt.obj
 0003:0001a420       ??_C@_1GC@FIGJJMEN@?$AAf?$AA?3?$AA?2?$AAd?$AAd?$AA?2?$AAv?$AAc?$AAt?$AAo?$AAo?$AAl?$AAs?$AA?2?$AAc?$AAr?$AAt?$AA_?$AAb?$AAl?$AAd?$AA?2?$AAs?$AAe?$AAl?$AAf?$AA_?$AAx?$AA8?$AA6?$AA?2?$AAc@ 00591420     LIBCMTD:dbgrptt.obj
 0003:0001a498       ??_C@_1FA@IFFFOLDJ@?$AAn?$AAR?$AAp?$AAt?$AAT?$AAy?$AAp?$AAe?$AA?5?$AA?$DO?$AA?$DN?$AA?5?$AA0?$AA?5?$AA?$CG?$AA?$CG?$AA?5?$AAn?$AAR?$AAp?$AAt?$AAT?$AAy?$AAp?$AAe?$AA?5?$AA?$DM?$AA?5?$AA_?$AAC?$AAR?$AAT@ 00591498     LIBCMTD:dbgrptt.obj
 0003:0001a4f8       ??_C@_1CE@IKKEDCME@?$AA_?$AAC?$AAr?$AAt?$AAS?$AAe?$AAt?$AAR?$AAe?$AAp?$AAo?$AAr?$AAt?$AAF?$AAi?$AAl?$AAe?$AA?$AA@ 005914f8     LIBCMTD:dbgrptt.obj
 0003:0001a528       ??_C@_1HO@PJOFIKFE@?$AA_?$AAC?$AAr?$AAt?$AAD?$AAb?$AAg?$AAR?$AAe?$AAp?$AAo?$AAr?$AAt?$AA?3?$AA?5?$AAS?$AAt?$AAr?$AAi?$AAn?$AAg?$AA?5?$AAt?$AAo?$AAo?$AA?5?$AAl?$AAo?$AAn?$AAg?$AA?5?$AAo@ 00591528     LIBCMTD:dbgrptt.obj
 0003:0001a5c0       ??_C@_1MC@IGEECMDB@?$AAw?$AAc?$AAs?$AAc?$AAp?$AAy?$AA_?$AAs?$AA?$CI?$AAs?$AAz?$AAO?$AAu?$AAt?$AAM?$AAe?$AAs?$AAs?$AAa?$AAg?$AAe?$AA2?$AA?0?$AA?5?$AA4?$AA0?$AA9?$AA6?$AA?0?$AA?5?$AAL?$AA?$CC@ 005915c0     LIBCMTD:dbgrptt.obj
 0003:0001a6a8       ??_C@_1IM@OOKIFKOH@?$AAe?$AA?5?$AA?$DN?$AA?5?$AAm?$AAb?$AAs?$AAt?$AAo?$AAw?$AAc?$AAs?$AA_?$AAs?$AA?$CI?$AA?$CG?$AAr?$AAe?$AAt?$AA?0?$AA?5?$AAs?$AAz?$AAO?$AAu?$AAt?$AAM?$AAe?$AAs?$AAs?$AAa?$AAg@ 005916a8     LIBCMTD:dbgrptt.obj
 0003:0001a750       ??_C@_1FI@IBIOIHEG@?$AAs?$AAt?$AAr?$AAc?$AAp?$AAy?$AA_?$AAs?$AA?$CI?$AAs?$AAz?$AAO?$AAu?$AAt?$AAM?$AAe?$AAs?$AAs?$AAa?$AAg?$AAe?$AA?0?$AA?5?$AA4?$AA0?$AA9?$AA6?$AA?0?$AA?5?$AAs?$AAz?$AAL@ 00591750     LIBCMTD:dbgrptt.obj
 0003:0001a7c0       ??_C@_1JG@CPKCIOEE@?$AAs?$AAt?$AAr?$AAc?$AAp?$AAy?$AA_?$AAs?$AA?$CI?$AAs?$AAz?$AAO?$AAu?$AAt?$AAM?$AAe?$AAs?$AAs?$AAa?$AAg?$AAe?$AA?0?$AA?5?$AA4?$AA0?$AA9?$AA6?$AA?0?$AA?5?$AA?$CC?$AA_?$AAC@ 005917c0     LIBCMTD:dbgrptt.obj
 0003:0001a874       ??_C@_0M@IPILFDFN@?$CFs?$CI?$CFd?$CJ?5?3?5?$CFs?$AA@ 00591874     LIBCMTD:dbgrptt.obj
 0003:0001a888       ??_C@_1EI@LDHJEDO@?$AAs?$AAt?$AAr?$AAc?$AAa?$AAt?$AA_?$AAs?$AA?$CI?$AAs?$AAz?$AAL?$AAi?$AAn?$AAe?$AAM?$AAe?$AAs?$AAs?$AAa?$AAg?$AAe?$AA?0?$AA?5?$AA4?$AA0?$AA9?$AA6?$AA?0?$AA?5?$AA?$CC?$AA?2@ 00591888     LIBCMTD:dbgrptt.obj
 0003:0001a8e0       ??_C@_01LIIJDEN@?$AN?$AA@  005918e0     LIBCMTD:dbgrptt.obj
 0003:0001a8e8       ??_C@_1EI@CACDLAFK@?$AAs?$AAt?$AAr?$AAc?$AAa?$AAt?$AA_?$AAs?$AA?$CI?$AAs?$AAz?$AAL?$AAi?$AAn?$AAe?$AAM?$AAe?$AAs?$AAs?$AAa?$AAg?$AAe?$AA?0?$AA?5?$AA4?$AA0?$AA9?$AA6?$AA?0?$AA?5?$AA?$CC?$AA?2@ 005918e8     LIBCMTD:dbgrptt.obj
 0003:0001a940       ??_C@_1FK@NPGBPOFO@?$AAs?$AAt?$AAr?$AAc?$AAa?$AAt?$AA_?$AAs?$AA?$CI?$AAs?$AAz?$AAL?$AAi?$AAn?$AAe?$AAM?$AAe?$AAs?$AAs?$AAa?$AAg?$AAe?$AA?0?$AA?5?$AA4?$AA0?$AA9?$AA6?$AA?0?$AA?5?$AAs?$AAz@ 00591940     LIBCMTD:dbgrptt.obj
 0003:0001a9b0       ??_C@_1KK@GIGAEDMO@?$AAs?$AAt?$AAr?$AAc?$AAp?$AAy?$AA_?$AAs?$AA?$CI?$AAs?$AAz?$AAL?$AAi?$AAn?$AAe?$AAM?$AAe?$AAs?$AAs?$AAa?$AAg?$AAe?$AA?0?$AA?5?$AA4?$AA0?$AA9?$AA6?$AA?0?$AA?5?$AAs?$AAz@ 005919b0     LIBCMTD:dbgrptt.obj
 0003:0001aa7c       ??_C@_0BD@CAENFOHP@Assertion?5failed?3?5?$AA@ 00591a7c     LIBCMTD:dbgrptt.obj
 0003:0001aa94       ??_C@_0CL@EACFGMNB@_CrtDbgReport?3?5String?5too?5long?5o@ 00591a94     LIBCMTD:dbgrptt.obj
 0003:0001aac8       ??_C@_1JI@GAALPGBM@?$AAs?$AAt?$AAr?$AAc?$AAp?$AAy?$AA_?$AAs?$AA?$CI?$AAs?$AAz?$AAU?$AAs?$AAe?$AAr?$AAM?$AAe?$AAs?$AAs?$AAa?$AAg?$AAe?$AA?0?$AA?5?$AA4?$AA0?$AA9?$AA6?$AA?0?$AA?5?$AA?$CC?$AA_@ 00591ac8     LIBCMTD:dbgrptt.obj
 0003:0001ab80       ??_C@_07BHGABMGB@?0?5Line?5?$AA@ 00591b80     LIBCMTD:dbgrptt.obj
 0003:0001ab8c       ??_C@_0P@DFJNDPOP@?$DMfile?5unknown?$DO?$AA@ 00591b8c     LIBCMTD:dbgrptt.obj
 0003:0001aba0       ??_C@_0CG@BNGLOCEO@Second?5Chance?5Assertion?5Failed?3?5@ 00591ba0     LIBCMTD:dbgrptt.obj
 0003:0001abd0       ??_C@_1FA@JPHJBHEM@?$AA_?$AAi?$AAt?$AAo?$AAa?$AA_?$AAs?$AA?$CI?$AAn?$AAL?$AAi?$AAn?$AAe?$AA?0?$AA?5?$AAs?$AAz?$AAL?$AAi?$AAn?$AAe?$AAM?$AAe?$AAs?$AAs?$AAa?$AAg?$AAe?$AA?0?$AA?5?$AA4?$AA0@ 00591bd0     LIBCMTD:dbgrptt.obj
 0003:0001ac30       ??_C@_1CA@KHJHLKA@?$AA_?$AAV?$AAC?$AAr?$AAt?$AAD?$AAb?$AAg?$AAR?$AAe?$AAp?$AAo?$AAr?$AAt?$AAA?$AA?$AA@ 00591c30     LIBCMTD:dbgrptt.obj
 0003:0001ac58       ??_C@_1IE@CPGKIAGP@?$AAw?$AAc?$AAs?$AAt?$AAo?$AAm?$AAb?$AAs?$AA_?$AAs?$AA?$CI?$AA?$CG?$AAr?$AAe?$AAt?$AA?0?$AA?5?$AAs?$AAz?$AAa?$AAO?$AAu?$AAt?$AAM?$AAe?$AAs?$AAs?$AAa?$AAg?$AAe?$AA?0?$AA?5@ 00591c58     LIBCMTD:dbgrptt.obj
 0003:0001acf8       ??_C@_0DP@GNPEPHJD@_CrtDbgReport?3?5String?5too?5long?5o@ 00591cf8     LIBCMTD:dbgrptt.obj
 0003:0001ad48       ??_C@_1MA@LBAMNNOB@?$AAs?$AAt?$AAr?$AAc?$AAp?$AAy?$AA_?$AAs?$AA?$CI?$AAs?$AAz?$AAO?$AAu?$AAt?$AAM?$AAe?$AAs?$AAs?$AAa?$AAg?$AAe?$AA2?$AA?0?$AA?5?$AA4?$AA0?$AA9?$AA6?$AA?0?$AA?5?$AA?$CC?$AA_@ 00591d48     LIBCMTD:dbgrptt.obj
 0003:0001ae30       ??_C@_1JC@EOAPFDLN@?$AAw?$AAc?$AAs?$AAt?$AAo?$AAm?$AAb?$AAs?$AA_?$AAs?$AA?$CI?$AA?$CI?$AA?$CI?$AAv?$AAo?$AAi?$AAd?$AA?5?$AA?$CK?$AA?$CJ?$AA0?$AA?$CJ?$AA?0?$AA?5?$AAs?$AAz?$AAO?$AAu?$AAt?$AAM?$AAe?$AAs@ 00591e30     LIBCMTD:dbgrptt.obj
 0003:0001aee0       ??_C@_1FI@DBAIJPJE@?$AAw?$AAc?$AAs?$AAc?$AAp?$AAy?$AA_?$AAs?$AA?$CI?$AAs?$AAz?$AAO?$AAu?$AAt?$AAM?$AAe?$AAs?$AAs?$AAa?$AAg?$AAe?$AA?0?$AA?5?$AA4?$AA0?$AA9?$AA6?$AA?0?$AA?5?$AAs?$AAz?$AAL@ 00591ee0     LIBCMTD:dbgrptt.obj
 0003:0001af4c       ??_C@_1BI@JIDBEPIG@?$AA?$CF?$AAs?$AA?$CI?$AA?$CF?$AAd?$AA?$CJ?$AA?5?$AA?3?$AA?5?$AA?$CF?$AAs?$AA?$AA@ 00591f4c     LIBCMTD:dbgrptt.obj
 0003:0001af68       ??_C@_1EK@PHCBEDKB@?$AAw?$AAc?$AAs?$AAc?$AAa?$AAt?$AA_?$AAs?$AA?$CI?$AAs?$AAz?$AAL?$AAi?$AAn?$AAe?$AAM?$AAe?$AAs?$AAs?$AAa?$AAg?$AAe?$AA?0?$AA?5?$AA4?$AA0?$AA9?$AA6?$AA?0?$AA?5?$AAL?$AA?$CC@ 00591f68     LIBCMTD:dbgrptt.obj
 0003:0001afc0       ??_C@_13CMNBPIDO@?$AA?$AN?$AA?$AA@ 00591fc0     LIBCMTD:dbgrptt.obj
 0003:0001afc8       ??_C@_1EK@NMDFGHMF@?$AAw?$AAc?$AAs?$AAc?$AAa?$AAt?$AA_?$AAs?$AA?$CI?$AAs?$AAz?$AAL?$AAi?$AAn?$AAe?$AAM?$AAe?$AAs?$AAs?$AAa?$AAg?$AAe?$AA?0?$AA?5?$AA4?$AA0?$AA9?$AA6?$AA?0?$AA?5?$AAL?$AA?$CC@ 00591fc8     LIBCMTD:dbgrptt.obj
 0003:0001b020       ??_C@_1FK@HPADHBBD@?$AAw?$AAc?$AAs?$AAc?$AAa?$AAt?$AA_?$AAs?$AA?$CI?$AAs?$AAz?$AAL?$AAi?$AAn?$AAe?$AAM?$AAe?$AAs?$AAs?$AAa?$AAg?$AAe?$AA?0?$AA?5?$AA4?$AA0?$AA9?$AA6?$AA?0?$AA?5?$AAs?$AAz@ 00592020     LIBCMTD:dbgrptt.obj
 0003:0001b090       ??_C@_1KO@DGAHENCH@?$AAw?$AAc?$AAs?$AAc?$AAp?$AAy?$AA_?$AAs?$AA?$CI?$AAs?$AAz?$AAL?$AAi?$AAn?$AAe?$AAM?$AAe?$AAs?$AAs?$AAa?$AAg?$AAe?$AA?0?$AA?5?$AA4?$AA0?$AA9?$AA6?$AA?0?$AA?5?$AAs?$AAz@ 00592090     LIBCMTD:dbgrptt.obj
 0003:0001b160       ??_C@_1CG@FFFGGODN@?$AAA?$AAs?$AAs?$AAe?$AAr?$AAt?$AAi?$AAo?$AAn?$AA?5?$AAf?$AAa?$AAi?$AAl?$AAe?$AAd?$AA?3?$AA?5?$AA?$AA@ 00592160     LIBCMTD:dbgrptt.obj
 0003:0001b190       ??_C@_1JK@KHFABAEO@?$AAw?$AAc?$AAs?$AAc?$AAp?$AAy?$AA_?$AAs?$AA?$CI?$AAs?$AAz?$AAU?$AAs?$AAe?$AAr?$AAM?$AAe?$AAs?$AAs?$AAa?$AAg?$AAe?$AA?0?$AA?5?$AA4?$AA0?$AA9?$AA6?$AA?0?$AA?5?$AAL?$AA?$CC@ 00592190     LIBCMTD:dbgrptt.obj
 0003:0001b248       ??_C@_1BA@ELMMDCFC@?$AA?0?$AA?5?$AAL?$AAi?$AAn?$AAe?$AA?5?$AA?$AA@ 00592248     LIBCMTD:dbgrptt.obj
 0003:0001b25c       ??_C@_1BO@OCHMLCAG@?$AA?$DM?$AAf?$AAi?$AAl?$AAe?$AA?5?$AAu?$AAn?$AAk?$AAn?$AAo?$AAw?$AAn?$AA?$DO?$AA?$AA@ 0059225c     LIBCMTD:dbgrptt.obj
 0003:0001b280       ??_C@_1EM@MJFLEDMB@?$AAS?$AAe?$AAc?$AAo?$AAn?$AAd?$AA?5?$AAC?$AAh?$AAa?$AAn?$AAc?$AAe?$AA?5?$AAA?$AAs?$AAs?$AAe?$AAr?$AAt?$AAi?$AAo?$AAn?$AA?5?$AAF?$AAa?$AAi?$AAl?$AAe?$AAd?$AA?3?$AA?5@ 00592280     LIBCMTD:dbgrptt.obj
 0003:0001b2e0       ??_C@_1FA@CNLLOMHI@?$AA_?$AAi?$AAt?$AAo?$AAw?$AA_?$AAs?$AA?$CI?$AAn?$AAL?$AAi?$AAn?$AAe?$AA?0?$AA?5?$AAs?$AAz?$AAL?$AAi?$AAn?$AAe?$AAM?$AAe?$AAs?$AAs?$AAa?$AAg?$AAe?$AA?0?$AA?5?$AA4?$AA0@ 005922e0     LIBCMTD:dbgrptt.obj
 0003:0001b340       ??_C@_1CA@HPALHDOD@?$AA_?$AAV?$AAC?$AAr?$AAt?$AAD?$AAb?$AAg?$AAR?$AAe?$AAp?$AAo?$AAr?$AAt?$AAW?$AA?$AA@ 00592340     LIBCMTD:dbgrptt.obj
 0003:0001b368       ??_C@_1BE@BMIJMLDD@?$AA_?$AAs?$AAw?$AAp?$AAr?$AAi?$AAn?$AAt?$AAf?$AA?$AA@ 00592368     LIBCMTD:swprintf.obj
 0003:0001b380       ??_C@_1GE@DKGHLBLP@?$AAf?$AA?3?$AA?2?$AAd?$AAd?$AA?2?$AAv?$AAc?$AAt?$AAo?$AAo?$AAl?$AAs?$AA?2?$AAc?$AAr?$AAt?$AA_?$AAb?$AAl?$AAd?$AA?2?$AAs?$AAe?$AAl?$AAf?$AA_?$AAx?$AA8?$AA6?$AA?2?$AAc@ 00592380     LIBCMTD:swprintf.obj
 0003:0001b3f8       ??_C@_1BC@MJNBEDIJ@?$AA_?$AAi?$AAn?$AAp?$AAu?$AAt?$AA_?$AAl?$AA?$AA@ 005923f8     LIBCMTD:input.obj
 0003:0001b410       ??_C@_1FO@LDDBLKJ@?$AAf?$AA?3?$AA?2?$AAd?$AAd?$AA?2?$AAv?$AAc?$AAt?$AAo?$AAo?$AAl?$AAs?$AA?2?$AAc?$AAr?$AAt?$AA_?$AAb?$AAl?$AAd?$AA?2?$AAs?$AAe?$AAl?$AAf?$AA_?$AAx?$AA8?$AA6?$AA?2?$AAc@ 00592410     LIBCMTD:input.obj
 0003:0001b480       ??_C@_0CP@MMGCGBFO@f?3?2dd?2vctools?2crt_bld?2self_x86?2c@ 00592480     LIBCMTD:input.obj
 0003:0001b4b8       ??_C@_1DO@MBOKMJPK@?$AAn?$AAF?$AAl?$AAo?$AAa?$AAt?$AAS?$AAt?$AAr?$AAU?$AAs?$AAe?$AAd?$AA?$DM?$AA?$DN?$AA?$CI?$AA?$CK?$AAp?$AAn?$AAF?$AAl?$AAo?$AAa?$AAt?$AAS?$AAt?$AAr?$AAS?$AAz?$AA?$CJ?$AA?$AA@ 005924b8     LIBCMTD:input.obj
 0003:0001b504       ??_C@_1DG@MPPGJOHD@?$AA?$CI?$AA?$CC?$AAI?$AAn?$AAv?$AAa?$AAl?$AAi?$AAd?$AA?5?$AAI?$AAn?$AAp?$AAu?$AAt?$AA?5?$AAF?$AAo?$AAr?$AAm?$AAa?$AAt?$AA?$CC?$AA?0?$AA0?$AA?$CJ?$AA?$AA@ 00592504     LIBCMTD:inputs.obj
 0003:0001b544       ??_C@_1BG@LBKFJFHM@?$AA_?$AAi?$AAn?$AAp?$AAu?$AAt?$AA_?$AAs?$AA_?$AAl?$AA?$AA@ 00592544     LIBCMTD:inputs.obj
 0003:0001b560       ??_C@_1JE@ECKHFIFP@?$AA?$CI?$AA?$CC?$AAI?$AAn?$AAv?$AAa?$AAl?$AAi?$AAd?$AA?5?$AAf?$AAi?$AAl?$AAe?$AA?5?$AAd?$AAe?$AAs?$AAc?$AAr?$AAi?$AAp?$AAt?$AAo?$AAr?$AA?4?$AA?5?$AAF?$AAi?$AAl?$AAe?$AA?5@ 00592560     LIBCMTD:close.obj
 0003:0001b614       ??_C@_1CM@OKGMMMDH@?$AA?$CI?$AA_?$AAo?$AAs?$AAf?$AAi?$AAl?$AAe?$AA?$CI?$AAf?$AAh?$AA?$CJ?$AA?5?$AA?$CG?$AA?5?$AAF?$AAO?$AAP?$AAE?$AAN?$AA?$CJ?$AA?$AA@ 00592614     LIBCMTD:close.obj
 0003:0001b648       ??_C@_1O@EDEJGJBM@?$AA_?$AAc?$AAl?$AAo?$AAs?$AAe?$AA?$AA@ 00592648     LIBCMTD:close.obj
 0003:0001b658       ??_C@_1FO@NNGNFGFH@?$AAf?$AA?3?$AA?2?$AAd?$AAd?$AA?2?$AAv?$AAc?$AAt?$AAo?$AAo?$AAl?$AAs?$AA?2?$AAc?$AAr?$AAt?$AA_?$AAb?$AAl?$AAd?$AA?2?$AAs?$AAe?$AAl?$AAf?$AA_?$AAx?$AA8?$AA6?$AA?2?$AAc@ 00592658     LIBCMTD:close.obj
 0003:0001b6c8       ??_C@_1FO@LPCLHKGE@?$AA?$CI?$AAf?$AAh?$AA?5?$AA?$DO?$AA?$DN?$AA?5?$AA0?$AA?5?$AA?$CG?$AA?$CG?$AA?5?$AA?$CI?$AAu?$AAn?$AAs?$AAi?$AAg?$AAn?$AAe?$AAd?$AA?$CJ?$AAf?$AAh?$AA?5?$AA?$DM?$AA?5?$AA?$CI?$AAu?$AAn?$AAs?$AAi@ 005926c8     LIBCMTD:close.obj
 0003:0001b738       ??_C@_1BA@JGHIEKKM@?$AA_?$AAf?$AAi?$AAl?$AAe?$AAn?$AAo?$AA?$AA@ 00592738     LIBCMTD:fileno.obj
 0003:0001b750       ??_C@_1GA@PBJHELNC@?$AAf?$AA?3?$AA?2?$AAd?$AAd?$AA?2?$AAv?$AAc?$AAt?$AAo?$AAo?$AAl?$AAs?$AA?2?$AAc?$AAr?$AAt?$AA_?$AAb?$AAl?$AAd?$AA?2?$AAs?$AAe?$AAl?$AAf?$AA_?$AAx?$AA8?$AA6?$AA?2?$AAc@ 00592750     LIBCMTD:fileno.obj
 0003:0001b7c8       ??_C@_1GE@MIMBMOF@?$AAf?$AA?3?$AA?2?$AAd?$AAd?$AA?2?$AAv?$AAc?$AAt?$AAo?$AAo?$AAl?$AAs?$AA?2?$AAc?$AAr?$AAt?$AA_?$AAb?$AAl?$AAd?$AA?2?$AAs?$AAe?$AAl?$AAf?$AA_?$AAx?$AA8?$AA6?$AA?2?$AAc@ 005927c8     LIBCMTD:_freebuf.obj
 0003:0001b840       ??_C@_1BO@KIJENGPH@?$AAs?$AAt?$AAr?$AAe?$AAa?$AAm?$AA?5?$AA?$CB?$AA?$DN?$AA?5?$AAN?$AAU?$AAL?$AAL?$AA?$AA@ 00592840     LIBCMTD:_freebuf.obj
 0003:0001b864       ??_C@_1DG@LNNHNFHJ@?$AA?$CI?$AA_?$AAo?$AAs?$AAf?$AAi?$AAl?$AAe?$AA?$CI?$AAf?$AAi?$AAl?$AAe?$AAd?$AAe?$AAs?$AA?$CJ?$AA?5?$AA?$CG?$AA?5?$AAF?$AAO?$AAP?$AAE?$AAN?$AA?$CJ?$AA?$AA@ 00592864     LIBCMTD:commit.obj
 0003:0001b8a4       ??_C@_1BA@FLNMBBIM@?$AA_?$AAc?$AAo?$AAm?$AAm?$AAi?$AAt?$AA?$AA@ 005928a4     LIBCMTD:commit.obj
 0003:0001b8b8       ??_C@_1GA@BOPCOCFN@?$AAf?$AA?3?$AA?2?$AAd?$AAd?$AA?2?$AAv?$AAc?$AAt?$AAo?$AAo?$AAl?$AAs?$AA?2?$AAc?$AAr?$AAt?$AA_?$AAb?$AAl?$AAd?$AA?2?$AAs?$AAe?$AAl?$AAf?$AA_?$AAx?$AA8?$AA6?$AA?2?$AAc@ 005928b8     LIBCMTD:commit.obj
 0003:0001b930       ??_C@_1HC@KFLBHHBC@?$AA?$CI?$AAf?$AAi?$AAl?$AAe?$AAd?$AAe?$AAs?$AA?5?$AA?$DO?$AA?$DN?$AA?5?$AA0?$AA?5?$AA?$CG?$AA?$CG?$AA?5?$AA?$CI?$AAu?$AAn?$AAs?$AAi?$AAg?$AAn?$AAe?$AAd?$AA?$CJ?$AAf?$AAi?$AAl?$AAe?$AAd@ 00592930     LIBCMTD:commit.obj
 0003:0001b9b8       ??_C@_1O@KOFKDHPL@?$AA_?$AAw?$AAr?$AAi?$AAt?$AAe?$AA?$AA@ 005929b8     LIBCMTD:write.obj
 0003:0001b9c8       ??_C@_1FO@EPLDPDDL@?$AAf?$AA?3?$AA?2?$AAd?$AAd?$AA?2?$AAv?$AAc?$AAt?$AAo?$AAo?$AAl?$AAs?$AA?2?$AAc?$AAr?$AAt?$AA_?$AAb?$AAl?$AAd?$AA?2?$AAs?$AAe?$AAl?$AAf?$AA_?$AAx?$AA8?$AA6?$AA?2?$AAc@ 005929c8     LIBCMTD:write.obj
 0003:0001ba38       ??_C@_1DI@CNMHHHLG@?$AAi?$AAs?$AAl?$AAe?$AAa?$AAd?$AAb?$AAy?$AAt?$AAe?$AA?$CI?$AA_?$AAd?$AAb?$AAc?$AAs?$AAB?$AAu?$AAf?$AAf?$AAe?$AAr?$AA?$CI?$AAf?$AAh?$AA?$CJ?$AA?$CJ?$AA?$AA@ 00592a38     LIBCMTD:write.obj
 0003:0001ba7c       ??_C@_1CC@EEOLPHGO@?$AA?$CI?$AA?$CI?$AAc?$AAn?$AAt?$AA?5?$AA?$CG?$AA?5?$AA1?$AA?$CJ?$AA?5?$AA?$DN?$AA?$DN?$AA?5?$AA0?$AA?$CJ?$AA?$AA@ 00592a7c     LIBCMTD:write.obj
 0003:0001baa4       ??_C@_1BM@NCANHCIP@?$AA_?$AAw?$AAr?$AAi?$AAt?$AAe?$AA_?$AAn?$AAo?$AAl?$AAo?$AAc?$AAk?$AA?$AA@ 00592aa4     LIBCMTD:write.obj
 0003:0001bac8       ??_C@_1BM@KFJLMBPG@?$AA?$CI?$AAb?$AAu?$AAf?$AA?5?$AA?$CB?$AA?$DN?$AA?5?$AAN?$AAU?$AAL?$AAL?$AA?$CJ?$AA?$AA@ 00592ac8     LIBCMTD:write.obj
 0003:0001baec       ??_C@_0DB@OLNNDFNH@f?3?2dd?2vctools?2crt_bld?2self_x86?2c@ 00592aec     LIBCMTD:_sftbuf.obj
 0003:0001bb28       ??_C@_1GC@DGAFOCMO@?$AAf?$AA?3?$AA?2?$AAd?$AAd?$AA?2?$AAv?$AAc?$AAt?$AAo?$AAo?$AAl?$AAs?$AA?2?$AAc?$AAr?$AAt?$AA_?$AAb?$AAl?$AAd?$AA?2?$AAs?$AAe?$AAl?$AAf?$AA_?$AAx?$AA8?$AA6?$AA?2?$AAc@ 00592b28     LIBCMTD:_sftbuf.obj
 0003:0001bba0       ??_C@_1CO@KCKAACMI@?$AAf?$AAl?$AAa?$AAg?$AA?5?$AA?$DN?$AA?$DN?$AA?5?$AA0?$AA?5?$AA?$HM?$AA?$HM?$AA?5?$AAf?$AAl?$AAa?$AAg?$AA?5?$AA?$DN?$AA?$DN?$AA?5?$AA1?$AA?$AA@ 00592ba0     LIBCMTD:_sftbuf.obj
 0003:0001bbd8       ??_C@_0DA@NBLAKPEL@f?3?2dd?2vctools?2crt_bld?2self_x86?2c@ 00592bd8     LIBCMTD:ioinit.obj
 0003:0001bc18       ___lookuptable_s           00592c18     LIBCMTD:outputs.obj
 0003:0001bc84       ??_C@_1BI@COFBLHCG@?$AA_?$AAo?$AAu?$AAt?$AAp?$AAu?$AAt?$AA_?$AAs?$AA_?$AAl?$AA?$AA@ 00592c84     LIBCMTD:outputs.obj
 0003:0001bcc8       ??_C@_1CI@KEDPFCAL@?$AA?$CI?$AA?$CK?$AAm?$AAo?$AAd?$AAe?$AA?5?$AA?$DN?$AA?$DN?$AA?5?$AA_?$AAT?$AA?$CI?$AA?8?$AA?2?$AA0?$AA?8?$AA?$CJ?$AA?$CJ?$AA?$AA@ 00592cc8     LIBCMTD:_open.obj
 0003:0001bcf8       ??_C@_1BE@DONHJJKE@?$AA_?$AAo?$AAp?$AAe?$AAn?$AAf?$AAi?$AAl?$AAe?$AA?$AA@ 00592cf8     LIBCMTD:_open.obj
 0003:0001bd10       ??_C@_1DK@PKMJBLLN@?$AA?$CI?$AA?$CC?$AAI?$AAn?$AAv?$AAa?$AAl?$AAi?$AAd?$AA?5?$AAf?$AAi?$AAl?$AAe?$AA?5?$AAo?$AAp?$AAe?$AAn?$AA?5?$AAm?$AAo?$AAd?$AAe?$AA?$CC?$AA?0?$AA0?$AA?$CJ?$AA?$AA@ 00592d10     LIBCMTD:_open.obj
 0003:0001bd58       ??_C@_1BK@HGLMNMEC@?$AAm?$AAo?$AAd?$AAe?$AA?5?$AA?$CB?$AA?$DN?$AA?5?$AAN?$AAU?$AAL?$AAL?$AA?$AA@ 00592d58     LIBCMTD:_open.obj
 0003:0001bd78       ??_C@_1FO@POGAHKND@?$AAf?$AA?3?$AA?2?$AAd?$AAd?$AA?2?$AAv?$AAc?$AAt?$AAo?$AAo?$AAl?$AAs?$AA?2?$AAc?$AAr?$AAt?$AA_?$AAb?$AAl?$AAd?$AA?2?$AAs?$AAe?$AAl?$AAf?$AA_?$AAx?$AA8?$AA6?$AA?2?$AAc@ 00592d78     LIBCMTD:_open.obj
 0003:0001bde8       ??_C@_1CC@JBMDNKJP@?$AAf?$AAi?$AAl?$AAe?$AAn?$AAa?$AAm?$AAe?$AA?5?$AA?$CB?$AA?$DN?$AA?5?$AAN?$AAU?$AAL?$AAL?$AA?$AA@ 00592de8     LIBCMTD:_open.obj
 0003:0001be10       ??_C@_0DA@NLPACBPK@f?3?2dd?2vctools?2crt_bld?2self_x86?2c@ 00592e10     LIBCMTD:stream.obj
 0003:0001be4c       ??_C@_0P@GGKDKEEG@runtime?5error?5?$AA@ 00592e4c     LIBCMTD:crt0msg.obj
 0003:0001be60       ??_C@_02PCIJFNDE@?$AN?6?$AA@ 00592e60     LIBCMTD:crt0msg.obj
 0003:0001be64       ??_C@_0O@MJNIPGOH@TLOSS?5error?$AN?6?$AA@ 00592e64     LIBCMTD:crt0msg.obj
 0003:0001be74       ??_C@_0N@BONNPDHF@SING?5error?$AN?6?$AA@ 00592e74     LIBCMTD:crt0msg.obj
 0003:0001be84       ??_C@_0P@MBDAJNE@DOMAIN?5error?$AN?6?$AA@ 00592e84     LIBCMTD:crt0msg.obj
 0003:0001be98       ??_C@_0BFB@HKKMCDOL@R6034?$AN?6An?5application?5has?5made?5a@ 00592e98     LIBCMTD:crt0msg.obj
 0003:0001c030       ??_C@_0PH@EPAFIJ@R6033?$AN?6?9?5Attempt?5to?5use?5MSIL?5cod@ 00593030     LIBCMTD:crt0msg.obj
 0003:0001c158       ??_C@_0DD@BKEEABMM@R6032?$AN?6?9?5not?5enough?5space?5for?5lo@ 00593158     LIBCMTD:crt0msg.obj
 0003:0001c198       ??_C@_0GD@OFKILIED@R6031?$AN?6?9?5Attempt?5to?5initialize?5t@ 00593198     LIBCMTD:crt0msg.obj
 0003:0001c210       ??_C@_0BP@LPMHJOKI@R6030?$AN?6?9?5CRT?5not?5initialized?$AN?6?$AA@ 00593210     LIBCMTD:crt0msg.obj
 0003:0001c238       ??_C@_0CF@KJDAIALP@R6028?$AN?6?9?5unable?5to?5initialize?5he@ 00593238     LIBCMTD:crt0msg.obj
 0003:0001c264       ??_C@_0DF@GAKBPDFP@R6027?$AN?6?9?5not?5enough?5space?5for?5lo@ 00593264     LIBCMTD:crt0msg.obj
 0003:0001c2a4       ??_C@_0DF@IBLNNAIG@R6026?$AN?6?9?5not?5enough?5space?5for?5st@ 005932a4     LIBCMTD:crt0msg.obj
 0003:0001c2e4       ??_C@_0CG@IOHKGFNJ@R6025?$AN?6?9?5pure?5virtual?5function?5c@ 005932e4     LIBCMTD:crt0msg.obj
 0003:0001c314       ??_C@_0DF@JIJJFJDC@R6024?$AN?6?9?5not?5enough?5space?5for?5_o@ 00593314     LIBCMTD:crt0msg.obj
 0003:0001c354       ??_C@_0CJ@EGEJHFME@R6019?$AN?6?9?5unable?5to?5open?5console?5@ 00593354     LIBCMTD:crt0msg.obj
 0003:0001c388       ??_C@_0CB@GNHNIELH@R6018?$AN?6?9?5unexpected?5heap?5error?$AN?6@ 00593388     LIBCMTD:crt0msg.obj
 0003:0001c3b0       ??_C@_0CN@FOLDKNG@R6017?$AN?6?9?5unexpected?5multithread?5@ 005933b0     LIBCMTD:crt0msg.obj
 0003:0001c3e8       ??_C@_0CM@FAHFJNHO@R6016?$AN?6?9?5not?5enough?5space?5for?5th@ 005933e8     LIBCMTD:crt0msg.obj
 0003:0001c420       ??_C@_0JG@LBKMGKLD@?$AN?6This?5application?5has?5requested@ 00593420     LIBCMTD:crt0msg.obj
 0003:0001c4d4       ??_C@_0CM@FLCNIPKK@R6009?$AN?6?9?5not?5enough?5space?5for?5en@ 005934d4     LIBCMTD:crt0msg.obj
 0003:0001c508       ??_C@_0CK@KMMJOAPP@R6008?$AN?6?9?5not?5enough?5space?5for?5ar@ 00593508     LIBCMTD:crt0msg.obj
 0003:0001c53c       ??_C@_0CN@LEKKICBM@R6002?$AN?6?9?5floating?5point?5support?5@ 0059353c     LIBCMTD:crt0msg.obj
 0003:0001c578       ??_C@_1KC@JBIKIPNF@?$AAs?$AAt?$AAr?$AAc?$AAa?$AAt?$AA_?$AAs?$AA?$CI?$AAo?$AAu?$AAt?$AAm?$AAs?$AAg?$AA?0?$AA?5?$AA?$CI?$AAs?$AAi?$AAz?$AAe?$AAo?$AAf?$AA?$CI?$AAo?$AAu?$AAt?$AAm?$AAs?$AAg?$AA?$CJ@ 00593578     LIBCMTD:crt0msg.obj
 0003:0001c640       ??_C@_1HO@POLIDBMF@?$AAs?$AAt?$AAr?$AAc?$AAa?$AAt?$AA_?$AAs?$AA?$CI?$AAo?$AAu?$AAt?$AAm?$AAs?$AAg?$AA?0?$AA?5?$AA?$CI?$AAs?$AAi?$AAz?$AAe?$AAo?$AAf?$AA?$CI?$AAo?$AAu?$AAt?$AAm?$AAs?$AAg?$AA?$CJ@ 00593640     LIBCMTD:crt0msg.obj
 0003:0001c6d8       ??_C@_1HG@CJJGKFHK@?$AAs?$AAt?$AAr?$AAn?$AAc?$AAp?$AAy?$AA_?$AAs?$AA?$CI?$AAp?$AAc?$AAh?$AA?0?$AA?5?$AAp?$AAr?$AAo?$AAg?$AAn?$AAa?$AAm?$AAe?$AA_?$AAs?$AAi?$AAz?$AAe?$AA?5?$AA?9?$AA?5?$AA?$CI@ 005936d8     LIBCMTD:crt0msg.obj
 0003:0001c768       ??_C@_1HI@FOOPEDMH@?$AAs?$AAt?$AAr?$AAc?$AAp?$AAy?$AA_?$AAs?$AA?$CI?$AAp?$AAr?$AAo?$AAg?$AAn?$AAa?$AAm?$AAe?$AA?0?$AA?5?$AAp?$AAr?$AAo?$AAg?$AAn?$AAa?$AAm?$AAe?$AA_?$AAs?$AAi?$AAz?$AAe@ 00593768     LIBCMTD:crt0msg.obj
 0003:0001c7f8       ??_C@_0BK@OFGJDLJJ@Runtime?5Error?$CB?6?6Program?3?5?$AA@ 005937f8     LIBCMTD:crt0msg.obj
 0003:0001c818       ??_C@_1KM@NKKPELHG@?$AAs?$AAt?$AAr?$AAc?$AAp?$AAy?$AA_?$AAs?$AA?$CI?$AAo?$AAu?$AAt?$AAm?$AAs?$AAg?$AA?0?$AA?5?$AA?$CI?$AAs?$AAi?$AAz?$AAe?$AAo?$AAf?$AA?$CI?$AAo?$AAu?$AAt?$AAm?$AAs?$AAg?$AA?$CJ@ 00593818     LIBCMTD:crt0msg.obj
 0003:0001c8e8       ??_C@_1BI@EAHMBMEC@?$AA_?$AAN?$AAM?$AAS?$AAG?$AA_?$AAW?$AAR?$AAI?$AAT?$AAE?$AA?$AA@ 005938e8     LIBCMTD:crt0msg.obj
 0003:0001c908       ??_C@_1GC@HKOJBOFF@?$AAf?$AA?3?$AA?2?$AAd?$AAd?$AA?2?$AAv?$AAc?$AAt?$AAo?$AAo?$AAl?$AAs?$AA?2?$AAc?$AAr?$AAt?$AA_?$AAb?$AAl?$AAd?$AA?2?$AAs?$AAe?$AAl?$AAf?$AA_?$AAx?$AA8?$AA6?$AA?2?$AAc@ 00593908     LIBCMTD:crt0msg.obj
 0003:0001c980       ??_C@_1GO@NGIGJNHH@?$AAs?$AAt?$AAr?$AAn?$AAc?$AAp?$AAy?$AA_?$AAs?$AA?$CI?$AA?$CK?$AAs?$AAt?$AAr?$AAa?$AAd?$AAd?$AAr?$AAe?$AAs?$AAs?$AA?0?$AA?5?$AAo?$AAu?$AAt?$AAs?$AAi?$AAz?$AAe?$AA?0?$AA?5@ 00593980     LIBCMTD:inithelp.obj
 0003:0001ca04       ??_C@_1CA@KHHCPEI@?$AA_?$AA_?$AAg?$AAe?$AAt?$AAl?$AAo?$AAc?$AAa?$AAl?$AAe?$AAi?$AAn?$AAf?$AAo?$AA?$AA@ 00593a04     LIBCMTD:inithelp.obj
 0003:0001ca30       ??_C@_1GE@PLPIMDHG@?$AAf?$AA?3?$AA?2?$AAd?$AAd?$AA?2?$AAv?$AAc?$AAt?$AAo?$AAo?$AAl?$AAs?$AA?2?$AAc?$AAr?$AAt?$AA_?$AAb?$AAl?$AAd?$AA?2?$AAs?$AAe?$AAl?$AAf?$AA_?$AAx?$AA8?$AA6?$AA?2?$AAc@ 00593a30     LIBCMTD:inithelp.obj
 0003:0001caa8       ??_C@_0DC@CFDMMFIG@f?3?2dd?2vctools?2crt_bld?2self_x86?2c@ 00593aa8     LIBCMTD:inithelp.obj
 0003:0001cae4       ??_C@_0L@KDOEJCKC@_nextafter?$AA@ 00593ae4     LIBCMTD:_fpexcept_.obj
 0003:0001caf4       ??_C@_05JGDBENOH@_logb?$AA@ 00593af4     LIBCMTD:_fpexcept_.obj
 0003:0001cafc       ??_C@_03ONILCKOB@_yn?$AA@  00593afc     LIBCMTD:_fpexcept_.obj
 0003:0001cb00       ??_C@_03NAKIGLHK@_y1?$AA@  00593b00     LIBCMTD:_fpexcept_.obj
 0003:0001cb04       ??_C@_03MJLDFKDL@_y0?$AA@  00593b04     LIBCMTD:_fpexcept_.obj
 0003:0001cb08       ??_C@_05GKKHEGJL@frexp?$AA@ 00593b08     LIBCMTD:_fpexcept_.obj
 0003:0001cb10       ??_C@_04KEPJIHGP@fmod?$AA@ 00593b10     LIBCMTD:_fpexcept_.obj
 0003:0001cb18       ??_C@_06MEIMCGCF@_hypot?$AA@ 00593b18     LIBCMTD:_fpexcept_.obj
 0003:0001cb20       ??_C@_05KBKMEMPO@_cabs?$AA@ 00593b20     LIBCMTD:_fpexcept_.obj
 0003:0001cb28       ??_C@_05CEJMAHNP@ldexp?$AA@ 00593b28     LIBCMTD:_fpexcept_.obj
 0003:0001cb30       ??_C@_04EHEDPDJG@modf?$AA@ 00593b30     LIBCMTD:_fpexcept_.obj
 0003:0001cb38       ??_C@_04ODHECPBC@fabs?$AA@ 00593b38     LIBCMTD:_fpexcept_.obj
 0003:0001cb40       ??_C@_05PBJFFIGL@floor?$AA@ 00593b40     LIBCMTD:_fpexcept_.obj
 0003:0001cb48       ??_C@_04GFPJNGEK@ceil?$AA@ 00593b48     LIBCMTD:_fpexcept_.obj
 0003:0001cb50       ??_C@_03IIINPABG@tan?$AA@  00593b50     LIBCMTD:_fpexcept_.obj
 0003:0001cb54       ??_C@_03LALBNOCG@cos?$AA@  00593b54     LIBCMTD:_fpexcept_.obj
 0003:0001cb58       ??_C@_03BLEJJJBH@sin?$AA@  00593b58     LIBCMTD:_fpexcept_.obj
 0003:0001cb5c       ??_C@_04EIAKFFMI@sqrt?$AA@ 00593b5c     LIBCMTD:_fpexcept_.obj
 0003:0001cb64       ??_C@_05KNGEOGJB@atan2?$AA@ 00593b64     LIBCMTD:_fpexcept_.obj
 0003:0001cb6c       ??_C@_04MLLJIGOK@atan?$AA@ 00593b6c     LIBCMTD:_fpexcept_.obj
 0003:0001cb74       ??_C@_04PDIFKINK@acos?$AA@ 00593b74     LIBCMTD:_fpexcept_.obj
 0003:0001cb7c       ??_C@_04FIHNOPOL@asin?$AA@ 00593b7c     LIBCMTD:_fpexcept_.obj
 0003:0001cb84       ??_C@_04FJHINJAO@tanh?$AA@ 00593b84     LIBCMTD:_fpexcept_.obj
 0003:0001cb8c       ??_C@_04HPJJNFIM@cosh?$AA@ 00593b8c     LIBCMTD:_fpexcept_.obj
 0003:0001cb94       ??_C@_04COOMCNPB@sinh?$AA@ 00593b94     LIBCMTD:_fpexcept_.obj
 0003:0001cb9c       ??_C@_05HGHHAHAP@log10?$AA@ 00593b9c     LIBCMTD:_fpexcept_.obj
 0003:0001cba4       ??_C@_03MGHMBJCF@log?$AA@  00593ba4     LIBCMTD:_fpexcept_.obj
 0003:0001cba8       ??_C@_03JGHBODFD@pow?$AA@  00593ba8     LIBCMTD:_fpexcept_.obj
 0003:0001cbac       ??_C@_03KHJOGHMM@exp?$AA@  00593bac     LIBCMTD:_fpexcept_.obj
 0003:0001cbb8       __DEFAULT_CW_in_mem        00593bb8     LIBCMTD:_common_.obj
 0003:0001cbba       __pi_by_2_to_61            00593bba     LIBCMTD:_common_.obj
 0003:0001e11c       ??_C@_1BA@IIKEPOGH@?$AA_?$AAf?$AAi?$AAl?$AAb?$AAu?$AAf?$AA?$AA@ 0059511c     LIBCMTD:_filbuf.obj
 0003:0001e130       ??_C@_1GC@CHFNJKFB@?$AAf?$AA?3?$AA?2?$AAd?$AAd?$AA?2?$AAv?$AAc?$AAt?$AAo?$AAo?$AAl?$AAs?$AA?2?$AAc?$AAr?$AAt?$AA_?$AAb?$AAl?$AAd?$AA?2?$AAs?$AAe?$AAl?$AAf?$AA_?$AAx?$AA8?$AA6?$AA?2?$AAc@ 00595130     LIBCMTD:_filbuf.obj
 0003:0001e1a8       ??_C@_1CC@HBLPFNKH@?$AA?$CI?$AAc?$AAn?$AAt?$AA?5?$AA?$DM?$AA?$DN?$AA?5?$AAI?$AAN?$AAT?$AA_?$AAM?$AAA?$AAX?$AA?$CJ?$AA?$AA@ 005951a8     LIBCMTD:read.obj
 0003:0001e1d0       ??_C@_1M@NHJOLLDM@?$AA_?$AAr?$AAe?$AAa?$AAd?$AA?$AA@ 005951d0     LIBCMTD:read.obj
 0003:0001e1e0       ??_C@_1FM@NGICBHLO@?$AAf?$AA?3?$AA?2?$AAd?$AAd?$AA?2?$AAv?$AAc?$AAt?$AAo?$AAo?$AAl?$AAs?$AA?2?$AAc?$AAr?$AAt?$AA_?$AAb?$AAl?$AAd?$AA?2?$AAs?$AAe?$AAl?$AAf?$AA_?$AAx?$AA8?$AA6?$AA?2?$AAc@ 005951e0     LIBCMTD:read.obj
 0003:0001e250       ??_C@_0CO@CEGKNHEH@f?3?2dd?2vctools?2crt_bld?2self_x86?2c@ 00595250     LIBCMTD:read.obj
 0003:0001e288       ??_C@_1CG@OHLJHGGK@?$AA?$CI?$AAi?$AAn?$AAp?$AAu?$AAt?$AAb?$AAu?$AAf?$AA?5?$AA?$CB?$AA?$DN?$AA?5?$AAN?$AAU?$AAL?$AAL?$AA?$CJ?$AA?$AA@ 00595288     LIBCMTD:read.obj
 0003:0001e2b8       ??_C@_1BK@JJBHNDKJ@?$AA_?$AAr?$AAe?$AAa?$AAd?$AA_?$AAn?$AAo?$AAl?$AAo?$AAc?$AAk?$AA?$AA@ 005952b8     LIBCMTD:read.obj
 0003:0001e2d8       ??_C@_1O@EDOIKGHF@?$AA_?$AAl?$AAs?$AAe?$AAe?$AAk?$AA?$AA@ 005952d8     LIBCMTD:lseek.obj
 0003:0001e2e8       ??_C@_1FO@LGKMLCAL@?$AAf?$AA?3?$AA?2?$AAd?$AAd?$AA?2?$AAv?$AAc?$AAt?$AAo?$AAo?$AAl?$AAs?$AA?2?$AAc?$AAr?$AAt?$AA_?$AAb?$AAl?$AAd?$AA?2?$AAs?$AAe?$AAl?$AAf?$AA_?$AAx?$AA8?$AA6?$AA?2?$AAc@ 005952e8     LIBCMTD:lseek.obj
 0003:0001e358       ??_C@_1DM@LMLOLGJ@?$AA?$CI?$AA?$CC?$AAI?$AAn?$AAv?$AAa?$AAl?$AAi?$AAd?$AA?5?$AAf?$AAi?$AAl?$AAe?$AA?5?$AAd?$AAe?$AAs?$AAc?$AAr?$AAi?$AAp?$AAt?$AAo?$AAr?$AA?$CC?$AA?0?$AA0?$AA?$CJ?$AA?$AA@ 00595358     LIBCMTD:lseek.obj
 0003:0001e3a0       ??_C@_1FE@CEHLKAHD@?$AAi?$AAb?$AAa?$AAs?$AAe?$AA?5?$AA?$DN?$AA?$DN?$AA?5?$AA0?$AA?5?$AA?$HM?$AA?$HM?$AA?5?$AA?$CI?$AA2?$AA?5?$AA?$DM?$AA?$DN?$AA?5?$AAi?$AAb?$AAa?$AAs?$AAe?$AA?5?$AA?$CG?$AA?$CG?$AA?5?$AAi?$AAb?$AAa@ 005953a0     LIBCMTD:strtol.obj
 0003:0001e404       ??_C@_1BA@LOLAMAJG@?$AAs?$AAt?$AAr?$AAt?$AAo?$AAx?$AAl?$AA?$AA@ 00595404     LIBCMTD:strtol.obj
 0003:0001e418       ??_C@_1GA@IPHKKOEI@?$AAf?$AA?3?$AA?2?$AAd?$AAd?$AA?2?$AAv?$AAc?$AAt?$AAo?$AAo?$AAl?$AAs?$AA?2?$AAc?$AAr?$AAt?$AA_?$AAb?$AAl?$AAd?$AA?2?$AAs?$AAe?$AAl?$AAf?$AA_?$AAx?$AA8?$AA6?$AA?2?$AAc@ 00595418     LIBCMTD:strtol.obj
 0003:0001e48c       ??_C@_1BK@LAOAACLJ@?$AAn?$AAp?$AAt?$AAr?$AA?5?$AA?$CB?$AA?$DN?$AA?5?$AAN?$AAU?$AAL?$AAL?$AA?$AA@ 0059548c     LIBCMTD:strtol.obj
 0003:0001e4ac       ??_C@_1BA@BMMDEPNE@?$AAs?$AAt?$AAr?$AAt?$AAo?$AAx?$AAq?$AA?$AA@ 005954ac     LIBCMTD:strtoq.obj
 0003:0001e4c0       ??_C@_1GA@GIMEIKLC@?$AAf?$AA?3?$AA?2?$AAd?$AAd?$AA?2?$AAv?$AAc?$AAt?$AAo?$AAo?$AAl?$AAs?$AA?2?$AAc?$AAr?$AAt?$AA_?$AAb?$AAl?$AAd?$AA?2?$AAs?$AAe?$AAl?$AAf?$AA_?$AAx?$AA8?$AA6?$AA?2?$AAc@ 005954c0     LIBCMTD:strtoq.obj
 0003:0001e538       __XcptActTab               00595538     LIBCMTD:winxfltr.obj
 0003:0001e5c8       ??_C@_1DE@MMOGFGHF@?$AAs?$AAt?$AAr?$AAc?$AAp?$AAy?$AA_?$AAs?$AA?$CI?$AA?$CK?$AAe?$AAn?$AAv?$AA?0?$AA?5?$AAc?$AAc?$AAh?$AAa?$AAr?$AAs?$AA?0?$AA?5?$AAp?$AA?$CJ?$AA?$AA@ 005955c8     LIBCMTD:stdenvp.obj
 0003:0001e608       ??_C@_1BC@GHMCNHHL@?$AA_?$AAs?$AAe?$AAt?$AAe?$AAn?$AAv?$AAp?$AA?$AA@ 00595608     LIBCMTD:stdenvp.obj
 0003:0001e620       ??_C@_1GC@DGBFLDBN@?$AAf?$AA?3?$AA?2?$AAd?$AAd?$AA?2?$AAv?$AAc?$AAt?$AAo?$AAo?$AAl?$AAs?$AA?2?$AAc?$AAr?$AAt?$AA_?$AAb?$AAl?$AAd?$AA?2?$AAs?$AAe?$AAl?$AAf?$AA_?$AAx?$AA8?$AA6?$AA?2?$AAc@ 00595620     LIBCMTD:stdenvp.obj
 0003:0001e698       ??_C@_0DB@BMEBJJKP@f?3?2dd?2vctools?2crt_bld?2self_x86?2c@ 00595698     LIBCMTD:stdenvp.obj
 0003:0001e6d4       ??_C@_0DB@OEPBJOLC@f?3?2dd?2vctools?2crt_bld?2self_x86?2c@ 005956d4     LIBCMTD:stdargv.obj
 0003:0001e710       ??_C@_0CP@PPLBCJDN@f?3?2dd?2vctools?2crt_bld?2self_x86?2c@ 00595710     LIBCMTD:a_env.obj
 0003:0001e748       ??_C@_1GE@JDDMFOID@?$AAf?$AA?3?$AA?2?$AAd?$AAd?$AA?2?$AAv?$AAc?$AAt?$AAo?$AAo?$AAl?$AAs?$AA?2?$AAc?$AAr?$AAt?$AA_?$AAb?$AAl?$AAd?$AA?2?$AAs?$AAe?$AAl?$AAf?$AA_?$AAx?$AA8?$AA6?$AA?2?$AAc@ 00595748     LIBCMTD:heapinit.obj
 0003:0001e7c0       ??_C@_1BC@DENNNKIM@?$AA_?$AAc?$AAr?$AAt?$AAh?$AAe?$AAa?$AAp?$AA?$AA@ 005957c0     LIBCMTD:heapinit.obj
 0003:0001e7d8       ??_C@_0BK@CIDNPOGP@GetUserObjectInformationA?$AA@ 005957d8     LIBCMTD:crtmbox.obj
 0003:0001e7f8       ??_C@_0M@CHKKJDAI@MessageBoxA?$AA@ 005957f8     LIBCMTD:crtmbox.obj
 0003:0001e808       ??_C@_0L@NDEGIDAG@USER32?4DLL?$AA@ 00595808     LIBCMTD:crtmbox.obj
 0003:0001e818       ??_C@_1O@GIMBNLEI@?$AAx?$AAt?$AAo?$AAa?$AA_?$AAs?$AA?$AA@ 00595818     LIBCMTD:xtoas.obj
 0003:0001e828       ??_C@_1BC@MJJNBNFN@?$AAx?$AA6?$AA4?$AAt?$AAo?$AAa?$AA_?$AAs?$AA?$AA@ 00595828     LIBCMTD:xtoas.obj
 0003:0001e840       ??_C@_1BC@HGPNAKGC@?$AAs?$AAt?$AAr?$AAc?$AAa?$AAt?$AA_?$AAs?$AA?$AA@ 00595840     LIBCMTD:strcat_s.obj
 0003:0001e858       ??_C@_1BE@KHFBJMNM@?$AA_?$AAl?$AAs?$AAe?$AAe?$AAk?$AAi?$AA6?$AA4?$AA?$AA@ 00595858     LIBCMTD:lseeki64.obj
 0003:0001e870       ??_C@_1GE@MINKPNPH@?$AAf?$AA?3?$AA?2?$AAd?$AAd?$AA?2?$AAv?$AAc?$AAt?$AAo?$AAo?$AAl?$AAs?$AA?2?$AAc?$AAr?$AAt?$AA_?$AAb?$AAl?$AAd?$AA?2?$AAs?$AAe?$AAl?$AAf?$AA_?$AAx?$AA8?$AA6?$AA?2?$AAc@ 00595870     LIBCMTD:lseeki64.obj
 0003:0001e8e8       ??_C@_0DB@JEHOCBEJ@f?3?2dd?2vctools?2crt_bld?2self_x86?2c@ 005958e8     LIBCMTD:_getbuf.obj
 0003:0001e928       ??_C@_1GC@DKMGNNCC@?$AAf?$AA?3?$AA?2?$AAd?$AAd?$AA?2?$AAv?$AAc?$AAt?$AAo?$AAo?$AAl?$AAs?$AA?2?$AAc?$AAr?$AAt?$AA_?$AAb?$AAl?$AAd?$AA?2?$AAs?$AAe?$AAl?$AAf?$AA_?$AAx?$AA8?$AA6?$AA?2?$AAc@ 00595928     LIBCMTD:_getbuf.obj
 0003:0001e9a0       ??_C@_1BA@LEBDGIHM@?$AA_?$AAi?$AAs?$AAa?$AAt?$AAt?$AAy?$AA?$AA@ 005959a0     LIBCMTD:isatty.obj
 0003:0001e9b8       ??_C@_1GA@LPGDJDEN@?$AAf?$AA?3?$AA?2?$AAd?$AAd?$AA?2?$AAv?$AAc?$AAt?$AAo?$AAo?$AAl?$AAs?$AA?2?$AAc?$AAr?$AAt?$AA_?$AAb?$AAl?$AAd?$AA?2?$AAs?$AAe?$AAl?$AAf?$AA_?$AAx?$AA8?$AA6?$AA?2?$AAc@ 005959b8     LIBCMTD:isatty.obj
 0003:0001ea2c       ??_C@_1O@GKDHFACN@?$AAp?$AAr?$AAi?$AAn?$AAt?$AAf?$AA?$AA@ 00595a2c     LIBCMTD:printf.obj
 0003:0001ea40       ??_C@_1GA@LHEGHOAF@?$AAf?$AA?3?$AA?2?$AAd?$AAd?$AA?2?$AAv?$AAc?$AAt?$AAo?$AAo?$AAl?$AAs?$AA?2?$AAc?$AAr?$AAt?$AA_?$AAb?$AAl?$AAd?$AA?2?$AAs?$AAe?$AAl?$AAf?$AA_?$AAx?$AA8?$AA6?$AA?2?$AAc@ 00595a40     LIBCMTD:printf.obj
 0003:0001eab4       ??_C@_1BI@IEADNOHF@?$AA_?$AAw?$AAc?$AAt?$AAo?$AAm?$AAb?$AA_?$AAs?$AA_?$AAl?$AA?$AA@ 00595ab4     LIBCMTD:wctomb.obj
 0003:0001ead0       ??_C@_1GA@LDLHPOO@?$AAf?$AA?3?$AA?2?$AAd?$AAd?$AA?2?$AAv?$AAc?$AAt?$AAo?$AAo?$AAl?$AAs?$AA?2?$AAc?$AAr?$AAt?$AA_?$AAb?$AAl?$AAd?$AA?2?$AAs?$AAe?$AAl?$AAf?$AA_?$AAx?$AA8?$AA6?$AA?2?$AAc@ 00595ad0     LIBCMTD:wctomb.obj
 0003:0001eb44       ??_C@_1CO@HFMIILNF@?$AAs?$AAi?$AAz?$AAe?$AAI?$AAn?$AAB?$AAy?$AAt?$AAe?$AAs?$AA?5?$AA?$DM?$AA?$DN?$AA?5?$AAI?$AAN?$AAT?$AA_?$AAM?$AAA?$AAX?$AA?$AA@ 00595b44     LIBCMTD:wctomb.obj
 0003:0001eb7c       ??_C@_0BB@NAGLCMLI@Assertion?5Failed?$AA@ 00595b7c     LIBCMTD:dbgrpt.obj
 0003:0001eb90       ??_C@_05NAOIJFC@Error?$AA@ 00595b90     LIBCMTD:dbgrpt.obj
 0003:0001eb98       ??_C@_07KGMMFLDN@Warning?$AA@ 00595b98     LIBCMTD:dbgrpt.obj
 0003:0001ebb4       ??_C@_1CG@GNMJDMIO@?$AA_?$AAC?$AAr?$AAt?$AAS?$AAe?$AAt?$AAR?$AAe?$AAp?$AAo?$AAr?$AAt?$AAH?$AAo?$AAo?$AAk?$AA2?$AA?$AA@ 00595bb4     LIBCMTD:dbgrpt.obj
 0003:0001ebe4       ??_C@_0CD@EBCGLDDL@Microsoft?5Visual?5C?$CL?$CL?5Debug?5Libra@ 00595be4     LIBCMTD:dbgrpt.obj
 0003:0001ec10       ??_C@_0FF@CCONDJCB@Debug?5?$CFs?$CB?6?6Program?3?5?$CFs?$CFs?$CFs?$CFs?$CFs?$CFs@ 00595c10     LIBCMTD:dbgrpt.obj
 0003:0001ec78       ??_C@_09OFBFHMBK@?6Module?3?5?$AA@ 00595c78     LIBCMTD:dbgrpt.obj
 0003:0001ec84       ??_C@_07OPHPPLBG@?6File?3?5?$AA@ 00595c84     LIBCMTD:dbgrpt.obj
 0003:0001ec90       ??_C@_07DBMPPHDI@?6Line?3?5?$AA@ 00595c90     LIBCMTD:dbgrpt.obj
 0003:0001eca0       ??_C@_0HD@GNBNFCCL@?6?6For?5information?5on?5how?5your?5pr@ 00595ca0     LIBCMTD:dbgrpt.obj
 0003:0001ed30       ??_C@_1GG@DLDHOIGE@?$AAs?$AAt?$AAr?$AAc?$AAp?$AAy?$AA_?$AAs?$AA?$CI?$AAs?$AAz?$AAE?$AAx?$AAe?$AAN?$AAa?$AAm?$AAe?$AA?0?$AA?5?$AA2?$AA6?$AA0?$AA?0?$AA?5?$AA?$CC?$AA?$DM?$AAp?$AAr?$AAo?$AAg?$AAr@ 00595d30     LIBCMTD:dbgrpt.obj
